 PhysXCommon_64

 Timestamp is 63422332 (Sun Oct  9 03:26:10 2022)

 Preferred load address is 0000000180000000

 Start         Length     Name                   Class
 0001:00000000 000028c0H .text$di                CODE
 0001:000028c0 001354f0H .text$mn                CODE
 0001:00137db0 00000040H .text$mn$00             CODE
 0001:00137df0 00000620H .text$x                 CODE
 0002:00000000 00000278H .idata$5                DATA
 0002:00000278 00000028H .00cfg                  DATA
 0002:000002a0 00000008H .CRT$XCA                DATA
 0002:000002a8 00001428H .CRT$XCU                DATA
 0002:000016d0 00000008H .CRT$XCZ                DATA
 0002:000016d8 00000008H .CRT$XIA                DATA
 0002:000016e0 00000018H .CRT$XIC                DATA
 0002:000016f8 00000008H .CRT$XIZ                DATA
 0002:00001700 00000008H .CRT$XPA                DATA
 0002:00001708 00000010H .CRT$XPX                DATA
 0002:00001718 00000008H .CRT$XPXA               DATA
 0002:00001720 00000008H .CRT$XPZ                DATA
 0002:00001728 00000008H .CRT$XTA                DATA
 0002:00001730 00000010H .CRT$XTZ                DATA
 0002:00001738 00000000H .gehcont$y              DATA
 0002:00001738 00000000H .gfids$y                DATA
 0002:00001740 0000cd40H .rdata                  DATA
 0002:0000e480 00000000H .rdata$CastGuardVftablesA DATA
 0002:0000e480 00000000H .rdata$CastGuardVftablesC DATA
 0002:0000e480 0000043cH .rdata$r                DATA
 0002:0000e8bc 000003dcH .rdata$zzzdbg           DATA
 0002:0000ec98 00000008H .rtc$IAA                DATA
 0002:0000eca0 00000008H .rtc$IZZ                DATA
 0002:0000eca8 00000008H .rtc$TAA                DATA
 0002:0000ecb0 00000008H .rtc$TZZ                DATA
 0002:0000ecb8 0000c8a0H .xdata                  DATA
 0002:0001b558 00000084H .xdata$x                DATA
 0002:0001b5dc 00000020H .didat$2                DATA
 0002:0001b5fc 00000024H .didat$3                DATA
 0002:0001b620 00000088H .didat$4                DATA
 0002:0001b6a8 00000318H .didat$6                DATA
 0002:0001b9c0 00000090H .didat$7                DATA
 0002:0001ba50 0000a0dcH .edata                  DATA
 0002:00025b2c 00000014H .idata$2                DATA
 0002:00025b40 00000018H .idata$3                DATA
 0002:00025b58 00000278H .idata$4                DATA
 0002:00025dd0 000005aeH .idata$6                DATA
 0003:00000000 00001430H .data                   DATA
 0003:00001430 000006b8H .data$r                 DATA
 0003:00001ae8 00000088H .didat$5                DATA
 0003:00001b70 00003ad0H .bss                    DATA
 0004:00000000 00007020H .pdata                  DATA
 0005:00000000 000022a4H _RDATA                  DATA
 0006:00000000 000000a0H .rsrc$01                DATA
 0006:000000a0 000004b0H .rsrc$02                DATA

  Address         Publics by Value              Rva+Base               Lib:Object

 0000:00000000       __guard_fids_count         0000000000000000     <absolute>
 0000:00000000       __guard_iat_table          0000000000000000     <absolute>
 0000:00000000       __arm64x_extra_rfe_table   0000000000000000     <absolute>
 0000:00000000       __guard_iat_count          0000000000000000     <absolute>
 0000:00000000       __guard_longjmp_count      0000000000000000     <absolute>
 0000:00000000       __hybrid_code_map          0000000000000000     <absolute>
 0000:00000000       __volatile_metadata        0000000000000000     <absolute>
 0000:00000000       __arm64x_extra_rfe_table_size 0000000000000000     <absolute>
 0000:00000000       __dynamic_value_reloc_table 0000000000000000     <absolute>
 0000:00000000       ___safe_se_handler_count   0000000000000000     <absolute>
 0000:00000000       __x64_code_ranges_to_entry_points_count 0000000000000000     <absolute>
 0000:00000000       __x64_code_ranges_to_entry_points 0000000000000000     <absolute>
 0000:00000000       __hybrid_auxiliary_iat     0000000000000000     <absolute>
 0000:00000000       __guard_longjmp_table      0000000000000000     <absolute>
 0000:00000000       __arm64x_redirection_metadata 0000000000000000     <absolute>
 0000:00000000       ___safe_se_handler_table   0000000000000000     <absolute>
 0000:00000000       __AbsoluteZero             0000000000000000     <absolute>
 0000:00000000       __guard_eh_cont_count      0000000000000000     <absolute>
 0000:00000000       __guard_fids_table         0000000000000000     <absolute>
 0000:00000000       __arm64x_redirection_metadata_count 0000000000000000     <absolute>
 0000:00000000       __enclave_config           0000000000000000     <absolute>
 0000:00000000       __guard_eh_cont_table      0000000000000000     <absolute>
 0000:00000000       __arm64x_native_entrypoint 0000000000000000     <absolute>
 0000:00000000       __hybrid_code_map_count    0000000000000000     <absolute>
 0000:00000100       __guard_flags              0000000000000100     <absolute>
 0000:00000000       __ImageBase                0000000180000000     <linker-defined>
 0001:000028c0       ??_ECollection@Cm@physx@@UEAAPEAXI@Z 00000001800038c0 f i CmCollection.obj
 0001:000028c0       ??_GCollection@Cm@physx@@UEAAPEAXI@Z 00000001800038c0 f i CmCollection.obj
 0001:00002970       ??_EPxCollection@physx@@MEAAPEAXI@Z 0000000180003970 f i CmCollection.obj
 0001:00002970       ??_GPxCollection@physx@@MEAAPEAXI@Z 0000000180003970 f i CmCollection.obj
 0001:000029a0       ?PxCreateCollection@@YAPEAVPxCollection@physx@@XZ 00000001800039a0 f   CmCollection.obj
 0001:00002aa0       ?add@Collection@Cm@physx@@UEAAXAEAVPxBase@3@_K@Z 0000000180003aa0 f   CmCollection.obj
 0001:00002b90       ?add@Collection@Cm@physx@@UEAAXAEAVPxCollection@3@@Z 0000000180003b90 f   CmCollection.obj
 0001:00002d30       ?addId@Collection@Cm@physx@@UEAAXAEAVPxBase@3@_K@Z 0000000180003d30 f   CmCollection.obj
 0001:00002e60       ?contains@Collection@Cm@physx@@UEBA_NAEAVPxBase@3@@Z 0000000180003e60 f   CmCollection.obj
 0001:00002f10       ?create@?$HashBase@V?$Pair@$$CB_KPEAVPxBase@physx@@@shdfnd@physx@@_KU?$Hash@_K@23@UGetKey@?$HashMapBase@_KPEAVPxBase@physx@@U?$Hash@_K@shdfnd@2@VNonTrackingAllocator@42@@internal@23@VNonTrackingAllocator@23@$00@internal@shdfnd@physx@@QEAAPEAV?$Pair@$$CB_KPEAVPxBase@physx@@@34@AEB_KAEA_N@Z 0000000180003f10 f i CmCollection.obj
 0001:00002f10       ?create@?$HashBase@V?$Pair@QEAVPxBase@physx@@_K@shdfnd@physx@@PEAVPxBase@3@U?$Hash@PEAVPxBase@physx@@@23@UGetKey@?$HashMapBase@PEAVPxBase@physx@@_KU?$Hash@PEAVPxBase@physx@@@shdfnd@2@VNonTrackingAllocator@42@@internal@23@VNonTrackingAllocator@23@$00@internal@shdfnd@physx@@QEAAPEAV?$Pair@QEAVPxBase@physx@@_K@34@AEBQEAVPxBase@4@AEA_N@Z 0000000180003f10 f i CmCollection.obj
 0001:000030b0       ?erase@?$HashBase@V?$Pair@$$CB_KPEAVPxBase@physx@@@shdfnd@physx@@_KU?$Hash@_K@23@UGetKey@?$HashMapBase@_KPEAVPxBase@physx@@U?$Hash@_K@shdfnd@2@VNonTrackingAllocator@42@@internal@23@VNonTrackingAllocator@23@$00@internal@shdfnd@physx@@QEAA_NAEB_K@Z 00000001800040b0 f i CmCollection.obj
 0001:000030b0       ?erase@?$HashBase@V?$Pair@QEAVPxBase@physx@@_K@shdfnd@physx@@PEAVPxBase@3@U?$Hash@PEAVPxBase@physx@@@23@UGetKey@?$HashMapBase@PEAVPxBase@physx@@_KU?$Hash@PEAVPxBase@physx@@@shdfnd@2@VNonTrackingAllocator@42@@internal@23@VNonTrackingAllocator@23@$00@internal@shdfnd@physx@@QEAA_NAEBQEAVPxBase@4@@Z 00000001800040b0 f i CmCollection.obj
 0001:00003250       ?find@?$HashMapBase@_KPEAVPxBase@physx@@U?$Hash@_K@shdfnd@2@VNonTrackingAllocator@42@@internal@shdfnd@physx@@QEBAPEBV?$Pair@$$CB_KPEAVPxBase@physx@@@34@AEB_K@Z 0000000180004250 f i CmCollection.obj
 0001:000032f0       ?find@Collection@Cm@physx@@UEBAPEAVPxBase@3@_K@Z 00000001800042f0 f   CmCollection.obj
 0001:00003320       ?getId@Collection@Cm@physx@@UEBA_KAEBVPxBase@3@@Z 0000000180004320 f   CmCollection.obj
 0001:000033d0       ?getIds@Collection@Cm@physx@@UEBAIPEA_KII@Z 00000001800043d0 f   CmCollection.obj
 0001:00003490       ?getNbColumns@HeightField@Gu@physx@@UEBAIXZ 0000000180004490 f   GuBounds.obj
 0001:00003490       ?getNbIds@Collection@Cm@physx@@UEBAIXZ 0000000180004490 f   CmCollection.obj
 0001:000034a0       ?getNbObjects@Collection@Cm@physx@@UEBAIXZ 00000001800044a0 f   CmCollection.obj
 0001:000034b0       ?getObject@Collection@Cm@physx@@UEBAAEAVPxBase@3@I@Z 00000001800044b0 f   CmCollection.obj
 0001:000034c0       ?getObjects@Collection@Cm@physx@@UEBAIPEAPEAVPxBase@3@II@Z 00000001800044c0 f   CmCollection.obj
 0001:00003510       ?release@Collection@Cm@physx@@UEAAXXZ 0000000180004510 f i CmCollection.obj
 0001:00003530       ?remove@Collection@Cm@physx@@UEAAXAEAVPxBase@3@@Z 0000000180004530 f   CmCollection.obj
 0001:00003620       ?remove@Collection@Cm@physx@@UEAAXAEAVPxCollection@3@@Z 0000000180004620 f   CmCollection.obj
 0001:00003730       ?removeId@Collection@Cm@physx@@UEAAX_K@Z 0000000180004730 f   CmCollection.obj
 0001:000037b0       ?reserveInternal@?$HashBase@V?$Pair@$$CB_KPEAVPxBase@physx@@@shdfnd@physx@@_KU?$Hash@_K@23@UGetKey@?$HashMapBase@_KPEAVPxBase@physx@@U?$Hash@_K@shdfnd@2@VNonTrackingAllocator@42@@internal@23@VNonTrackingAllocator@23@$00@internal@shdfnd@physx@@AEAAXI@Z 00000001800047b0 f i CmCollection.obj
 0001:000037b0       ?reserveInternal@?$HashBase@V?$Pair@QEAVPxBase@physx@@_K@shdfnd@physx@@PEAVPxBase@3@U?$Hash@PEAVPxBase@physx@@@23@UGetKey@?$HashMapBase@PEAVPxBase@physx@@_KU?$Hash@PEAVPxBase@physx@@@shdfnd@2@VNonTrackingAllocator@42@@internal@23@VNonTrackingAllocator@23@$00@internal@shdfnd@physx@@AEAAXI@Z 00000001800047b0 f i CmCollection.obj
 0001:000039a0       ??0PtrTable@Cm@physx@@QEAA@W4PxEMPTY@2@@Z 00000001800049a0 f i CmPtrTable.obj
 0001:000039c0       ??0PtrTable@Cm@physx@@QEAA@XZ 00000001800049c0 f   CmPtrTable.obj
 0001:000039d0       ?requiresObjects@HeightField@Gu@physx@@UEAAXAEAVPxProcessPxBaseCallback@3@@Z 00000001800049d0 f   GuHeightField.obj
 0001:000039d0       ?profile@Callback@RTree@Gu@physx@@UEAAXXZ 00000001800049d0 f   GuMidphaseRTree.obj
 0001:000039d0       ??1AABBTreeBuildNode@Gu@physx@@QEAA@XZ 00000001800049d0 f   GuAABBTreeBuild.obj
 0001:000039d0       _guard_check_icall_nop     00000001800049d0 f   LIBCMT:guard_support.obj
 0001:000039d0       ??1MaterialIndicesStruct@physx@@QEAA@XZ 00000001800049d0 f   GuGeometryUnion.obj
 0001:000039d0       ?requiresObjects@ConvexMesh@Gu@physx@@UEAAXAEAVPxProcessPxBaseCallback@3@@Z 00000001800049d0 f   GuConvexMesh.obj
 0001:000039d0       ??1PtrTable@Cm@physx@@QEAA@XZ 00000001800049d0 f   CmPtrTable.obj
 0001:000039d0       ??1HeightFieldData@Gu@physx@@QEAA@XZ 00000001800049d0 f   GuBounds.obj
 0001:000039d0       ?requiresObjects@TriangleMesh@Gu@physx@@UEAAXAEAVPxProcessPxBaseCallback@3@@Z 00000001800049d0 f   GuTriangleMesh.obj
 0001:000039d0       ??1Box@Gu@physx@@QEAA@XZ   00000001800049d0 f   GuBounds.obj
 0001:000039e0       ??4PtrTable@Cm@physx@@QEAAAEAU012@AEBU012@@Z 00000001800049e0 f i CmPtrTable.obj
 0001:000039e0       ??4MaterialIndicesStruct@physx@@QEAAAEAU01@AEBU01@@Z 00000001800049e0 f i GuGeometryUnion.obj
 0001:000039e0       ??4CmModuleUpdateLoader@Cm@physx@@QEAAAEAV012@AEBV012@@Z 00000001800049e0 f i CmWindowsModuleUpdateLoader.obj
 0001:000039f0       ?add@PtrTable@Cm@physx@@QEAAXPEAXAEAVPtrTableStorageManager@23@@Z 00000001800049f0 f   CmPtrTable.obj
 0001:00003ab0       ?clear@PtrTable@Cm@physx@@QEAAXAEAVPtrTableStorageManager@23@@Z 0000000180004ab0 f   CmPtrTable.obj
 0001:00003b30       ?exportExtraData@PtrTable@Cm@physx@@QEAAXAEAVPxSerializationContext@3@@Z 0000000180004b30 f   CmPtrTable.obj
 0001:00003b80       ?find@PtrTable@Cm@physx@@QEBAIPEBX@Z 0000000180004b80 f   CmPtrTable.obj
 0001:00003bb0       ?getBinaryMetaData@PtrTable@Cm@physx@@SAXAEAVPxOutputStream@3@@Z 0000000180004bb0 f   CmPtrTable.obj
 0001:00003d60       ?getCount@PtrTable@Cm@physx@@QEBAIXZ 0000000180004d60 f i CmPtrTable.obj
 0001:00003d70       ?getPtrs@PtrTable@Cm@physx@@QEBAPEBQEAXXZ 0000000180004d70 f i CmPtrTable.obj
 0001:00003d70       ?getPtrs@PtrTable@Cm@physx@@QEAAPEAPEAXXZ 0000000180004d70 f i CmPtrTable.obj
 0001:00003d80       ?importExtraData@PtrTable@Cm@physx@@QEAAXAEAVPxDeserializationContext@3@@Z 0000000180004d80 f   CmPtrTable.obj
 0001:00003db0       ?realloc@PtrTable@Cm@physx@@AEAAXIIAEAVPtrTableStorageManager@23@@Z 0000000180004db0 f   CmPtrTable.obj
 0001:00003e40       ?replaceWithLast@PtrTable@Cm@physx@@QEAAXIAEAVPtrTableStorageManager@23@@Z 0000000180004e40 f   CmPtrTable.obj
 0001:00003f40       ??0RadixSort@Cm@physx@@QEAA@XZ 0000000180004f40 f   CmRadixSort.obj
 0001:00003f70       ??1RadixSort@Cm@physx@@UEAA@XZ 0000000180004f70 f   CmRadixSort.obj
 0001:00003f80       ??_ERadixSort@Cm@physx@@UEAAPEAXI@Z 0000000180004f80 f i CmRadixSort.obj
 0001:00004010       ?GetNbHits@RadixSort@Cm@physx@@QEBAIXZ 0000000180005010 f i CmRadixSort.obj
 0001:00004020       ?GetNbTotalCalls@RadixSort@Cm@physx@@QEBAIXZ 0000000180005020 f i CmRadixSort.obj
 0001:00004030       ?GetRanks@RadixSort@Cm@physx@@QEBAPEBIXZ 0000000180005030 f i CmRadixSort.obj
 0001:00004030       ?getHeightField@HeightFieldUtil@Gu@physx@@QEBAAEBVHeightField@23@XZ 0000000180005030 f i GuCCTSweepTests.obj
 0001:00004040       ?GetValencies@BigConvexData@physx@@QEBAPEBUValency@Gu@2@XZ 0000000180005040 f i GuMetaData.obj
 0001:00004040       ?GetRecyclable@RadixSort@Cm@physx@@QEBAPEAIXZ 0000000180005040 f i CmRadixSort.obj
 0001:00004040       ?getHeightFieldGeometry@HeightFieldUtil@Gu@physx@@QEBAAEBVPxHeightFieldGeometry@3@XZ 0000000180005040 f i GuCCTSweepTests.obj
 0001:00004040       ?getPos@AABBTreeBuildNode@Gu@physx@@QEBAPEBV123@XZ 0000000180005040 f i GuAABBTreeBuild.obj
 0001:00004050       ?SetBuffers@RadixSort@Cm@physx@@QEAA_NPEAI00PEAPEAI@Z 0000000180005050 f   CmRadixSort.obj
 0001:00004090       ?Sort@RadixSort@Cm@physx@@QEAAAEAV123@PEBIIW4RadixHint@23@@Z 0000000180005090 f   CmRadixSort.obj
 0001:000046e0       ?Sort@RadixSort@Cm@physx@@QEAAAEAV123@PEBMI@Z 00000001800056e0 f   CmRadixSort.obj
 0001:00004e40       ?invalidateRanks@RadixSort@Cm@physx@@QEAAXXZ 0000000180005e40 f i CmRadixSort.obj
 0001:00004e50       ??0RadixSortBuffered@Cm@physx@@QEAA@XZ 0000000180005e50 f   CmRadixSortBuffered.obj
 0001:00004e80       ??1RadixSortBuffered@Cm@physx@@UEAA@XZ 0000000180005e80 f   CmRadixSortBuffered.obj
 0001:00004eb0       ??_ERadixSortBuffered@Cm@physx@@UEAAPEAXI@Z 0000000180005eb0 f i CmRadixSortBuffered.obj
 0001:00004fe0       ?CheckResize@RadixSortBuffered@Cm@physx@@AEAAXI@Z 0000000180005fe0 f i CmRadixSortBuffered.obj
 0001:00005020       ?Resize@RadixSortBuffered@Cm@physx@@AEAA_NI@Z 0000000180006020 f   CmRadixSortBuffered.obj
 0001:00005110       ?Sort@RadixSortBuffered@Cm@physx@@QEAAAEAV123@PEBIIW4RadixHint@23@@Z 0000000180006110 f   CmRadixSortBuffered.obj
 0001:000051b0       ?Sort@RadixSortBuffered@Cm@physx@@QEAAAEAV123@PEBMI@Z 00000001800061b0 f   CmRadixSortBuffered.obj
 0001:00005240       ?reset@RadixSortBuffered@Cm@physx@@QEAAXXZ 0000000180006240 f   CmRadixSortBuffered.obj
 0001:000052c0       ??0DebugText@Cm@physx@@QEAA@$$QEAU012@@Z 00000001800062c0 f i CmRenderOutput.obj
 0001:000052c0       ??0DebugText@Cm@physx@@QEAA@AEBU012@@Z 00000001800062c0 f i CmRenderOutput.obj
 0001:000053a0       ??0DebugText@Cm@physx@@QEAA@AEBVPxVec3@2@MPEBDZZ 00000001800063a0 f   CmRenderOutput.obj
 0001:00005400       ??0RenderOutput@Cm@physx@@QEAA@AEAVRenderBuffer@12@@Z 0000000180006400 f i CmRenderOutput.obj
 0001:00005450       ??0RenderOutput@Cm@physx@@QEAA@AEBV012@@Z 0000000180006450 f i CmRenderOutput.obj
 0001:000054f0       ??4DebugText@Cm@physx@@QEAAAEAU012@AEBU012@@Z 00000001800064f0 f i CmRenderOutput.obj
 0001:000054f0       ??4DebugText@Cm@physx@@QEAAAEAU012@$$QEAU012@@Z 00000001800064f0 f i CmRenderOutput.obj
 0001:00005620       ??6Cm@physx@@YAAEAVRenderOutput@01@AEAV201@AEBUDebugArc@01@@Z 0000000180006620 f   CmRenderOutput.obj
 0001:00005720       ??6Cm@physx@@YAAEAVRenderOutput@01@AEAV201@AEBUDebugArrow@01@@Z 0000000180006720 f   CmRenderOutput.obj
 0001:00005b10       ??6Cm@physx@@YAAEAVRenderOutput@01@AEAV201@AEBUDebugBasis@01@@Z 0000000180006b10 f   CmRenderOutput.obj
 0001:00005c10       ??6Cm@physx@@YAAEAVRenderOutput@01@AEAV201@AEBUDebugBox@01@@Z 0000000180006c10 f   CmRenderOutput.obj
 0001:00006110       ??6Cm@physx@@YAAEAVRenderOutput@01@AEAV201@AEBUDebugCircle@01@@Z 0000000180007110 f   CmRenderOutput.obj
 0001:000061f0       ??6RenderOutput@Cm@physx@@QEAAAEAV012@AEBUDebugText@12@@Z 00000001800071f0 f   CmRenderOutput.obj
 0001:00006400       ??6RenderOutput@Cm@physx@@QEAAAEAV012@AEBVPxMat44@2@@Z 0000000180007400 f   CmRenderOutput.obj
 0001:00006470       ??6RenderOutput@Cm@physx@@QEAAAEAV012@AEBVPxTransform@2@@Z 0000000180007470 f   CmRenderOutput.obj
 0001:000065f0       ??6RenderOutput@Cm@physx@@QEAAAEAV012@I@Z 00000001800075f0 f   CmRenderOutput.obj
 0001:00006600       ??6RenderOutput@Cm@physx@@QEAAAEAV012@VPxVec3@2@@Z 0000000180007600 f   CmRenderOutput.obj
 0001:00006b50       ??6RenderOutput@Cm@physx@@QEAAAEAV012@W4Primitive@012@@Z 0000000180007b50 f   CmRenderOutput.obj
 0001:00006b60       ?allocate@?$Array@DV?$ReflectionAllocator@D@shdfnd@physx@@@shdfnd@physx@@IEAAPEADI@Z 0000000180007b60 f i CmRenderOutput.obj
 0001:00006bf0       ?allocate@?$Array@UPxDebugLine@physx@@V?$ReflectionAllocator@UPxDebugLine@physx@@@shdfnd@2@@shdfnd@physx@@IEAAPEAUPxDebugLine@3@I@Z 0000000180007bf0 f i CmRenderOutput.obj
 0001:00006c90       ?allocate@?$Array@UPxDebugPoint@physx@@V?$ReflectionAllocator@UPxDebugPoint@physx@@@shdfnd@2@@shdfnd@physx@@IEAAPEAUPxDebugPoint@3@I@Z 0000000180007c90 f i CmRenderOutput.obj
 0001:00006d30       ?allocate@?$Array@UPxDebugText@physx@@V?$ReflectionAllocator@UPxDebugText@physx@@@shdfnd@2@@shdfnd@physx@@IEAAPEAUPxDebugText@3@I@Z 0000000180007d30 f i CmRenderOutput.obj
 0001:00006dd0       ?allocate@?$Array@UPxDebugTriangle@physx@@V?$ReflectionAllocator@UPxDebugTriangle@physx@@@shdfnd@2@@shdfnd@physx@@IEAAPEAUPxDebugTriangle@3@I@Z 0000000180007dd0 f i CmRenderOutput.obj
 0001:00006e70       ?copy@?$Array@UPxDebugLine@physx@@V?$ReflectionAllocator@UPxDebugLine@physx@@@shdfnd@2@@shdfnd@physx@@KAXPEAUPxDebugLine@3@0PEBU43@@Z 0000000180007e70 f i CmRenderOutput.obj
 0001:00007020       ?copy@?$Array@UPxDebugPoint@physx@@V?$ReflectionAllocator@UPxDebugPoint@physx@@@shdfnd@2@@shdfnd@physx@@KAXPEAUPxDebugPoint@3@0PEBU43@@Z 0000000180008020 f i CmRenderOutput.obj
 0001:00007120       ?copy@?$Array@UPxDebugText@physx@@V?$ReflectionAllocator@UPxDebugText@physx@@@shdfnd@2@@shdfnd@physx@@KAXPEAUPxDebugText@3@0PEBU43@@Z 0000000180008120 f i CmRenderOutput.obj
 0001:00007290       ?copy@?$Array@UPxDebugTriangle@physx@@V?$ReflectionAllocator@UPxDebugTriangle@physx@@@shdfnd@2@@shdfnd@physx@@KAXPEAUPxDebugTriangle@3@0PEBU43@@Z 0000000180008290 f i CmRenderOutput.obj
 0001:00007490       ?growAndPushBack@?$Array@DV?$ReflectionAllocator@D@shdfnd@physx@@@shdfnd@physx@@IEAAAEADAEBD@Z 0000000180008490 f i CmRenderOutput.obj
 0001:00007550       ?growAndPushBack@?$Array@UPxDebugLine@physx@@V?$ReflectionAllocator@UPxDebugLine@physx@@@shdfnd@2@@shdfnd@physx@@IEAAAEAUPxDebugLine@3@AEBU43@@Z 0000000180008550 f i CmRenderOutput.obj
 0001:00007630       ?growAndPushBack@?$Array@UPxDebugPoint@physx@@V?$ReflectionAllocator@UPxDebugPoint@physx@@@shdfnd@2@@shdfnd@physx@@IEAAAEAUPxDebugPoint@3@AEBU43@@Z 0000000180008630 f i CmRenderOutput.obj
 0001:000076f0       ?growAndPushBack@?$Array@UPxDebugText@physx@@V?$ReflectionAllocator@UPxDebugText@physx@@@shdfnd@2@@shdfnd@physx@@IEAAAEAUPxDebugText@3@AEBU43@@Z 00000001800086f0 f i CmRenderOutput.obj
 0001:000077c0       ?growAndPushBack@?$Array@UPxDebugTriangle@physx@@V?$ReflectionAllocator@UPxDebugTriangle@physx@@@shdfnd@2@@shdfnd@physx@@IEAAAEAUPxDebugTriangle@3@AEBU43@@Z 00000001800087c0 f i CmRenderOutput.obj
 0001:000078c0       ?outputCapsule@RenderOutput@Cm@physx@@QEAAAEAV123@MMAEBVPxMat44@3@@Z 00000001800088c0 f   CmRenderOutput.obj
 0001:000083a0       ?outputSegment@RenderOutput@Cm@physx@@QEAAXAEBVPxVec3@3@0@Z 00000001800093a0 f i CmRenderOutput.obj
 0001:00008460       ?recreate@?$Array@DV?$ReflectionAllocator@D@shdfnd@physx@@@shdfnd@physx@@IEAAXI@Z 0000000180009460 f i CmRenderOutput.obj
 0001:00008500       ?recreate@?$Array@UPxDebugLine@physx@@V?$ReflectionAllocator@UPxDebugLine@physx@@@shdfnd@2@@shdfnd@physx@@IEAAXI@Z 0000000180009500 f i CmRenderOutput.obj
 0001:00008590       ?reserveSegments@RenderOutput@Cm@physx@@QEAAPEAUPxDebugLine@3@I@Z 0000000180009590 f i CmRenderOutput.obj
 0001:00008600       ??DPxQuat@physx@@QEBA?AV01@AEBV01@@Z 0000000180009600 f i CmVisualization.obj
 0001:00008740       ?visualizeAngularLimit@Cm@physx@@YAXAEAVRenderOutput@12@MAEBVPxTransform@2@MM_N@Z 0000000180009740 f   CmVisualization.obj
 0001:00008900       ?visualizeDoubleCone@Cm@physx@@YAXAEAVRenderOutput@12@MAEBVPxTransform@2@M_N@Z 0000000180009900 f   CmVisualization.obj
 0001:00008b60       ?visualizeJointFrames@Cm@physx@@YAXAEAVRenderOutput@12@MAEBVPxTransform@2@1@Z 0000000180009b60 f   CmVisualization.obj
 0001:00008c20       ?visualizeLimitCone@Cm@physx@@YAXAEAVRenderOutput@12@MAEBVPxTransform@2@MM_N@Z 0000000180009c20 f   CmVisualization.obj
 0001:00008eb0       ?visualizeLinearLimit@Cm@physx@@YAXAEAVRenderOutput@12@MAEBVPxTransform@2@1M_N@Z 0000000180009eb0 f   CmVisualization.obj
 0001:00009130       ??0CmModuleUpdateLoader@Cm@physx@@QEAA@PEBD@Z 000000018000a130 f   CmWindowsModuleUpdateLoader.obj
 0001:00009170       ??1CmModuleUpdateLoader@Cm@physx@@QEAA@XZ 000000018000a170 f   CmWindowsModuleUpdateLoader.obj
 0001:000091a0       ?LoadModule@CmModuleUpdateLoader@Cm@physx@@QEAAPEAUHINSTANCE__@@PEBD0@Z 000000018000a1a0 f   CmWindowsModuleUpdateLoader.obj
 0001:000091c0       ?commonDelayHook@@YAP6A_JXZIPEAUDelayLoadInfo@@@Z 000000018000a1c0 f   CmWindowsDelayLoadHook.obj
 0001:000092a0       PxSetPhysXCommonDelayLoadHook 000000018000a2a0 f   CmWindowsDelayLoadHook.obj
 0001:000092b0       ??4Box@Gu@physx@@QEAAAEBV012@AEBV012@@Z 000000018000a2b0 f i GuBounds.obj
 0001:000092b0       ??0Box@Gu@physx@@QEAA@AEBV012@@Z 000000018000a2b0 f i GuBounds.obj
 0001:00009310       ??0Box@Gu@physx@@QEAA@AEBVPxVec3@2@0AEBVPxMat33@2@@Z 000000018000a310 f i GuBounds.obj
 0001:00009380       ??$forward@_K@std@@YA$$QEA_KAEA_K@Z 000000018000a380 f i libvcruntime:undname.obj
 0001:00009380       ??0MaterialIndicesStruct@physx@@QEAA@W4PxEMPTY@1@@Z 000000018000a380 f i GuGeometryUnion.obj
 0001:00009380       ??0HeightFieldData@Gu@physx@@QEAA@W4PxEMPTY@2@@Z 000000018000a380 f i GuBounds.obj
 0001:00009380       ?getAABB@AABBTreeBuildNode@Gu@physx@@QEBAAEBVPxBounds3@3@XZ 000000018000a380 f i GuAABBTreeBuild.obj
 0001:00009380       ??0Box@Gu@physx@@QEAA@XZ   000000018000a380 f i GuBounds.obj
 0001:00009380       ??0GeometryUnion@Gu@physx@@QEAA@W4PxEMPTY@2@@Z 000000018000a380 f i GuGeometryUnion.obj
 0001:00009380       ??0BigConvexData@physx@@QEAA@W4PxEMPTY@1@@Z 000000018000a380 f i GuMetaData.obj
 0001:00009380       ?getGeometry@GeometryUnion@Gu@physx@@QEBAAEBVPxGeometry@3@XZ 000000018000a380 f i GuGeometryUnion.obj
 0001:00009380       ??0AABBTreeBuildNode@Gu@physx@@QEAA@XZ 000000018000a380 f i GuAABBTreeBuild.obj
 0001:00009380       ?getPaddedBounds@HeightFieldData@Gu@physx@@QEBAAEBVCenterExtentsPadded@23@XZ 000000018000a380 f i GuBounds.obj
 0001:00009390       ??4HeightFieldData@Gu@physx@@QEAAAEAU012@$$QEAU012@@Z 000000018000a390 f i GuBounds.obj
 0001:00009390       ??4HeightFieldData@Gu@physx@@QEAAAEAU012@AEBU012@@Z 000000018000a390 f i GuBounds.obj
 0001:00009390       ??0HeightFieldData@Gu@physx@@QEAA@$$QEAU012@@Z 000000018000a390 f i GuBounds.obj
 0001:00009390       ??0HeightFieldData@Gu@physx@@QEAA@AEBU012@@Z 000000018000a390 f i GuBounds.obj
 0001:000093f0       ??0HeightFieldData@Gu@physx@@QEAA@XZ 000000018000a3f0 f i GuBounds.obj
 0001:00009400       ??0PxQuat@physx@@QEAA@AEBVPxMat33@1@@Z 000000018000a400 f i GuBounds.obj
 0001:000095e0       ??0ShapeData@Gu@physx@@QEAA@AEBVPxGeometry@2@AEBVPxTransform@2@M@Z 000000018000a5e0 f   GuBounds.obj
 0001:00009b40       ??1PxHeightField@physx@@MEAA@XZ 000000018000ab40 f i GuBounds.obj
 0001:00009b40       ??1PxConvexMesh@physx@@MEAA@XZ 000000018000ab40 f i GuBounds.obj
 0001:00009b50       ??_GPxTriangleMesh@physx@@MEAAPEAXI@Z 000000018000ab50 f i GuTriangleMesh.obj
 0001:00009b50       ??_EPxBase@physx@@MEAAPEAXI@Z 000000018000ab50 f i GuBounds.obj
 0001:00009b50       ??_EPxTriangleMesh@physx@@MEAAPEAXI@Z 000000018000ab50 f i GuTriangleMesh.obj
 0001:00009b50       ??_EPxBVHStructure@physx@@MEAAPEAXI@Z 000000018000ab50 f i GuBVHStructure.obj
 0001:00009b50       ??_GPxBase@physx@@MEAAPEAXI@Z 000000018000ab50 f i GuBounds.obj
 0001:00009b50       ??_GPxBVHStructure@physx@@MEAAPEAXI@Z 000000018000ab50 f i GuBVHStructure.obj
 0001:00009b80       ??_H@YAXPEAX_K1P6APEAX0@Z@Z 000000018000ab80 f i GuBounds.obj
 0001:00009bd0       ?computeAABBExtent@Box@Gu@physx@@QEBA?AVPxVec3@3@XZ 000000018000abd0 f i GuBounds.obj
 0001:00009c90       ?computeBounds@Gu@physx@@YAXAEAVPxBounds3@2@AEBVPxGeometry@2@AEBVPxTransform@2@MPEIBVCenterExtentsPadded@12@M@Z 000000018000ac90 f   GuBounds.obj
 0001:0000a570       ?computeBoundsWithCCDThreshold@Gu@physx@@YAMAEAVVec3p@12@0AEBVPxGeometry@2@AEBVPxTransform@2@PEIBVCenterExtentsPadded@12@@Z 000000018000b570 f   GuBounds.obj
 0001:0000a740       ?computeBoxPoints@Box@Gu@physx@@QEBAXPEIAVPxVec3@3@@Z 000000018000b740 f i GuBounds.obj
 0001:0000b6f0       ?getConcreteTypeName@PxConvexMesh@physx@@UEBAPEBDXZ 000000018000c6f0 f i GuBounds.obj
 0001:0000b700       ?getConcreteTypeName@PxHeightField@physx@@UEBAPEBDXZ 000000018000c700 f i GuBounds.obj
 0001:0000b710       ?getConvexEdgeThreshold@HeightField@Gu@physx@@UEBAMXZ 000000018000c710 f i GuBounds.obj
 0001:0000b720       ?getFlags@HeightField@Gu@physx@@UEBA?AV?$PxFlags@W4Enum@PxHeightFieldFlag@physx@@G@3@XZ 000000018000c720 f i GuBounds.obj
 0001:0000b730       ?getFormat@HeightField@Gu@physx@@UEBA?AW4Enum@PxHeightFieldFormat@3@XZ 000000018000c730 f i GuBounds.obj
 0001:0000b740       ?getHeight@HeightField@Gu@physx@@UEBAMMM@Z 000000018000c740 f i GuBounds.obj
 0001:0000b780       ?getHeightInternal2@HeightField@Gu@physx@@QEBAMIMM@Z 000000018000c780 f i GuBounds.obj
 0001:0000b8f0       ?getIndexBuffer@ConvexMesh@Gu@physx@@UEBAPEBEXZ 000000018000c8f0 f i GuBounds.obj
 0001:0000b930       ?getNbPolygons@ConvexMesh@Gu@physx@@UEBAIXZ 000000018000c930 f i GuBounds.obj
 0001:0000b940       ?getNbRows@HeightField@Gu@physx@@UEBAIXZ 000000018000c940 f i GuBounds.obj
 0001:0000b950       ?getNbVertices@ConvexMesh@Gu@physx@@UEBAIXZ 000000018000c950 f i GuBounds.obj
 0001:0000b960       ?getSample@HeightField@Gu@physx@@UEBAAEBUPxHeightFieldSample@3@II@Z 000000018000c960 f i GuBounds.obj
 0001:0000b970       ?getSampleStride@HeightField@Gu@physx@@UEBAIXZ 000000018000c970 f i GuBounds.obj
 0001:0000b980       ?getTimestamp@HeightField@Gu@physx@@UEBAIXZ 000000018000c980 f i GuBounds.obj
 0001:0000b990       ?getTransform@Box@Gu@physx@@QEBA?AVPxTransform@3@XZ 000000018000c990 f i GuBounds.obj
 0001:0000b9f0       ?getTriangleMaterialIndex@HeightField@Gu@physx@@UEBAGI@Z 000000018000c9f0 f i GuBounds.obj
 0001:0000ba20       ?getTriangleNormal@HeightField@Gu@physx@@UEBA?AVPxVec3@3@I@Z 000000018000ca20 f i GuBounds.obj
 0001:0000bb20       ?getVertices@ConvexMesh@Gu@physx@@UEBAPEBVPxVec3@3@XZ 000000018000cb20 f i GuBounds.obj
 0001:0000bb40       ?isKindOf@PxBase@physx@@MEBA_NPEBD@Z 000000018000cb40 f i GuBounds.obj
 0001:0000bb70       ?isKindOf@PxConvexMesh@physx@@MEBA_NPEBD@Z 000000018000cb70 f i GuBounds.obj
 0001:0000bbc0       ?isKindOf@PxHeightField@physx@@MEBA_NPEBD@Z 000000018000cbc0 f i GuBounds.obj
 0001:0000bc10       ?isReleasable@PxBase@physx@@UEBA_NXZ 000000018000cc10 f i GuBounds.obj
 0001:0000bc20       ?isValid@Box@Gu@physx@@QEBA_NXZ 000000018000cc20 f i GuBounds.obj
 0001:0000bc40       ?preExportDataReset@HeightField@Gu@physx@@QEAAXXZ 000000018000cc40 f i GuBounds.obj
 0001:0000bc40       ?preExportDataReset@ConvexMesh@Gu@physx@@QEAAXXZ 000000018000cc40 f i GuBounds.obj
 0001:0000bc50       ?rotate@Box@Gu@physx@@QEBA?AVPxVec3@3@AEBV43@@Z 000000018000cc50 f i GuBounds.obj
 0001:0000bce0       ?rotateInv@Box@Gu@physx@@QEBA?AVPxVec3@3@AEBV43@@Z 000000018000cce0 f i GuBounds.obj
 0001:0000bd70       ?setAxes@Box@Gu@physx@@QEAAXAEBVPxVec3@3@00@Z 000000018000cd70 f i GuBounds.obj
 0001:0000bdb0       ?setEmpty@Box@Gu@physx@@QEAAXXZ 000000018000cdb0 f i GuBounds.obj
 0001:0000bdf0       ?transform@Box@Gu@physx@@QEBA?AVPxVec3@3@AEBV43@@Z 000000018000cdf0 f i GuBounds.obj
 0001:0000be90       ?computeOBBPoints@Gu@physx@@YAXPEIAVPxVec3@2@AEBV32@1111@Z 000000018000ce90 f   GuBox.obj
 0001:0000c110       ?create@Box@Gu@physx@@QEAAXAEBVCapsule@23@@Z 000000018000d110 f   GuBox.obj
 0001:0000c340       ?getBoxEdges@Gu@physx@@YAPEBEXZ 000000018000d340 f   GuBox.obj
 0001:0000c350       ?computeBasis@shdfnd@physx@@YAXAEBVPxVec3@2@0AEAV32@11@Z 000000018000d350 f i GuCapsule.obj
 0001:0000c4f0       ?computeBoxAroundCapsule@Gu@physx@@YAXAEBVCapsule@12@AEAVBox@12@@Z 000000018000d4f0 f   GuCapsule.obj
 0001:0000c640       ??0HeightFieldTraceUtil@Gu@physx@@QEAA@AEBVPxHeightFieldGeometry@2@@Z 000000018000d640 f i GuCCTSweepTests.obj
 0001:0000c640       ??0HeightFieldUtil@Gu@physx@@QEAA@AEBVPxHeightFieldGeometry@2@@Z 000000018000d640 f i GuCCTSweepTests.obj
 0001:0000c680       ??4HeightFieldTraceUtil@Gu@physx@@QEAAAEAV012@$$QEAV012@@Z 000000018000d680 f i GuCCTSweepTests.obj
 0001:0000c680       ??4HeightFieldTraceUtil@Gu@physx@@QEAAAEAV012@AEBV012@@Z 000000018000d680 f i GuCCTSweepTests.obj
 0001:0000c680       ??4HeightFieldUtil@Gu@physx@@QEAAAEAV012@AEBV012@@Z 000000018000d680 f i GuCCTSweepTests.obj
 0001:0000c6a0       ??4HeightFieldUtil@Gu@physx@@QEAAAEAV012@$$QEAV012@@Z 000000018000d6a0 f i GuCCTSweepTests.obj
 0001:0000c6d0       ??_E?$EntityReport@I@Gu@physx@@UEAAPEAXI@Z 000000018000d6d0 f i GuCCTSweepTests.obj
 0001:0000c6d0       ??_G?$EntityReport@I@Gu@physx@@UEAAPEAXI@Z 000000018000d6d0 f i GuCCTSweepTests.obj
 0001:0000c730       ?ceilUp@HeightFieldTraceUtil@Gu@physx@@SAMM@Z 000000018000d730 f i GuCCTSweepTests.obj
 0001:0000c770       ?computePointNormal@HeightFieldUtil@Gu@physx@@QEBA?AVPxVec3@3@IAEBV43@AEBVPxTransform@3@MMMMAEAM@Z 000000018000d770 f i GuCCTSweepTests.obj
 0001:0000cb90       ?floorDown@HeightFieldTraceUtil@Gu@physx@@SAMM@Z 000000018000db90 f i GuCCTSweepTests.obj
 0001:0000cbd0       ?getFeatureIndex@HeightFieldUtil@Gu@physx@@SAII@Z 000000018000dbd0 f i GuCCTSweepTests.obj
 0001:0000cbe0       ?getFeatureType@HeightFieldUtil@Gu@physx@@SA?AW4Feature@123@I@Z 000000018000dbe0 f i GuCCTSweepTests.obj
 0001:0000cbf0       ?getHeightAtShapePoint@HeightFieldUtil@Gu@physx@@QEBAMMM@Z 000000018000dbf0 f i GuCCTSweepTests.obj
 0001:0000cc50       ?getNormalAtShapePoint@HeightFieldUtil@Gu@physx@@QEBA?AVPxVec3@3@MM@Z 000000018000dc50 f i GuCCTSweepTests.obj
 0001:0000cd10       ?getNormal_2@HeightField@Gu@physx@@QEBA?AVPxVec3@3@IMMMMM@Z 000000018000dd10 f i GuCCTSweepTests.obj
 0001:0000ce30       ?getOneOverColumnScale@HeightFieldUtil@Gu@physx@@QEBAMXZ 000000018000de30 f i GuCCTSweepTests.obj
 0001:0000ce40       ?getOneOverHeightScale@HeightFieldUtil@Gu@physx@@QEBAMXZ 000000018000de40 f i GuCCTSweepTests.obj
 0001:0000ce50       ?getOneOverRowScale@HeightFieldUtil@Gu@physx@@QEBAMXZ 000000018000de50 f i GuCCTSweepTests.obj
 0001:0000ce60       ?getVertexNormal@HeightFieldUtil@Gu@physx@@QEBA?AVPxVec3@3@I@Z 000000018000de60 f i GuCCTSweepTests.obj
 0001:0000cea0       ?shape2hfp@HeightFieldUtil@Gu@physx@@QEBA?AVPxVec3@3@AEBV43@@Z 000000018000dea0 f i GuCCTSweepTests.obj
 0001:0000cea0       ?hf2shapen@HeightFieldUtil@Gu@physx@@QEBA?AVPxVec3@3@AEBV43@@Z 000000018000dea0 f i GuCCTSweepTests.obj
 0001:0000cee0       ?hf2shapep@HeightFieldUtil@Gu@physx@@QEBA?AVPxVec3@3@AEBV43@@Z 000000018000dee0 f i GuCCTSweepTests.obj
 0001:0000cf20       ?hf2worldn@HeightFieldUtil@Gu@physx@@QEBA?AVPxVec3@3@AEBVPxTransform@3@AEBV43@@Z 000000018000df20 f i GuCCTSweepTests.obj
 0001:0000d090       ?hf2worldp@HeightFieldUtil@Gu@physx@@QEBA?AVPxVec3@3@AEBVPxTransform@3@AEBV43@@Z 000000018000e090 f i GuCCTSweepTests.obj
 0001:0000d210       ?isCollisionVertex@HeightFieldUtil@Gu@physx@@QEBA_NIII@Z 000000018000e210 f i GuCCTSweepTests.obj
 0001:0000d230       ?isQueryVertex@HeightFieldUtil@Gu@physx@@QEBA_NIII@Z 000000018000e230 f i GuCCTSweepTests.obj
 0001:0000d2f0       ?isShapePointOnHeightField@HeightFieldUtil@Gu@physx@@QEBA_NMM@Z 000000018000e2f0 f i GuCCTSweepTests.obj
 0001:0000d340       ?makeFeatureCode@HeightFieldUtil@Gu@physx@@SAIIW4Feature@123@@Z 000000018000e340 f i GuCCTSweepTests.obj
 0001:0000d500       ?sweepBoxTriangles_Precise@Gu@physx@@YA_NIPEBVPxTriangle@2@_NAEBVPxBoxGeometry@2@AEBVPxTransform@2@AEBVPxVec3@2@MAEAUPxSweepHit@2@PEBIMV?$PxFlags@W4Enum@PxHitFlag@physx@@G@2@@Z 000000018000e500 f   GuCCTSweepTests.obj
 0001:0000e270       ?sweepBox_BoxGeom_Precise@@YA_NAEBVPxGeometry@physx@@AEBVPxTransform@2@AEBVPxBoxGeometry@2@1AEBVBox@Gu@2@AEBVPxVec3@2@MAEAUPxSweepHit@2@V?$PxFlags@W4Enum@PxHitFlag@physx@@G@2@M@Z 000000018000f270 f   GuCCTSweepTests.obj
 0001:0000e420       ?sweepBox_CapsuleGeom_Precise@@YA_NAEBVPxGeometry@physx@@AEBVPxTransform@2@AEBVPxBoxGeometry@2@1AEBVBox@Gu@2@AEBVPxVec3@2@MAEAUPxSweepHit@2@V?$PxFlags@W4Enum@PxHitFlag@physx@@G@2@M@Z 000000018000f420 f   GuCCTSweepTests.obj
 0001:0000e7f0       ?sweepBox_HeightFieldGeom_Precise@@YA_NAEBVPxGeometry@physx@@AEBVPxTransform@2@AEBVPxBoxGeometry@2@1AEBVBox@Gu@2@AEBVPxVec3@2@MAEAUPxSweepHit@2@V?$PxFlags@W4Enum@PxHitFlag@physx@@G@2@M@Z 000000018000f7f0 f   GuCCTSweepTests.obj
 0001:0000ebc0       ?sweepBox_SphereGeom_Precise@@YA_NAEBVPxGeometry@physx@@AEBVPxTransform@2@AEBVPxBoxGeometry@2@1AEBVBox@Gu@2@AEBVPxVec3@2@MAEAUPxSweepHit@2@V?$PxFlags@W4Enum@PxHitFlag@physx@@G@2@M@Z 000000018000fbc0 f   GuCCTSweepTests.obj
 0001:0000ee90       ?sweepCapsule_BoxGeom_Precise@@YA_NAEBVPxGeometry@physx@@AEBVPxTransform@2@AEBVPxCapsuleGeometry@2@1AEBVCapsule@Gu@2@AEBVPxVec3@2@MAEAUPxSweepHit@2@V?$PxFlags@W4Enum@PxHitFlag@physx@@G@2@M@Z 000000018000fe90 f   GuCCTSweepTests.obj
 0001:0000f4e0       ?computePenetration@PxGeometryQuery@physx@@SA_NAEAVPxVec3@2@AEAMAEBVPxGeometry@2@AEBVPxTransform@2@23@Z 00000001800104e0 f   GuGeometryQuery.obj
 0001:0000f5c0       ?getWorldBounds@PxGeometryQuery@physx@@SA?AVPxBounds3@2@AEBVPxGeometry@2@AEBVPxTransform@2@M@Z 00000001800105c0 f   GuGeometryQuery.obj
 0001:0000f620       ?isFinite@PxQuat@physx@@QEBA_NXZ 0000000180010620 f i GuGeometryQuery.obj
 0001:0000f690       ?isValid@PxGeometryQuery@physx@@SA_NAEBVPxGeometry@2@@Z 0000000180010690 f   GuGeometryQuery.obj
 0001:0000f880       ?overlap@PxGeometryQuery@physx@@SA_NAEBVPxGeometry@2@AEBVPxTransform@2@01@Z 0000000180010880 f   GuGeometryQuery.obj
 0001:0000f910       ?pointDistance@PxGeometryQuery@physx@@SAMAEBVPxVec3@2@AEBVPxGeometry@2@AEBVPxTransform@2@PEAV32@@Z 0000000180010910 f   GuGeometryQuery.obj
 0001:0000ffa0       ?raycast@PxGeometryQuery@physx@@SAIAEBVPxVec3@2@0AEBVPxGeometry@2@AEBVPxTransform@2@MV?$PxFlags@W4Enum@PxHitFlag@physx@@G@2@IPEIAUPxRaycastHit@2@@Z 0000000180010fa0 f   GuGeometryQuery.obj
 0001:00010040       ?sweep@PxGeometryQuery@physx@@SA_NAEBVPxVec3@2@MAEBVPxGeometry@2@AEBVPxTransform@2@12AEAUPxSweepHit@2@V?$PxFlags@W4Enum@PxHitFlag@physx@@G@2@M@Z 0000000180011040 f   GuGeometryQuery.obj
 0001:00010440       ??0GeometryUnion@Gu@physx@@QEAA@AEBVPxGeometry@2@@Z 0000000180011440 f i GuGeometryUnion.obj
 0001:00010460       ??0GeometryUnion@Gu@physx@@QEAA@XZ 0000000180011460 f i GuGeometryUnion.obj
 0001:00010470       ??0MaterialIndicesStruct@physx@@QEAA@XZ 0000000180011470 f i GuGeometryUnion.obj
 0001:00010490       ??4GeometryUnion@Gu@physx@@QEAAAEAV012@AEBV012@@Z 0000000180011490 f i GuGeometryUnion.obj
 0001:00010490       ??4GeometryUnion@Gu@physx@@QEAAAEAV012@$$QEAV012@@Z 0000000180011490 f i GuGeometryUnion.obj
 0001:000104c0       ?allocate@MaterialIndicesStruct@physx@@QEAAXG@Z 00000001800114c0 f i GuGeometryUnion.obj
 0001:00010540       ?deallocate@MaterialIndicesStruct@physx@@QEAAXXZ 0000000180011540 f i GuGeometryUnion.obj
 0001:00010590       ?getNumAxes@SeparatingAxes@Gu@physx@@QEBAIXZ 0000000180011590 f i GuMTD.obj
 0001:00010590       ?getCount@BuildStats@Gu@physx@@QEBAIXZ 0000000180011590 f i GuAABBTreeBuild.obj
 0001:00010590       ?getType@GeometryUnion@Gu@physx@@QEBA?AW4Enum@PxGeometryType@3@XZ 0000000180011590 f i GuGeometryUnion.obj
 0001:000105a0       ?set@GeometryUnion@Gu@physx@@QEAAXAEBVPxGeometry@3@@Z 00000001800115a0 f   GuGeometryUnion.obj
 0001:00010780       ?computeBoundsAroundVertices@Gu@physx@@YAXAEAVPxBounds3@2@IPEIBVPxVec3@2@@Z 0000000180011780 f   GuInternal.obj
 0001:00010830       ?computeBoxPoints@Gu@physx@@YAXAEBVPxBounds3@2@PEIAVPxVec3@2@@Z 0000000180011830 f   GuInternal.obj
 0001:000108d0       ?computeSweptBox@Gu@physx@@YAXAEAVBox@12@AEBVPxVec3@2@1AEBVPxMat33@2@1M@Z 00000001800118d0 f   GuInternal.obj
 0001:00010e00       ?getPlane@Gu@physx@@YA?AVPxPlane@2@AEBVPxTransform@2@@Z 0000000180011e00 f   GuInternal.obj
 0001:00010eb0       ??$?_UI@@YAPEAX_KV?$ReflectionAllocator@I@shdfnd@physx@@PEBDH@Z 0000000180011eb0 f i GuMeshFactory.obj
 0001:00010f50       ??0GuMeshFactory@physx@@QEAA@XZ 0000000180011f50 f   GuMeshFactory.obj
 0001:000110e0       ??1GuMeshFactory@physx@@MEAA@XZ 00000001800120e0 f   GuMeshFactory.obj
 0001:000111d0       ??1MeshDataBase@Gu@physx@@UEAA@XZ 00000001800121d0 f i GuMeshFactory.obj
 0001:000112c0       ??1TriangleMeshData@Gu@physx@@UEAA@XZ 00000001800122c0 f i GuMeshFactory.obj
 0001:00011390       ??_EGuMeshFactory@physx@@MEAAPEAXI@Z 0000000180012390 f i GuMeshFactory.obj
 0001:000114a0       ??_EBV4TriangleData@Gu@physx@@UEAAPEAXI@Z 00000001800124a0 f i GuMeshFactory.obj
 0001:000114a0       ??_GBV4TriangleData@Gu@physx@@UEAAPEAXI@Z 00000001800124a0 f i GuMeshFactory.obj
 0001:00011530       ??_EMeshDataBase@Gu@physx@@UEAAPEAXI@Z 0000000180012530 f i GuMeshFactory.obj
 0001:00011530       ??_GMeshDataBase@Gu@physx@@UEAAPEAXI@Z 0000000180012530 f i GuMeshFactory.obj
 0001:000115a0       ??_GRTreeTriangleData@Gu@physx@@UEAAPEAXI@Z 00000001800125a0 f i GuMeshFactory.obj
 0001:000115a0       ??_ERTreeTriangleData@Gu@physx@@UEAAPEAXI@Z 00000001800125a0 f i GuMeshFactory.obj
 0001:00011650       ??_ETriangleMeshData@Gu@physx@@UEAAPEAXI@Z 0000000180012650 f i GuMeshFactory.obj
 0001:00011650       ??_GTriangleMeshData@Gu@physx@@UEAAPEAXI@Z 0000000180012650 f i GuMeshFactory.obj
 0001:000116c0       ?__global_array_delete@@YAXPEAX_K@Z 00000001800126c0 f i GuMeshFactory.obj
 0001:000116d0       ??_V@YAXPEAX_K@Z           00000001800126d0 f i LIBCMT:delete_array_size.obj
 0001:000116d0       ?__global_delete@@YAXPEAX_K@Z 00000001800126d0 f i GuMeshFactory.obj
 0001:000116e0       ?addBVHStructure@GuMeshFactory@physx@@QEAAXPEAVBVHStructure@Gu@2@_N@Z 00000001800126e0 f   GuMeshFactory.obj
 0001:00011760       ?addConvexMesh@GuMeshFactory@physx@@QEAAXPEAVConvexMesh@Gu@2@_N@Z 0000000180012760 f   GuMeshFactory.obj
 0001:000117e0       ?addFactoryListener@GuMeshFactory@physx@@QEAAXAEAVGuMeshFactoryListener@2@@Z 00000001800127e0 f   GuMeshFactory.obj
 0001:00011850       ?addHeightField@GuMeshFactory@physx@@QEAAXPEAVHeightField@Gu@2@_N@Z 0000000180012850 f   GuMeshFactory.obj
 0001:000118d0       ?addTriangleMesh@GuMeshFactory@physx@@QEAAXPEAVTriangleMesh@Gu@2@_N@Z 00000001800128d0 f   GuMeshFactory.obj
 0001:00011950       ?create@?$HashBase@PEAVHeightField@Gu@physx@@PEAV123@U?$Hash@PEAVHeightField@Gu@physx@@@shdfnd@3@UGetKey@?$HashSetBase@PEAVHeightField@Gu@physx@@U?$Hash@PEAVHeightField@Gu@physx@@@shdfnd@3@VNonTrackingAllocator@53@$00@internal@53@VNonTrackingAllocator@53@$00@internal@shdfnd@physx@@QEAAPEAPEAVHeightField@Gu@4@AEBQEAV564@AEA_N@Z 0000000180012950 f i GuMeshFactory.obj
 0001:00011950       ?create@?$HashBase@PEAVTriangleMesh@Gu@physx@@PEAV123@U?$Hash@PEAVTriangleMesh@Gu@physx@@@shdfnd@3@UGetKey@?$HashSetBase@PEAVTriangleMesh@Gu@physx@@U?$Hash@PEAVTriangleMesh@Gu@physx@@@shdfnd@3@VNonTrackingAllocator@53@$00@internal@53@VNonTrackingAllocator@53@$00@internal@shdfnd@physx@@QEAAPEAPEAVTriangleMesh@Gu@4@AEBQEAV564@AEA_N@Z 0000000180012950 f i GuMeshFactory.obj
 0001:00011950       ?create@?$HashBase@PEAVBVHStructure@Gu@physx@@PEAV123@U?$Hash@PEAVBVHStructure@Gu@physx@@@shdfnd@3@UGetKey@?$HashSetBase@PEAVBVHStructure@Gu@physx@@U?$Hash@PEAVBVHStructure@Gu@physx@@@shdfnd@3@VNonTrackingAllocator@53@$00@internal@53@VNonTrackingAllocator@53@$00@internal@shdfnd@physx@@QEAAPEAPEAVBVHStructure@Gu@4@AEBQEAV564@AEA_N@Z 0000000180012950 f i GuMeshFactory.obj
 0001:00011950       ?create@?$HashBase@PEAVConvexMesh@Gu@physx@@PEAV123@U?$Hash@PEAVConvexMesh@Gu@physx@@@shdfnd@3@UGetKey@?$HashSetBase@PEAVConvexMesh@Gu@physx@@U?$Hash@PEAVConvexMesh@Gu@physx@@@shdfnd@3@VNonTrackingAllocator@53@$00@internal@53@VNonTrackingAllocator@53@$00@internal@shdfnd@physx@@QEAAPEAPEAVConvexMesh@Gu@4@AEBQEAV564@AEA_N@Z 0000000180012950 f i GuMeshFactory.obj
 0001:00011af0       ?createBVHStructure@GuMeshFactory@physx@@IEAAPEAVPxBVHStructure@2@AEAUBVHStructureData@Gu@2@@Z 0000000180012af0 f   GuMeshFactory.obj
 0001:00011bf0       ?createBVHStructure@GuMeshFactory@physx@@QEAAPEAVPxBVHStructure@2@AEAVPxInputStream@2@@Z 0000000180012bf0 f   GuMeshFactory.obj
 0001:00011d10       ?createBVHStructure@GuMeshFactory@physx@@QEAAPEAVPxBVHStructure@2@PEAX@Z 0000000180012d10 f   GuMeshFactory.obj
 0001:00011d20       ?createConvexMesh@GuMeshFactory@physx@@IEAAPEAVPxConvexMesh@2@AEAUConvexHullInitData@Gu@2@@Z 0000000180012d20 f   GuMeshFactory.obj
 0001:00011e10       ?createConvexMesh@GuMeshFactory@physx@@QEAAPEAVPxConvexMesh@2@AEAVPxInputStream@2@@Z 0000000180012e10 f   GuMeshFactory.obj
 0001:00011f30       ?createConvexMesh@GuMeshFactory@physx@@QEAAPEAVPxConvexMesh@2@PEAX@Z 0000000180012f30 f   GuMeshFactory.obj
 0001:00011f40       ?createHeightField@GuMeshFactory@physx@@QEAAPEAVPxHeightField@2@AEAVPxInputStream@2@@Z 0000000180012f40 f   GuMeshFactory.obj
 0001:00012060       ?createHeightField@GuMeshFactory@physx@@QEAAPEAVPxHeightField@2@PEAX@Z 0000000180013060 f   GuMeshFactory.obj
 0001:00012160       ?createTriangleMesh@GuMeshFactory@physx@@IEAAPEAVPxTriangleMesh@2@AEAVTriangleMeshData@Gu@2@@Z 0000000180013160 f   GuMeshFactory.obj
 0001:000122f0       ?createTriangleMesh@GuMeshFactory@physx@@QEAAPEAVPxTriangleMesh@2@AEAVPxInputStream@2@@Z 00000001800132f0 f   GuMeshFactory.obj
 0001:00012350       ?createTriangleMesh@GuMeshFactory@physx@@QEAAPEAVPxTriangleMesh@2@PEAX@Z 0000000180013350 f   GuMeshFactory.obj
 0001:00012360       ?erase@?$HashBase@PEAVTriangleMesh@Gu@physx@@PEAV123@U?$Hash@PEAVTriangleMesh@Gu@physx@@@shdfnd@3@UGetKey@?$HashSetBase@PEAVTriangleMesh@Gu@physx@@U?$Hash@PEAVTriangleMesh@Gu@physx@@@shdfnd@3@VNonTrackingAllocator@53@$00@internal@53@VNonTrackingAllocator@53@$00@internal@shdfnd@physx@@QEAA_NAEBQEAVTriangleMesh@Gu@4@@Z 0000000180013360 f i GuMeshFactory.obj
 0001:00012360       ?erase@?$HashBase@PEAVBVHStructure@Gu@physx@@PEAV123@U?$Hash@PEAVBVHStructure@Gu@physx@@@shdfnd@3@UGetKey@?$HashSetBase@PEAVBVHStructure@Gu@physx@@U?$Hash@PEAVBVHStructure@Gu@physx@@@shdfnd@3@VNonTrackingAllocator@53@$00@internal@53@VNonTrackingAllocator@53@$00@internal@shdfnd@physx@@QEAA_NAEBQEAVBVHStructure@Gu@4@@Z 0000000180013360 f i GuMeshFactory.obj
 0001:00012360       ?erase@?$HashBase@PEAVHeightField@Gu@physx@@PEAV123@U?$Hash@PEAVHeightField@Gu@physx@@@shdfnd@3@UGetKey@?$HashSetBase@PEAVHeightField@Gu@physx@@U?$Hash@PEAVHeightField@Gu@physx@@@shdfnd@3@VNonTrackingAllocator@53@$00@internal@53@VNonTrackingAllocator@53@$00@internal@shdfnd@physx@@QEAA_NAEBQEAVHeightField@Gu@4@@Z 0000000180013360 f i GuMeshFactory.obj
 0001:00012360       ?erase@?$HashBase@PEAVConvexMesh@Gu@physx@@PEAV123@U?$Hash@PEAVConvexMesh@Gu@physx@@@shdfnd@3@UGetKey@?$HashSetBase@PEAVConvexMesh@Gu@physx@@U?$Hash@PEAVConvexMesh@Gu@physx@@@shdfnd@3@VNonTrackingAllocator@53@$00@internal@53@VNonTrackingAllocator@53@$00@internal@shdfnd@physx@@QEAA_NAEBQEAVConvexMesh@Gu@4@@Z 0000000180013360 f i GuMeshFactory.obj
 0001:000124d0       ?getBVHStructures@GuMeshFactory@physx@@QEBAIPEAPEAVPxBVHStructure@2@II@Z 00000001800134d0 f   GuMeshFactory.obj
 0001:00012570       ?getConvexMeshes@GuMeshFactory@physx@@QEBAIPEAPEAVPxConvexMesh@2@II@Z 0000000180013570 f   GuMeshFactory.obj
 0001:00012600       ?getHeightFields@GuMeshFactory@physx@@QEBAIPEAPEAVPxHeightField@2@II@Z 0000000180013600 f   GuMeshFactory.obj
 0001:000126a0       ?getNbBVHStructures@GuMeshFactory@physx@@QEBAIXZ 00000001800136a0 f   GuMeshFactory.obj
 0001:000126e0       ?getNbConvexMeshes@GuMeshFactory@physx@@QEBAIXZ 00000001800136e0 f   GuMeshFactory.obj
 0001:00012720       ?getNbHeightFields@GuMeshFactory@physx@@QEBAIXZ 0000000180013720 f   GuMeshFactory.obj
 0001:00012760       ?getNbTriangleMeshes@GuMeshFactory@physx@@QEBAIXZ 0000000180013760 f   GuMeshFactory.obj
 0001:000127a0       ?getTriangleMeshes@GuMeshFactory@physx@@QEBAIPEAPEAVPxTriangleMesh@2@II@Z 00000001800137a0 f   GuMeshFactory.obj
 0001:00012830       ?growAndPushBack@?$Array@PEAVGuMeshFactoryListener@physx@@V?$ReflectionAllocator@PEAVGuMeshFactoryListener@physx@@@shdfnd@2@@shdfnd@physx@@IEAAAEAPEAVGuMeshFactoryListener@3@AEBQEAV43@@Z 0000000180013830 f i GuMeshFactory.obj
 0001:000137e0       ?notifyFactoryListener@GuMeshFactory@physx@@QEAAXPEBVPxBase@2@G@Z 00000001800147e0 f   GuMeshFactory.obj
 0001:00013850       ?release@GuMeshFactory@physx@@QEAAXXZ 0000000180014850 f   GuMeshFactory.obj
 0001:000138f0       ?removeBVHStructure@GuMeshFactory@physx@@QEAA_NAEAVPxBVHStructure@2@@Z 00000001800148f0 f   GuMeshFactory.obj
 0001:00013940       ?removeConvexMesh@GuMeshFactory@physx@@QEAA_NAEAVPxConvexMesh@2@@Z 0000000180014940 f   GuMeshFactory.obj
 0001:00013990       ?removeFactoryListener@GuMeshFactory@physx@@QEAAXAEAVGuMeshFactoryListener@2@@Z 0000000180014990 f   GuMeshFactory.obj
 0001:00013a20       ?removeHeightField@GuMeshFactory@physx@@QEAA_NAEAVPxHeightField@2@@Z 0000000180014a20 f   GuMeshFactory.obj
 0001:00013a70       ?removeTriangleMesh@GuMeshFactory@physx@@QEAA_NAEAVPxTriangleMesh@2@@Z 0000000180014a70 f   GuMeshFactory.obj
 0001:00013ac0       ?reserveInternal@?$HashBase@PEAVBVHStructure@Gu@physx@@PEAV123@U?$Hash@PEAVBVHStructure@Gu@physx@@@shdfnd@3@UGetKey@?$HashSetBase@PEAVBVHStructure@Gu@physx@@U?$Hash@PEAVBVHStructure@Gu@physx@@@shdfnd@3@VNonTrackingAllocator@53@$00@internal@53@VNonTrackingAllocator@53@$00@internal@shdfnd@physx@@AEAAXI@Z 0000000180014ac0 f i GuMeshFactory.obj
 0001:00013ac0       ?reserveInternal@?$HashBase@PEAVConvexMesh@Gu@physx@@PEAV123@U?$Hash@PEAVConvexMesh@Gu@physx@@@shdfnd@3@UGetKey@?$HashSetBase@PEAVConvexMesh@Gu@physx@@U?$Hash@PEAVConvexMesh@Gu@physx@@@shdfnd@3@VNonTrackingAllocator@53@$00@internal@53@VNonTrackingAllocator@53@$00@internal@shdfnd@physx@@AEAAXI@Z 0000000180014ac0 f i GuMeshFactory.obj
 0001:00013ac0       ?reserveInternal@?$HashBase@PEAVTriangleMesh@Gu@physx@@PEAV123@U?$Hash@PEAVTriangleMesh@Gu@physx@@@shdfnd@3@UGetKey@?$HashSetBase@PEAVTriangleMesh@Gu@physx@@U?$Hash@PEAVTriangleMesh@Gu@physx@@@shdfnd@3@VNonTrackingAllocator@53@$00@internal@53@VNonTrackingAllocator@53@$00@internal@shdfnd@physx@@AEAAXI@Z 0000000180014ac0 f i GuMeshFactory.obj
 0001:00013ac0       ?reserveInternal@?$HashBase@PEAVHeightField@Gu@physx@@PEAV123@U?$Hash@PEAVHeightField@Gu@physx@@@shdfnd@3@UGetKey@?$HashSetBase@PEAVHeightField@Gu@physx@@U?$Hash@PEAVHeightField@Gu@physx@@@shdfnd@3@VNonTrackingAllocator@53@$00@internal@53@VNonTrackingAllocator@53@$00@internal@shdfnd@physx@@AEAAXI@Z 0000000180014ac0 f i GuMeshFactory.obj
 0001:00013c90       ??4BigConvexData@physx@@QEAAAEAV01@AEBV01@@Z 0000000180014c90 f i GuMetaData.obj
 0001:00013cb0       ?GetAdjacentVerts@BigConvexData@physx@@QEBAPEBEXZ 0000000180014cb0 f i GuMetaData.obj
 0001:00013cc0       ?GetNbNeighbors@BigConvexData@physx@@QEBAGI@Z 0000000180014cc0 f i GuMetaData.obj
 0001:00013cc0       ?GetValency@BigConvexData@physx@@QEBAGI@Z 0000000180014cc0 f i GuMetaData.obj
 0001:00013cd0       ?GetNbSamples@BigConvexData@physx@@QEBAIXZ 0000000180014cd0 f i GuMetaData.obj
 0001:00013ce0       ?length@pcharNode@@UEBAHXZ 0000000180014ce0 f i libvcruntime:undname.obj
 0001:00013ce0       ?raw_length@pcharNode@@UEBAHXZ 0000000180014ce0 f i libvcruntime:undname.obj
 0001:00013ce0       ?GetNbVerts@BigConvexData@physx@@QEBAIXZ 0000000180014ce0 f i GuMetaData.obj
 0001:00013cf0       ?GetNeighbors@BigConvexData@physx@@QEBAPEBEI@Z 0000000180014cf0 f i GuMetaData.obj
 0001:00013d00       ?GetOffset@BigConvexData@physx@@QEBAGI@Z 0000000180014d00 f i GuMetaData.obj
 0001:00013d10       ?GetSubdiv@BigConvexData@physx@@QEBAIXZ 0000000180014d10 f i GuMetaData.obj
 0001:00013d20       ?getBinaryMetaData@BV4Tree@Gu@physx@@SAXAEAVPxOutputStream@3@@Z 0000000180014d20 f   GuMetaData.obj
 0001:000140b0       ?getBinaryMetaData@BV4TriangleMesh@Gu@physx@@SAXAEAVPxOutputStream@3@@Z 00000001800150b0 f   GuMetaData.obj
 0001:00014390       ?getBinaryMetaData@BigConvexData@physx@@SAXAEAVPxOutputStream@2@@Z 0000000180015390 f   GuMetaData.obj
 0001:00014650       ?getBinaryMetaData@ConvexMesh@Gu@physx@@SAXAEAVPxOutputStream@3@@Z 0000000180015650 f   GuMetaData.obj
 0001:00014ce0       ?getBinaryMetaData@GeometryUnion@Gu@physx@@SAXAEAVPxOutputStream@3@@Z 0000000180015ce0 f   GuMetaData.obj
 0001:00015330       ?getBinaryMetaData@HeightField@Gu@physx@@SAXAEAVPxOutputStream@3@@Z 0000000180016330 f   GuMetaData.obj
 0001:00015760       ?getBinaryMetaData@MaterialIndicesStruct@physx@@SAXAEAVPxOutputStream@2@@Z 0000000180016760 f   GuMetaData.obj
 0001:00015900       ?getBinaryMetaData@RTree@Gu@physx@@SAXAEAVPxOutputStream@3@@Z 0000000180016900 f   GuMetaData.obj
 0001:00015c30       ?getBinaryMetaData@RTreeTriangleMesh@Gu@physx@@SAXAEAVPxOutputStream@3@@Z 0000000180016c30 f   GuMetaData.obj
 0001:000164d0       ?getBinaryMetaData@TriangleMesh@Gu@physx@@SAXAEAVPxOutputStream@3@@Z 00000001800174d0 f   GuMetaData.obj
 0001:00017940       ?doSupport@?$SupportLocalImpl@VConvexHullV@Gu@physx@@@Gu@physx@@UEBA?AT__m128@@AEBT4@@Z 0000000180018940 f i GuMTD.obj
 0001:00017a20       ?doSupport@?$SupportLocalImpl@VConvexHullV@Gu@physx@@@Gu@physx@@UEBAXAEBT__m128@@AEAT4@1@Z 0000000180018a20 f i GuMTD.obj
 0001:00017d80       ?populateVerts@?$SupportLocalImpl@VConvexHullV@Gu@physx@@@Gu@physx@@UEBAXPEBEIPEBVPxVec3@3@PEAT__m128@@@Z 0000000180018d80 f i GuMTD.obj
 0001:00017de0       ??_G?$SupportLocalImpl@VTriangleV@Gu@physx@@@Gu@physx@@UEAAPEAXI@Z 0000000180018de0 f i GuPCMContactConvexCommon.obj
 0001:00017de0       ??_G?$SupportLocalImpl@VConvexHullNoScaleV@Gu@physx@@@Gu@physx@@UEAAPEAXI@Z 0000000180018de0 f i GuMTD.obj
 0001:00017de0       ??_E?$SupportLocalImpl@VConvexHullV@Gu@physx@@@Gu@physx@@UEAAPEAXI@Z 0000000180018de0 f i GuMTD.obj
 0001:00017de0       ??_G?$SupportLocalImpl@VBoxV@Gu@physx@@@Gu@physx@@UEAAPEAXI@Z 0000000180018de0 f i GuMTD.obj
 0001:00017de0       ??_G?$SupportLocalImpl@VConvexHullV@Gu@physx@@@Gu@physx@@UEAAPEAXI@Z 0000000180018de0 f i GuMTD.obj
 0001:00017de0       ??_E?$SupportLocalImpl@VConvexHullNoScaleV@Gu@physx@@@Gu@physx@@UEAAPEAXI@Z 0000000180018de0 f i GuMTD.obj
 0001:00017de0       ??_E?$SupportLocalImpl@VTriangleV@Gu@physx@@@Gu@physx@@UEAAPEAXI@Z 0000000180018de0 f i GuPCMContactConvexCommon.obj
 0001:00017de0       ??_E?$SupportLocalImpl@VBoxV@Gu@physx@@@Gu@physx@@UEAAPEAXI@Z 0000000180018de0 f i GuMTD.obj
 0001:00017e10       ?doSupport@?$SupportLocalImpl@VConvexHullNoScaleV@Gu@physx@@@Gu@physx@@UEBA?AT__m128@@AEBT4@@Z 0000000180018e10 f i GuMTD.obj
 0001:00017e60       ?doSupport@?$SupportLocalImpl@VConvexHullNoScaleV@Gu@physx@@@Gu@physx@@UEBAXAEBT__m128@@AEAT4@1@Z 0000000180018e60 f i GuMTD.obj
 0001:00017fe0       ?populateVerts@?$SupportLocalImpl@VBoxV@Gu@physx@@@Gu@physx@@UEBAXPEBEIPEBVPxVec3@3@PEAT__m128@@@Z 0000000180018fe0 f i GuMTD.obj
 0001:00017fe0       ?populateVerts@?$SupportLocalImpl@VConvexHullNoScaleV@Gu@physx@@@Gu@physx@@UEBAXPEBEIPEBVPxVec3@3@PEAT__m128@@@Z 0000000180018fe0 f i GuMTD.obj
 0001:00018020       ?doSupport@?$SupportLocalImpl@VBoxV@Gu@physx@@@Gu@physx@@UEBA?AT__m128@@AEBT4@@Z 0000000180019020 f i GuMTD.obj
 0001:00018050       ?doSupport@?$SupportLocalImpl@VBoxV@Gu@physx@@@Gu@physx@@UEBAXAEBT__m128@@AEAT4@1@Z 0000000180019050 f i GuMTD.obj
 0001:000180a0       ??_GSupportLocal@Gu@physx@@UEAAPEAXI@Z 00000001800190a0 f i GuMTD.obj
 0001:000180a0       ??_ESupportLocal@Gu@physx@@UEAAPEAXI@Z 00000001800190a0 f i GuMTD.obj
 0001:00019e10       ??$gjk@U?$LocalConvex@VCapsuleV@Gu@physx@@@Gu@physx@@U?$LocalConvex@VConvexHullV@Gu@physx@@@23@@Gu@physx@@YA?AW4GjkStatus@01@AEBU?$LocalConvex@VCapsuleV@Gu@physx@@@01@AEBU?$LocalConvex@VConvexHullV@Gu@physx@@@01@AEBT__m128@@2AEAT5@333@Z 000000018001ae10 f i GuMTD.obj
 0001:0001aa70       ??0MultiplePersistentContactManifold@Gu@physx@@QEAA@XZ 000000018001ba70 f i GuMTD.obj
 0001:0001aac0       ??0PolygonalBox@Gu@physx@@QEAA@AEBV012@@Z 000000018001bac0 f i GuMTD.obj
 0001:0001ad40       ??0SeparatingAxes@Gu@physx@@QEAA@AEBV012@@Z 000000018001bd40 f i GuMTD.obj
 0001:0001ad40       ??0SeparatingAxes@Gu@physx@@QEAA@$$QEAV012@@Z 000000018001bd40 f i GuMTD.obj
 0001:0001ae50       ??0SeparatingAxes@Gu@physx@@QEAA@XZ 000000018001be50 f i GuMTD.obj
 0001:0001ae60       ??4MultiplePersistentContactManifold@Gu@physx@@QEAAAEAV012@$$QEAV012@@Z 000000018001be60 f i GuMTD.obj
 0001:0001b170       ??4MultiplePersistentContactManifold@Gu@physx@@QEAAAEAV012@AEBV012@@Z 000000018001c170 f i GuMTD.obj
 0001:0001b190       ??4SeparatingAxes@Gu@physx@@QEAAAEAV012@AEBV012@@Z 000000018001c190 f i GuMTD.obj
 0001:0001b190       ??4SeparatingAxes@Gu@physx@@QEAAAEAV012@$$QEAV012@@Z 000000018001c190 f i GuMTD.obj
 0001:0001b2a0       ??_G?$LocalConvex@VConvexHullV@Gu@physx@@@Gu@physx@@UEAAPEAXI@Z 000000018001c2a0 f i GuMTD.obj
 0001:0001b2a0       ??_EGjkConvexBase@Gu@physx@@UEAAPEAXI@Z 000000018001c2a0 f i GuMTD.obj
 0001:0001b2a0       ??_E?$LocalConvex@VConvexHullV@Gu@physx@@@Gu@physx@@UEAAPEAXI@Z 000000018001c2a0 f i GuMTD.obj
 0001:0001b2a0       ??_E?$LocalConvex@VConvexHullNoScaleV@Gu@physx@@@Gu@physx@@UEAAPEAXI@Z 000000018001c2a0 f i GuPCMContactBoxConvex.obj
 0001:0001b2a0       ??_G?$LocalConvex@VBoxV@Gu@physx@@@Gu@physx@@UEAAPEAXI@Z 000000018001c2a0 f i GuSweepTests.obj
 0001:0001b2a0       ??_G?$LocalConvex@VConvexHullNoScaleV@Gu@physx@@@Gu@physx@@UEAAPEAXI@Z 000000018001c2a0 f i GuPCMContactBoxConvex.obj
 0001:0001b2a0       ??_G?$LocalConvex@VTriangleV@Gu@physx@@@Gu@physx@@UEAAPEAXI@Z 000000018001c2a0 f i GuSweepTests.obj
 0001:0001b2a0       ??_E?$LocalConvex@VTriangleV@Gu@physx@@@Gu@physx@@UEAAPEAXI@Z 000000018001c2a0 f i GuSweepTests.obj
 0001:0001b2a0       ??_E?$LocalConvex@VCapsuleV@Gu@physx@@@Gu@physx@@UEAAPEAXI@Z 000000018001c2a0 f i GuMTD.obj
 0001:0001b2a0       ??_GGjkConvexBase@Gu@physx@@UEAAPEAXI@Z 000000018001c2a0 f i GuMTD.obj
 0001:0001b2a0       ??_E?$LocalConvex@VBoxV@Gu@physx@@@Gu@physx@@UEAAPEAXI@Z 000000018001c2a0 f i GuSweepTests.obj
 0001:0001b2a0       ??_G?$LocalConvex@VCapsuleV@Gu@physx@@@Gu@physx@@UEAAPEAXI@Z 000000018001c2a0 f i GuMTD.obj
 0001:0001ba30       ?clearManifold@MultiplePersistentContactManifold@Gu@physx@@QEAAXXZ 000000018001ca30 f i GuMTD.obj
 0001:0001f5f0       ?getAxes@SeparatingAxes@Gu@physx@@QEBAPEBVPxVec3@3@XZ 00000001800205f0 f i GuMTD.obj
 0001:0001f600       ?getCenter@?$LocalConvex@VCapsuleV@Gu@physx@@@Gu@physx@@UEBA?AT__m128@@XZ 0000000180020600 f i GuMTD.obj
 0001:0001f600       ?getCenter@?$LocalConvex@VConvexHullNoScaleV@Gu@physx@@@Gu@physx@@UEBA?AT__m128@@XZ 0000000180020600 f i GuPCMContactBoxConvex.obj
 0001:0001f600       ?getCenter@?$LocalConvex@VBoxV@Gu@physx@@@Gu@physx@@UEBA?AT__m128@@XZ 0000000180020600 f i GuSweepTests.obj
 0001:0001f600       ?getCenter@?$LocalConvex@VConvexHullV@Gu@physx@@@Gu@physx@@UEBA?AT__m128@@XZ 0000000180020600 f i GuMTD.obj
 0001:0001f600       ?getCenter@?$LocalConvex@VTriangleV@Gu@physx@@@Gu@physx@@UEBA?AT__m128@@XZ 0000000180020600 f i GuSweepTests.obj
 0001:0001f610       ?getEmptyManifold@MultiplePersistentContactManifold@Gu@physx@@QEAAPEAVSinglePersistentContactManifold@23@XZ 0000000180020610 f i GuMTD.obj
 0001:0001f630       ?getManifold@MultiplePersistentContactManifold@Gu@physx@@QEAAPEAVSinglePersistentContactManifold@23@I@Z 0000000180020630 f i GuMTD.obj
 0001:0001f650       ?getSweepMargin@?$RelativeConvex@VCapsuleV@Gu@physx@@@Gu@physx@@UEBA?AT__m128@@XZ 0000000180020650 f i GuCCDSweepPrimitives.obj
 0001:0001f650       ?getSweepMargin@?$LocalConvex@VCapsuleV@Gu@physx@@@Gu@physx@@UEBA?AT__m128@@XZ 0000000180020650 f i GuMTD.obj
 0001:0001f660       ?getSweepMargin@?$RelativeConvex@VConvexHullV@Gu@physx@@@Gu@physx@@UEBA?AT__m128@@XZ 0000000180020660 f i GuOverlapTests.obj
 0001:0001f660       ?getSweepMargin@?$RelativeConvex@VConvexHullNoScaleV@Gu@physx@@@Gu@physx@@UEBA?AT__m128@@XZ 0000000180020660 f i GuPCMContactConvexConvex.obj
 0001:0001f660       ?getSweepMargin@?$RelativeConvex@VBoxV@Gu@physx@@@Gu@physx@@UEBA?AT__m128@@XZ 0000000180020660 f i GuOverlapTests.obj
 0001:0001f660       ?getSweepMargin@?$LocalConvex@VConvexHullNoScaleV@Gu@physx@@@Gu@physx@@UEBA?AT__m128@@XZ 0000000180020660 f i GuPCMContactBoxConvex.obj
 0001:0001f660       ?getSweepMargin@?$LocalConvex@VBoxV@Gu@physx@@@Gu@physx@@UEBA?AT__m128@@XZ 0000000180020660 f i GuSweepTests.obj
 0001:0001f660       ?getSweepMargin@?$LocalConvex@VConvexHullV@Gu@physx@@@Gu@physx@@UEBA?AT__m128@@XZ 0000000180020660 f i GuMTD.obj
 0001:0001f680       ?hillClimbing@ConvexHullV@Gu@physx@@QEBAIAEBT__m128@@@Z 0000000180020680 f i GuMTD.obj
 0001:0001f8b0       ?initialize@MultiplePersistentContactManifold@Gu@physx@@QEAAXXZ 00000001800208b0 f i GuMTD.obj
 0001:0001f910       ?invalidate@MultiplePersistentContactManifold@Gu@physx@@QEAAIAEBVPsTransformV@aos@shdfnd@3@AEBT__m128@@1@Z 0000000180020910 f i GuMTD.obj
 0001:0001f990       ?invalidate@MultiplePersistentContactManifold@Gu@physx@@QEAAIAEBVPsTransformV@aos@shdfnd@3@AEBT__m128@@@Z 0000000180020990 f i GuMTD.obj
 0001:0001fa10       ?maxTransformPositionDelta@MultiplePersistentContactManifold@Gu@physx@@QEAA?AT__m128@@AEBT4@@Z 0000000180020a10 f i GuMTD.obj
 0001:0001fa50       ?maxTransformQuatDelta@MultiplePersistentContactManifold@Gu@physx@@QEAA?AT__m128@@AEBT4@@Z 0000000180020a50 f i GuMTD.obj
 0001:0001fa90       ?pointConvexDistance@@YA_NAEAVPxVec3@physx@@0AEAMAEBV12@PEBVConvexMesh@Gu@2@AEBVPxMeshScale@2@AEBVPxTransform@2@@Z 0000000180020a90 f   GuMTD.obj
 0001:00020880       ?reduceManifoldContactsInDifferentPatches@MultiplePersistentContactManifold@Gu@physx@@QEAAIPEAPEAUPCMContactPatch@23@IPEAVMeshPersistentContact@23@IAEBT__m128@@@Z 0000000180021880 f i GuMTD.obj
 0001:000209e0       ?refineContactPatchConnective@MultiplePersistentContactManifold@Gu@physx@@QEAAXPEAPEAUPCMContactPatch@23@IPEAVMeshPersistentContact@23@AEBT__m128@@@Z 00000001800219e0 f i GuMTD.obj
 0001:00020ad0       ?refreshManifold@MultiplePersistentContactManifold@Gu@physx@@QEAAXAEBVPsMatTransformV@aos@shdfnd@3@AEBT__m128@@1@Z 0000000180021ad0 f i GuMTD.obj
 0001:00020bd0       ?reset@SeparatingAxes@Gu@physx@@QEAAXXZ 0000000180021bd0 f i GuMTD.obj
 0001:00020be0       ?setRelativeTransform@MultiplePersistentContactManifold@Gu@physx@@QEAAXAEBVPsTransformV@aos@shdfnd@3@@Z 0000000180021be0 f i GuMTD.obj
 0001:00020bf0       ?support@?$LocalConvex@VCapsuleV@Gu@physx@@@Gu@physx@@UEBA?AT__m128@@AEBT4@@Z 0000000180021bf0 f i GuMTD.obj
 0001:00020c50       ?support@?$LocalConvex@VCapsuleV@Gu@physx@@@Gu@physx@@UEBA?AT__m128@@AEBT4@AEAH@Z 0000000180021c50 f i GuMTD.obj
 0001:00020cc0       ?support@?$LocalConvex@VConvexHullV@Gu@physx@@@Gu@physx@@UEBA?AT__m128@@AEBT4@@Z 0000000180021cc0 f i GuMTD.obj
 0001:00020da0       ?support@?$LocalConvex@VConvexHullV@Gu@physx@@@Gu@physx@@UEBA?AT__m128@@AEBT4@AEAH@Z 0000000180021da0 f i GuMTD.obj
 0001:00020e70       ?supportPoint@?$LocalConvex@VCapsuleV@Gu@physx@@@Gu@physx@@UEBA?AT__m128@@H@Z 0000000180021e70 f i GuMTD.obj
 0001:00020ea0       ?supportPoint@?$LocalConvex@VConvexHullV@Gu@physx@@@Gu@physx@@UEBA?AT__m128@@H@Z 0000000180021ea0 f i GuMTD.obj
 0001:00020ef0       ?supportVertexIndex@ConvexHullV@Gu@physx@@QEBAIAEBT__m128@@@Z 0000000180021ef0 f i GuMTD.obj
 0001:00021170       ?toBuffer@MultiplePersistentContactManifold@Gu@physx@@QEAAXPEIAE@Z 0000000180022170 f i GuMTD.obj
 0001:00021250       ?supportPoint@?$RelativeConvex@VBoxV@Gu@physx@@@Gu@physx@@UEBA?AT__m128@@H@Z 0000000180022250 f i GuOverlapTests.obj
 0001:000212c0       ?support@?$RelativeConvex@VBoxV@Gu@physx@@@Gu@physx@@UEBA?AT__m128@@AEBT4@@Z 00000001800222c0 f i GuOverlapTests.obj
 0001:00021340       ?support@?$RelativeConvex@VBoxV@Gu@physx@@@Gu@physx@@UEBA?AT__m128@@AEBT4@AEAH@Z 0000000180022340 f i GuOverlapTests.obj
 0001:000213d0       ?getCenter@?$RelativeConvex@VConvexHullV@Gu@physx@@@Gu@physx@@UEBA?AT__m128@@XZ 00000001800223d0 f i GuOverlapTests.obj
 0001:000213d0       ?getCenter@?$RelativeConvex@VConvexHullNoScaleV@Gu@physx@@@Gu@physx@@UEBA?AT__m128@@XZ 00000001800223d0 f i GuPCMContactConvexConvex.obj
 0001:000213d0       ?getCenter@?$RelativeConvex@VTriangleV@Gu@physx@@@Gu@physx@@UEBA?AT__m128@@XZ 00000001800223d0 f i GuCCDSweepPrimitives.obj
 0001:000213d0       ?getCenter@?$RelativeConvex@VBoxV@Gu@physx@@@Gu@physx@@UEBA?AT__m128@@XZ 00000001800223d0 f i GuOverlapTests.obj
 0001:000213d0       ?getCenter@?$RelativeConvex@VCapsuleV@Gu@physx@@@Gu@physx@@UEBA?AT__m128@@XZ 00000001800223d0 f i GuCCDSweepPrimitives.obj
 0001:00021410       ??_G?$RelativeConvex@VTriangleV@Gu@physx@@@Gu@physx@@UEAAPEAXI@Z 0000000180022410 f i GuCCDSweepPrimitives.obj
 0001:00021410       ??_E?$RelativeConvex@VBoxV@Gu@physx@@@Gu@physx@@UEAAPEAXI@Z 0000000180022410 f i GuOverlapTests.obj
 0001:00021410       ??_E?$RelativeConvex@VCapsuleV@Gu@physx@@@Gu@physx@@UEAAPEAXI@Z 0000000180022410 f i GuCCDSweepPrimitives.obj
 0001:00021410       ??_E?$RelativeConvex@VTriangleV@Gu@physx@@@Gu@physx@@UEAAPEAXI@Z 0000000180022410 f i GuCCDSweepPrimitives.obj
 0001:00021410       ??_G?$RelativeConvex@VConvexHullNoScaleV@Gu@physx@@@Gu@physx@@UEAAPEAXI@Z 0000000180022410 f i GuPCMContactConvexConvex.obj
 0001:00021410       ??_E?$RelativeConvex@VConvexHullV@Gu@physx@@@Gu@physx@@UEAAPEAXI@Z 0000000180022410 f i GuOverlapTests.obj
 0001:00021410       ??_G?$RelativeConvex@VConvexHullV@Gu@physx@@@Gu@physx@@UEAAPEAXI@Z 0000000180022410 f i GuOverlapTests.obj
 0001:00021410       ??_G?$RelativeConvex@VCapsuleV@Gu@physx@@@Gu@physx@@UEAAPEAXI@Z 0000000180022410 f i GuCCDSweepPrimitives.obj
 0001:00021410       ??_E?$RelativeConvex@VConvexHullNoScaleV@Gu@physx@@@Gu@physx@@UEAAPEAXI@Z 0000000180022410 f i GuPCMContactConvexConvex.obj
 0001:00021410       ??_G?$RelativeConvex@VBoxV@Gu@physx@@@Gu@physx@@UEAAPEAXI@Z 0000000180022410 f i GuOverlapTests.obj
 0001:000235d0       ?supportPoint@?$RelativeConvex@VConvexHullV@Gu@physx@@@Gu@physx@@UEBA?AT__m128@@H@Z 00000001800245d0 f i GuOverlapTests.obj
 0001:00023650       ?support@?$RelativeConvex@VConvexHullV@Gu@physx@@@Gu@physx@@UEBA?AT__m128@@AEBT4@@Z 0000000180024650 f i GuOverlapTests.obj
 0001:00023780       ?support@?$RelativeConvex@VConvexHullV@Gu@physx@@@Gu@physx@@UEBA?AT__m128@@AEBT4@AEAH@Z 0000000180024780 f i GuOverlapTests.obj
 0001:000238f0       ??$gjk@U?$RelativeConvex@VBoxV@Gu@physx@@@Gu@physx@@U?$LocalConvex@VConvexHullV@Gu@physx@@@23@@Gu@physx@@YA?AW4GjkStatus@01@AEBU?$RelativeConvex@VBoxV@Gu@physx@@@01@AEBU?$LocalConvex@VConvexHullV@Gu@physx@@@01@AEBT__m128@@2AEAT5@333@Z 00000001800248f0 f i GuOverlapTests.obj
 0001:00024580       ??$gjk@U?$RelativeConvex@VConvexHullV@Gu@physx@@@Gu@physx@@U?$LocalConvex@VConvexHullV@Gu@physx@@@23@@Gu@physx@@YA?AW4GjkStatus@01@AEBU?$RelativeConvex@VConvexHullV@Gu@physx@@@01@AEBU?$LocalConvex@VConvexHullV@Gu@physx@@@01@AEBT__m128@@2AEAT5@333@Z 0000000180025580 f i GuOverlapTests.obj
 0001:00025280       ?ComputeCubemapNearestOffset@physx@@YAIAEBVPxVec3@1@I@Z 0000000180026280 f i GuOverlapTests.obj
 0001:00025380       ?getOverlapFuncTable@Gu@physx@@YAPEAY06Q6A_NAEBVPxGeometry@2@AEBVPxTransform@2@01PEAUTriggerCache@12@@ZXZ 0000000180026380 f   GuOverlapTests.obj
 0001:00026e00       ?registerHeightFields@Gu@physx@@YAXXZ 0000000180027e00 f   GuOverlapTests.obj
 0001:00026e50       ?raycast_box@@YAIAEBVPxGeometry@physx@@AEBVPxTransform@2@AEBVPxVec3@2@2MV?$PxFlags@W4Enum@PxHitFlag@physx@@G@2@IPEIAUPxRaycastHit@2@@Z 0000000180027e50 f   GuRaycastTests.obj
 0001:00027480       ?raycast_sphere@@YAIAEBVPxGeometry@physx@@AEBVPxTransform@2@AEBVPxVec3@2@2MV?$PxFlags@W4Enum@PxHitFlag@physx@@G@2@IPEIAUPxRaycastHit@2@@Z 0000000180028480 f   GuRaycastTests.obj
 0001:00027610       ?raycast_capsule@@YAIAEBVPxGeometry@physx@@AEBVPxTransform@2@AEBVPxVec3@2@2MV?$PxFlags@W4Enum@PxHitFlag@physx@@G@2@IPEIAUPxRaycastHit@2@@Z 0000000180028610 f   GuRaycastTests.obj
 0001:00027b70       ?raycast_plane@@YAIAEBVPxGeometry@physx@@AEBVPxTransform@2@AEBVPxVec3@2@2MV?$PxFlags@W4Enum@PxHitFlag@physx@@G@2@IPEIAUPxRaycastHit@2@@Z 0000000180028b70 f   GuRaycastTests.obj
 0001:00027ce0       ?raycast_convexMesh@@YAIAEBVPxGeometry@physx@@AEBVPxTransform@2@AEBVPxVec3@2@2MV?$PxFlags@W4Enum@PxHitFlag@physx@@G@2@IPEIAUPxRaycastHit@2@@Z 0000000180028ce0 f   GuRaycastTests.obj
 0001:00028810       ?raycast_triangleMesh@@YAIAEBVPxGeometry@physx@@AEBVPxTransform@2@AEBVPxVec3@2@2MV?$PxFlags@W4Enum@PxHitFlag@physx@@G@2@IPEIAUPxRaycastHit@2@@Z 0000000180029810 f   GuRaycastTests.obj
 0001:00029b30       ??Dphysx@@YA?AVMatrix34@Cm@0@AEBVPxMeshScale@0@AEBVPxTransform@0@@Z 000000018002ab30 f i GuRaycastTests.obj
 0001:0002a770       ?getRaycastFuncTable@Gu@physx@@YAAEAY06Q6AIAEBVPxGeometry@2@AEBVPxTransform@2@AEBVPxVec3@2@2MV?$PxFlags@W4Enum@PxHitFlag@physx@@G@2@IPEIAUPxRaycastHit@2@@ZXZ 000000018002b770 f   GuRaycastTests.obj
 0001:0002a780       ?raycast_heightField@@YAIAEBVPxGeometry@physx@@AEBVPxTransform@2@AEBVPxVec3@2@2MV?$PxFlags@W4Enum@PxHitFlag@physx@@G@2@IPEIAUPxRaycastHit@2@@Z 000000018002b780 f   GuRaycastTests.obj
 0001:0002aec0       ?registerHeightFields_Raycasts@@YAXXZ 000000018002bec0 f   GuRaycastTests.obj
 0001:0002aed0       ?ReadHeader@Gu@physx@@YA_NEEEEAEAIAEA_NAEAVPxInputStream@2@@Z 000000018002bed0 f   GuSerialize.obj
 0001:0002b030       ?ReadIndices@Gu@physx@@YAXGIPEAGAEAVPxInputStream@2@_N@Z 000000018002c030 f   GuSerialize.obj
 0001:0002b180       ?StoreIndices@Gu@physx@@YAXGIPEBGAEAVPxOutputStream@2@_N@Z 000000018002c180 f   GuSerialize.obj
 0001:0002b240       ?StoreIndices@Gu@physx@@YAXIIPEBIAEAVPxOutputStream@2@_N@Z 000000018002c240 f   GuSerialize.obj
 0001:0002b360       ?WriteHeader@Gu@physx@@YA_NEEEEI_NAEAVPxOutputStream@2@@Z 000000018002c360 f   GuSerialize.obj
 0001:0002b490       ?computeMaxIndex@physx@@YAGPEBGI@Z 000000018002c490 f   GuSerialize.obj
 0001:0002b4c0       ?computeMaxIndex@physx@@YAIPEBII@Z 000000018002c4c0 f   GuSerialize.obj
 0001:0002b4f0       ?readChunk@physx@@YAXAEAC000AEAVPxInputStream@1@@Z 000000018002c4f0 f   GuSerialize.obj
 0001:0002b570       ?readDword@physx@@YAI_NAEAVPxInputStream@1@@Z 000000018002c570 f   GuSerialize.obj
 0001:0002b5d0       ?readFloat@physx@@YAM_NAEAVPxInputStream@1@@Z 000000018002c5d0 f   GuSerialize.obj
 0001:0002b630       ?readFloatBuffer@physx@@YA_NPEAMI_NAEAVPxInputStream@1@@Z 000000018002c630 f   GuSerialize.obj
 0001:0002b6b0       ?readHeader@physx@@YA_NCCCCAEAIAEA_NAEAVPxInputStream@1@@Z 000000018002c6b0 f   GuSerialize.obj
 0001:0002b800       ?readIndices@physx@@YAXIIPEAIAEAVPxInputStream@1@_N@Z 000000018002c800 f   GuSerialize.obj
 0001:0002b8f0       ?readWord@physx@@YAG_NAEAVPxInputStream@1@@Z 000000018002c8f0 f   GuSerialize.obj
 0001:0002b930       ?readWordBuffer@physx@@YAXPEAGI_NAEAVPxInputStream@1@@Z 000000018002c930 f   GuSerialize.obj
 0001:0002b9a0       ?storeIndices@physx@@YAXIIPEBIAEAVPxOutputStream@1@_N@Z 000000018002c9a0 f   GuSerialize.obj
 0001:0002ba90       ?writeDword@physx@@YAXI_NAEAVPxOutputStream@1@@Z 000000018002ca90 f   GuSerialize.obj
 0001:0002bae0       ?writeFloat@physx@@YAXM_NAEAVPxOutputStream@1@@Z 000000018002cae0 f   GuSerialize.obj
 0001:0002bb30       ?writeFloatBuffer@physx@@YAXPEBMI_NAEAVPxOutputStream@1@@Z 000000018002cb30 f   GuSerialize.obj
 0001:0002bbd0       ?writeHeader@physx@@YA_NCCCCI_NAEAVPxOutputStream@1@@Z 000000018002cbd0 f   GuSerialize.obj
 0001:0002bd00       ?writeWord@physx@@YAXG_NAEAVPxOutputStream@1@@Z 000000018002cd00 f   GuSerialize.obj
 0001:0002bd40       ?writeWordBuffer@physx@@YAXPEBGI_NAEAVPxOutputStream@1@@Z 000000018002cd40 f   GuSerialize.obj
 0001:0002bdc0       ??Dphysx@@YA?AVMatrix34@Cm@0@AEBVPxTransform@0@AEBVPxMeshScale@0@@Z 000000018002cdc0 f i GuSweepMTD.obj
 0001:0002c410       ??_E?$MeshHitCallback@UPxRaycastHit@physx@@@Gu@physx@@UEAAPEAXI@Z 000000018002d410 f i GuSweepMTD.obj
 0001:0002c410       ??_G?$MeshHitCallback@UPxRaycastHit@physx@@@Gu@physx@@UEAAPEAXI@Z 000000018002d410 f i GuSweepMTD.obj
 0001:0002c440       ??_GMeshMTDGenerationCallback@@UEAAPEAXI@Z 000000018002d440 f i GuSweepMTD.obj
 0001:0002c440       ??_EMeshMTDGenerationCallback@@UEAAPEAXI@Z 000000018002d440 f i GuSweepMTD.obj
 0001:0002c470       ??_GMidPhaseQueryLocalReport@@UEAAPEAXI@Z 000000018002d470 f i GuSweepMTD.obj
 0001:0002c470       ??_EMidPhaseQueryLocalReport@@UEAAPEAXI@Z 000000018002d470 f i GuSweepMTD.obj
 0001:0002c4a0       ?allocate@?$ReflectionAllocator@I@shdfnd@physx@@QEAAPEAX_KPEBDH@Z 000000018002d4a0 f i GuSweepMTD.obj
 0001:0002c540       ?computeBox_HeightFieldMTD@Gu@physx@@YA_NAEBVPxHeightFieldGeometry@2@AEBVPxTransform@2@AEBVBox@12@1M_NIAEAUPxSweepHit@2@@Z 000000018002d540 f   GuSweepMTD.obj
 0001:0002d390       ?computeBox_TriangleMeshMTD@Gu@physx@@YA_NAEBVPxTriangleMeshGeometry@2@AEBVPxTransform@2@AEBVBox@12@1M_NAEAUPxSweepHit@2@@Z 000000018002e390 f   GuSweepMTD.obj
 0001:0002e000       ?computeCapsule_CapsuleMTD@Gu@physx@@YA_NAEBVCapsule@12@0AEAUPxSweepHit@2@@Z 000000018002f000 f   GuSweepMTD.obj
 0001:0002e240       ?computeCapsule_HeightFieldMTD@Gu@physx@@YA_NAEBVPxHeightFieldGeometry@2@AEBVPxTransform@2@AEAVCapsuleV@12@M_NIAEAUPxSweepHit@2@@Z 000000018002f240 f   GuSweepMTD.obj
 0001:0002ea60       ?computeCapsule_TriangleMeshMTD@Gu@physx@@YA_NAEBVPxTriangleMeshGeometry@2@AEBVPxTransform@2@AEAVCapsuleV@12@M_NAEAUPxSweepHit@2@@Z 000000018002fa60 f   GuSweepMTD.obj
 0001:0002f300       ?computeConvex_HeightFieldMTD@Gu@physx@@YA_NAEBVPxHeightFieldGeometry@2@AEBVPxTransform@2@AEBVPxConvexMeshGeometry@2@1M_NIAEAUPxSweepHit@2@@Z 0000000180030300 f   GuSweepMTD.obj
 0001:00030660       ?computeConvex_TriangleMeshMTD@Gu@physx@@YA_NAEBVPxTriangleMeshGeometry@2@AEBVPxTransform@2@AEBVPxConvexMeshGeometry@2@1M_NAEAUPxSweepHit@2@@Z 0000000180031660 f   GuSweepMTD.obj
 0001:00031890       ?computePlane_BoxMTD@Gu@physx@@YA_NAEBVPxPlane@2@AEBVBox@12@AEAUPxSweepHit@2@@Z 0000000180032890 f   GuSweepMTD.obj
 0001:00031bc0       ?computePlane_CapsuleMTD@Gu@physx@@YA_NAEBVPxPlane@2@AEBVCapsule@12@AEAUPxSweepHit@2@@Z 0000000180032bc0 f   GuSweepMTD.obj
 0001:00031ce0       ?computePlane_ConvexMTD@Gu@physx@@YA_NAEBVPxPlane@2@AEBVPxConvexMeshGeometry@2@AEBVPxTransform@2@AEAUPxSweepHit@2@@Z 0000000180032ce0 f   GuSweepMTD.obj
 0001:00032850       ?computeSphere_CapsuleMTD@Gu@physx@@YA_NAEBVSphere@12@AEBVCapsule@12@AEAUPxSweepHit@2@@Z 0000000180033850 f   GuSweepMTD.obj
 0001:00032a00       ?computeSphere_SphereMTD@Gu@physx@@YA_NAEBVSphere@12@0AEAUPxSweepHit@2@@Z 0000000180033a00 f   GuSweepMTD.obj
 0001:00032af0       ?getInverse@PxMat33@physx@@QEBA?BV12@XZ 0000000180033af0 f i GuSweepMTD.obj
 0001:00032d40       ?growAndPushBack@?$Array@IV?$ReflectionAllocator@I@shdfnd@physx@@@shdfnd@physx@@IEAAAEAIAEBI@Z 0000000180033d40 f i GuSweepMTD.obj
 0001:00032e10       ?init@FastVertex2ShapeScaling@Cm@physx@@QEAAXAEBVPxVec3@3@AEBVPxQuat@3@@Z 0000000180033e10 f i GuSweepMTD.obj
 0001:000331f0       ?onEvent@MidPhaseQueryLocalReport@@UEAA_NIPEAI@Z 00000001800341f0 f i GuSweepMTD.obj
 0001:00033260       ?processHit@MeshMTDGenerationCallback@@UEAA_NAEBUPxRaycastHit@physx@@AEBVPxVec3@3@11AEAMPEBI@Z 0000000180034260 f i GuSweepMTD.obj
 0001:000332b0       ?recreate@?$Array@IV?$ReflectionAllocator@I@shdfnd@physx@@@shdfnd@physx@@IEAAXI@Z 00000001800342b0 f i GuSweepMTD.obj
 0001:00033370       ??$gjkPenetration@U?$LocalConvex@VCapsuleV@Gu@physx@@@Gu@physx@@U?$LocalConvex@VConvexHullV@Gu@physx@@@23@@Gu@physx@@YA?AW4GjkStatus@01@AEBU?$LocalConvex@VCapsuleV@Gu@physx@@@01@AEBU?$LocalConvex@VConvexHullV@Gu@physx@@@01@AEBT__m128@@2_NPEIAE4AEAEAEAUGjkOutput@01@@Z 0000000180034370 f i GuSweepSharedTests.obj
 0001:00034970       ??$gjkPenetration@U?$RelativeConvex@VBoxV@Gu@physx@@@Gu@physx@@U?$LocalConvex@VConvexHullV@Gu@physx@@@23@@Gu@physx@@YA?AW4GjkStatus@01@AEBU?$RelativeConvex@VBoxV@Gu@physx@@@01@AEBU?$LocalConvex@VConvexHullV@Gu@physx@@@01@AEBT__m128@@2_NPEIAE4AEAEAEAUGjkOutput@01@@Z 0000000180035970 f i GuSweepSharedTests.obj
 0001:00035fb0       ??$gjkPenetration@U?$RelativeConvex@VConvexHullV@Gu@physx@@@Gu@physx@@U?$LocalConvex@VConvexHullV@Gu@physx@@@23@@Gu@physx@@YA?AW4GjkStatus@01@AEBU?$RelativeConvex@VConvexHullV@Gu@physx@@@01@AEBU?$LocalConvex@VConvexHullV@Gu@physx@@@01@AEBT__m128@@2_NPEIAE4AEAEAEAUGjkOutput@01@@Z 0000000180036fb0 f i GuSweepSharedTests.obj
 0001:00037660       ??$gjkRaycast@U?$LocalConvex@VCapsuleV@Gu@physx@@@Gu@physx@@U?$LocalConvex@VConvexHullV@Gu@physx@@@23@@Gu@physx@@YA_NAEBU?$LocalConvex@VCapsuleV@Gu@physx@@@01@AEBU?$LocalConvex@VConvexHullV@Gu@physx@@@01@AEBT__m128@@222AEAT4@33M@Z 0000000180038660 f i GuSweepSharedTests.obj
 0001:000383b0       ??$gjkRaycast@U?$RelativeConvex@VBoxV@Gu@physx@@@Gu@physx@@U?$LocalConvex@VConvexHullV@Gu@physx@@@23@@Gu@physx@@YA_NAEBU?$RelativeConvex@VBoxV@Gu@physx@@@01@AEBU?$LocalConvex@VConvexHullV@Gu@physx@@@01@AEBT__m128@@222AEAT4@33M@Z 00000001800393b0 f i GuSweepSharedTests.obj
 0001:00039180       ??$gjkRaycast@U?$RelativeConvex@VConvexHullV@Gu@physx@@@Gu@physx@@U?$LocalConvex@VConvexHullV@Gu@physx@@@23@@Gu@physx@@YA_NAEBU?$RelativeConvex@VConvexHullV@Gu@physx@@@01@AEBU?$LocalConvex@VConvexHullV@Gu@physx@@@01@AEBT__m128@@222AEAT4@33M@Z 000000018003a180 f i GuSweepSharedTests.obj
 0001:0003a080       ??$gjkRaycastPenetration@U?$RelativeConvex@VConvexHullV@Gu@physx@@@Gu@physx@@U?$LocalConvex@VConvexHullV@Gu@physx@@@23@@Gu@physx@@YA_NAEBU?$RelativeConvex@VConvexHullV@Gu@physx@@@01@AEBU?$LocalConvex@VConvexHullV@Gu@physx@@@01@AEBT__m128@@222AEAT4@33M_N@Z 000000018003b080 f i GuSweepSharedTests.obj
 0001:0003acb0       ?sweepBox_ConvexGeom@@YA_NAEBVPxGeometry@physx@@AEBVPxTransform@2@AEBVPxBoxGeometry@2@1AEBVBox@Gu@2@AEBVPxVec3@2@MAEAUPxSweepHit@2@V?$PxFlags@W4Enum@PxHitFlag@physx@@G@2@M@Z 000000018003bcb0 f   GuSweepSharedTests.obj
 0001:0003bb00       ?sweepBox_PlaneGeom@@YA_NAEBVPxGeometry@physx@@AEBVPxTransform@2@AEBVPxBoxGeometry@2@1AEBVBox@Gu@2@AEBVPxVec3@2@MAEAUPxSweepHit@2@V?$PxFlags@W4Enum@PxHitFlag@physx@@G@2@M@Z 000000018003cb00 f   GuSweepSharedTests.obj
 0001:0003bfa0       ?sweepCapsuleTriangles@Gu@physx@@YA_NIPEBVPxTriangle@2@_NAEBVPxCapsuleGeometry@2@AEBVPxTransform@2@AEBVPxVec3@2@MAEAUPxSweepHit@2@PEBIMV?$PxFlags@W4Enum@PxHitFlag@physx@@G@2@@Z 000000018003cfa0 f   GuSweepSharedTests.obj
 0001:0003c190       ?sweepCapsule_CapsuleGeom@@YA_NAEBVPxGeometry@physx@@AEBVPxTransform@2@AEBVPxCapsuleGeometry@2@1AEBVCapsule@Gu@2@AEBVPxVec3@2@MAEAUPxSweepHit@2@V?$PxFlags@W4Enum@PxHitFlag@physx@@G@2@M@Z 000000018003d190 f   GuSweepSharedTests.obj
 0001:0003c370       ?sweepCapsule_ConvexGeom@@YA_NAEBVPxGeometry@physx@@AEBVPxTransform@2@AEBVPxCapsuleGeometry@2@1AEBVCapsule@Gu@2@AEBVPxVec3@2@MAEAUPxSweepHit@2@V?$PxFlags@W4Enum@PxHitFlag@physx@@G@2@M@Z 000000018003d370 f   GuSweepSharedTests.obj
 0001:0003d0e0       ?sweepCapsule_PlaneGeom@@YA_NAEBVPxGeometry@physx@@AEBVPxTransform@2@AEBVPxCapsuleGeometry@2@1AEBVCapsule@Gu@2@AEBVPxVec3@2@MAEAUPxSweepHit@2@V?$PxFlags@W4Enum@PxHitFlag@physx@@G@2@M@Z 000000018003e0e0 f   GuSweepSharedTests.obj
 0001:0003d3d0       ?sweepCapsule_SphereGeom@@YA_NAEBVPxGeometry@physx@@AEBVPxTransform@2@AEBVPxCapsuleGeometry@2@1AEBVCapsule@Gu@2@AEBVPxVec3@2@MAEAUPxSweepHit@2@V?$PxFlags@W4Enum@PxHitFlag@physx@@G@2@M@Z 000000018003e3d0 f   GuSweepSharedTests.obj
 0001:0003d560       ?sweepConvex_BoxGeom@@YA_NAEBVPxGeometry@physx@@AEBVPxTransform@2@AEBVPxConvexMeshGeometry@2@1AEBVPxVec3@2@MAEAUPxSweepHit@2@V?$PxFlags@W4Enum@PxHitFlag@physx@@G@2@M@Z 000000018003e560 f   GuSweepSharedTests.obj
 0001:0003d760       ?sweepConvex_CapsuleGeom@@YA_NAEBVPxGeometry@physx@@AEBVPxTransform@2@AEBVPxConvexMeshGeometry@2@1AEBVPxVec3@2@MAEAUPxSweepHit@2@V?$PxFlags@W4Enum@PxHitFlag@physx@@G@2@M@Z 000000018003e760 f   GuSweepSharedTests.obj
 0001:0003d980       ?sweepConvex_ConvexGeom@@YA_NAEBVPxGeometry@physx@@AEBVPxTransform@2@AEBVPxConvexMeshGeometry@2@1AEBVPxVec3@2@MAEAUPxSweepHit@2@V?$PxFlags@W4Enum@PxHitFlag@physx@@G@2@M@Z 000000018003e980 f   GuSweepSharedTests.obj
 0001:0003e910       ?sweepConvex_PlaneGeom@@YA_NAEBVPxGeometry@physx@@AEBVPxTransform@2@AEBVPxConvexMeshGeometry@2@1AEBVPxVec3@2@MAEAUPxSweepHit@2@V?$PxFlags@W4Enum@PxHitFlag@physx@@G@2@M@Z 000000018003f910 f   GuSweepSharedTests.obj
 0001:0003ed60       ?sweepConvex_SphereGeom@@YA_NAEBVPxGeometry@physx@@AEBVPxTransform@2@AEBVPxConvexMeshGeometry@2@1AEBVPxVec3@2@MAEAUPxSweepHit@2@V?$PxFlags@W4Enum@PxHitFlag@physx@@G@2@M@Z 000000018003fd60 f   GuSweepSharedTests.obj
 0001:0003f9c0       ?sweepCapsule_BoxGeom@@YA_NAEBVPxGeometry@physx@@AEBVPxTransform@2@AEBVPxCapsuleGeometry@2@1AEBVCapsule@Gu@2@AEBVPxVec3@2@MAEAUPxSweepHit@2@V?$PxFlags@W4Enum@PxHitFlag@physx@@G@2@M@Z 00000001800409c0 f   GuSweepTests.obj
 0001:00040250       ?sweepBox_SphereGeom@@YA_NAEBVPxGeometry@physx@@AEBVPxTransform@2@AEBVPxBoxGeometry@2@1AEBVBox@Gu@2@AEBVPxVec3@2@MAEAUPxSweepHit@2@V?$PxFlags@W4Enum@PxHitFlag@physx@@G@2@M@Z 0000000180041250 f   GuSweepTests.obj
 0001:00040920       ?sweepBox_CapsuleGeom@@YA_NAEBVPxGeometry@physx@@AEBVPxTransform@2@AEBVPxBoxGeometry@2@1AEBVBox@Gu@2@AEBVPxVec3@2@MAEAUPxSweepHit@2@V?$PxFlags@W4Enum@PxHitFlag@physx@@G@2@M@Z 0000000180041920 f   GuSweepTests.obj
 0001:000411c0       ?sweepBox_BoxGeom@@YA_NAEBVPxGeometry@physx@@AEBVPxTransform@2@AEBVPxBoxGeometry@2@1AEBVBox@Gu@2@AEBVPxVec3@2@MAEAUPxSweepHit@2@V?$PxFlags@W4Enum@PxHitFlag@physx@@G@2@M@Z 00000001800421c0 f   GuSweepTests.obj
 0001:00041b60       ??$gjkPenetration@U?$LocalConvex@VCapsuleV@Gu@physx@@@Gu@physx@@U?$LocalConvex@VBoxV@Gu@physx@@@23@@Gu@physx@@YA?AW4GjkStatus@01@AEBU?$LocalConvex@VCapsuleV@Gu@physx@@@01@AEBU?$LocalConvex@VBoxV@Gu@physx@@@01@AEBT__m128@@2_NPEIAE4AEAEAEAUGjkOutput@01@@Z 0000000180042b60 f i GuSweepTests.obj
 0001:000430a0       ??$gjkPenetration@U?$RelativeConvex@VBoxV@Gu@physx@@@Gu@physx@@U?$LocalConvex@VBoxV@Gu@physx@@@23@@Gu@physx@@YA?AW4GjkStatus@01@AEBU?$RelativeConvex@VBoxV@Gu@physx@@@01@AEBU?$LocalConvex@VBoxV@Gu@physx@@@01@AEBT__m128@@2_NPEIAE4AEAEAEAUGjkOutput@01@@Z 00000001800440a0 f i GuSweepTests.obj
 0001:00044630       ??$gjkRaycast@U?$LocalConvex@VCapsuleV@Gu@physx@@@Gu@physx@@U?$LocalConvex@VBoxV@Gu@physx@@@23@@Gu@physx@@YA_NAEBU?$LocalConvex@VCapsuleV@Gu@physx@@@01@AEBU?$LocalConvex@VBoxV@Gu@physx@@@01@AEBT__m128@@222AEAT4@33M@Z 0000000180045630 f i GuSweepTests.obj
 0001:00045210       ??$gjkRaycast@U?$LocalConvex@VTriangleV@Gu@physx@@@Gu@physx@@U?$LocalConvex@VBoxV@Gu@physx@@@23@@Gu@physx@@YA_NAEBU?$LocalConvex@VTriangleV@Gu@physx@@@01@AEBU?$LocalConvex@VBoxV@Gu@physx@@@01@AEBT__m128@@222AEAT4@33M@Z 0000000180046210 f i GuSweepTests.obj
 0001:00045e70       ??$gjkRaycast@U?$RelativeConvex@VBoxV@Gu@physx@@@Gu@physx@@U?$LocalConvex@VBoxV@Gu@physx@@@23@@Gu@physx@@YA_NAEBU?$RelativeConvex@VBoxV@Gu@physx@@@01@AEBU?$LocalConvex@VBoxV@Gu@physx@@@01@AEBT__m128@@222AEAT4@33M@Z 0000000180046e70 f i GuSweepTests.obj
 0001:00046ac0       ?getSweepFuncTable@Gu@physx@@YAAEBUGeomSweepFuncs@12@XZ 0000000180047ac0 f   GuSweepTests.obj
 0001:00046ad0       ?getSweepMargin@?$LocalConvex@VTriangleV@Gu@physx@@@Gu@physx@@UEBA?AT__m128@@XZ 0000000180047ad0 f i GuSweepTests.obj
 0001:00046ad0       ?getSweepMargin@?$RelativeConvex@VTriangleV@Gu@physx@@@Gu@physx@@UEBA?AT__m128@@XZ 0000000180047ad0 f i GuCCDSweepPrimitives.obj
 0001:00046ae0       ?registerHeightFields_Sweeps@@YAXXZ 0000000180047ae0 f   GuSweepTests.obj
 0001:00046b20       ?support@?$LocalConvex@VBoxV@Gu@physx@@@Gu@physx@@UEBA?AT__m128@@AEBT4@@Z 0000000180047b20 f i GuSweepTests.obj
 0001:00046b50       ?support@?$LocalConvex@VBoxV@Gu@physx@@@Gu@physx@@UEBA?AT__m128@@AEBT4@AEAH@Z 0000000180047b50 f i GuSweepTests.obj
 0001:00046b90       ?support@?$LocalConvex@VTriangleV@Gu@physx@@@Gu@physx@@UEBA?AT__m128@@AEBT4@@Z 0000000180047b90 f i GuSweepTests.obj
 0001:00046c20       ?support@?$LocalConvex@VTriangleV@Gu@physx@@@Gu@physx@@UEBA?AT__m128@@AEBT4@AEAH@Z 0000000180047c20 f i GuSweepTests.obj
 0001:00046d00       ?supportPoint@?$LocalConvex@VBoxV@Gu@physx@@@Gu@physx@@UEBA?AT__m128@@H@Z 0000000180047d00 f i GuSweepTests.obj
 0001:00046d40       ?supportPoint@?$LocalConvex@VTriangleV@Gu@physx@@@Gu@physx@@UEBA?AT__m128@@H@Z 0000000180047d40 f i GuSweepTests.obj
 0001:00046d60       ?sweepBoxTriangles@Gu@physx@@YA_NIPEBVPxTriangle@2@_NAEBVPxBoxGeometry@2@AEBVPxTransform@2@AEBVPxVec3@2@MAEAUPxSweepHit@2@PEBIMV?$PxFlags@W4Enum@PxHitFlag@physx@@G@2@@Z 0000000180047d60 f   GuSweepTests.obj
 0001:000477f0       ??$?_UV?$ReflectionAllocator@VAABBTreeBuildNode@Gu@physx@@@shdfnd@physx@@@UserAllocated@shdfnd@physx@@SAPEAX_KV?$ReflectionAllocator@VAABBTreeBuildNode@Gu@physx@@@12@PEBDH@Z 00000001800487f0 f i GuAABBTreeBuild.obj
 0001:00047890       ??$copy@V?$ReflectionAllocator@USlab@NodeAllocator@Gu@physx@@@shdfnd@physx@@@?$Array@USlab@NodeAllocator@Gu@physx@@V?$ReflectionAllocator@USlab@NodeAllocator@Gu@physx@@@shdfnd@4@@shdfnd@physx@@IEAAXAEBV012@@Z 0000000180048890 f i GuAABBTreeBuild.obj
 0001:00047910       ??4AABBTreeBuildNode@Gu@physx@@QEAAAEAV012@AEBV012@@Z 0000000180048910 f i GuAABBTreeBuild.obj
 0001:00047910       ??0AABBTreeBuildNode@Gu@physx@@QEAA@AEBV012@@Z 0000000180048910 f i GuAABBTreeBuild.obj
 0001:00047950       ??0AABBTreeBuildParams@Gu@physx@@QEAA@IIPEBVPxBounds3@2@@Z 0000000180048950 f i GuAABBTreeBuild.obj
 0001:00047970       ??0BuildStats@Gu@physx@@QEAA@XZ 0000000180048970 f i GuAABBTreeBuild.obj
 0001:00047980       ??0NodeAllocator@Gu@physx@@QEAA@AEBV012@@Z 0000000180048980 f i GuAABBTreeBuild.obj
 0001:000479c0       ??0NodeAllocator@Gu@physx@@QEAA@XZ 00000001800489c0 f   GuAABBTreeBuild.obj
 0001:000479e0       ??1AABBTreeBuildParams@Gu@physx@@QEAA@XZ 00000001800489e0 f i GuAABBTreeBuild.obj
 0001:000479e0       ?reset@AABBTreeBuildParams@Gu@physx@@QEAAXXZ 00000001800489e0 f i GuAABBTreeBuild.obj
 0001:00047a40       ??1NodeAllocator@Gu@physx@@QEAA@XZ 0000000180048a40 f   GuAABBTreeBuild.obj
 0001:00047a90       ??4AABBTreeBuildParams@Gu@physx@@QEAAAEAV012@AEBV012@@Z 0000000180048a90 f i GuAABBTreeBuild.obj
 0001:00047ab0       ??4BuildStats@Gu@physx@@QEAAAEAU012@$$QEAU012@@Z 0000000180048ab0 f i GuAABBTreeBuild.obj
 0001:00047ac0       ??4BuildStats@Gu@physx@@QEAAAEAU012@AEBU012@@Z 0000000180048ac0 f i GuAABBTreeBuild.obj
 0001:00047ad0       ??4NodeAllocator@Gu@physx@@QEAAAEAV012@AEBV012@@Z 0000000180048ad0 f i GuAABBTreeBuild.obj
 0001:00047b80       ??_FAABBTreeBuildParams@Gu@physx@@QEAAXXZ 0000000180048b80 f i GuAABBTreeBuild.obj
 0001:00047ba0       ?_buildHierarchy@AABBTreeBuildNode@Gu@physx@@QEAAXAEAVAABBTreeBuildParams@23@AEAUBuildStats@23@AEAVNodeAllocator@23@QEAI@Z 0000000180048ba0 f   GuAABBTreeBuild.obj
 0001:00047c30       ?allocate@?$Array@USlab@NodeAllocator@Gu@physx@@V?$ReflectionAllocator@USlab@NodeAllocator@Gu@physx@@@shdfnd@4@@shdfnd@physx@@IEAAPEAUSlab@NodeAllocator@Gu@3@I@Z 0000000180048c30 f i GuAABBTreeBuild.obj
 0001:00047cd0       ?buildAABBTree@Gu@physx@@YA_NAEAVAABBTreeBuildParams@12@AEAVNodeAllocator@12@AEAUBuildStats@12@AEAPEAI@Z 0000000180048cd0 f   GuAABBTreeBuild.obj
 0001:00047d30       ?getBiNode@NodeAllocator@Gu@physx@@QEAAPEAVAABBTreeBuildNode@23@XZ 0000000180048d30 f   GuAABBTreeBuild.obj
 0001:00047e60       ?getNbRuntimePrimitives@AABBTreeBuildNode@Gu@physx@@QEBAIXZ 0000000180048e60 f i GuAABBTreeBuild.obj
 0001:00047e60       ?getNbPrimitives@AABBTreeBuildNode@Gu@physx@@QEBAIXZ 0000000180048e60 f i GuAABBTreeBuild.obj
 0001:00047e60       ?getNbTriangles@TriangleMesh@Gu@physx@@UEBAIXZ 0000000180048e60 f i GuTriangleMesh.obj
 0001:00047e70       ?getNeg@AABBTreeBuildNode@Gu@physx@@QEBAPEBV123@XZ 0000000180048e70 f i GuAABBTreeBuild.obj
 0001:00047e90       ?getPrimitives@AABBTreeBuildNode@Gu@physx@@QEBAPEBIPEBI@Z 0000000180048e90 f i GuAABBTreeBuild.obj
 0001:00047e90       ?getPrimitives@AABBTreeBuildNode@Gu@physx@@QEAAPEAIPEAI@Z 0000000180048e90 f i GuAABBTreeBuild.obj
 0001:00047ea0       ?growAndPushBack@?$Array@USlab@NodeAllocator@Gu@physx@@V?$ReflectionAllocator@USlab@NodeAllocator@Gu@physx@@@shdfnd@4@@shdfnd@physx@@IEAAAEAUSlab@NodeAllocator@Gu@3@AEBU4563@@Z 0000000180048ea0 f i GuAABBTreeBuild.obj
 0001:00047f60       ?increaseCount@BuildStats@Gu@physx@@QEAAXI@Z 0000000180048f60 f i GuAABBTreeBuild.obj
 0001:00047f70       ?init@NodeAllocator@Gu@physx@@QEAAXII@Z 0000000180048f70 f   GuAABBTreeBuild.obj
 0001:00048080       ?initAABBTreeBuild@Gu@physx@@YA_NAEAVAABBTreeBuildParams@12@AEAVNodeAllocator@12@AEAUBuildStats@12@AEAPEAI@Z 0000000180049080 f   GuAABBTreeBuild.obj
 0001:00048290       ?isLeaf@AABBTreeBuildNode@Gu@physx@@QEBA_NXZ 0000000180049290 f i GuAABBTreeBuild.obj
 0001:000482a0       ?recreate@?$Array@USlab@NodeAllocator@Gu@physx@@V?$ReflectionAllocator@USlab@NodeAllocator@Gu@physx@@@shdfnd@4@@shdfnd@physx@@IEAAXI@Z 00000001800492a0 f i GuAABBTreeBuild.obj
 0001:00048350       ?release@NodeAllocator@Gu@physx@@QEAAXXZ 0000000180049350 f   GuAABBTreeBuild.obj
 0001:00048400       ?reset@BuildStats@Gu@physx@@QEAAXXZ 0000000180049400 f i GuAABBTreeBuild.obj
 0001:00048410       ?resize@?$Array@USlab@NodeAllocator@Gu@physx@@V?$ReflectionAllocator@USlab@NodeAllocator@Gu@physx@@@shdfnd@4@@shdfnd@physx@@QEAAXIAEBUSlab@NodeAllocator@Gu@3@@Z 0000000180049410 f i GuAABBTreeBuild.obj
 0001:00048490       ?setCount@BuildStats@Gu@physx@@QEAAXI@Z 0000000180049490 f i GuAABBTreeBuild.obj
 0001:000484a0       ?setNbRunTimePrimitives@AABBTreeBuildNode@Gu@physx@@QEAAXI@Z 00000001800494a0 f i GuAABBTreeBuild.obj
 0001:00048610       ?subdivide@AABBTreeBuildNode@Gu@physx@@QEAAXAEBVAABBTreeBuildParams@23@AEAUBuildStats@23@AEAVNodeAllocator@23@QEAI@Z 0000000180049610 f   GuAABBTreeBuild.obj
 0001:000487f0       ??0BVHStructure@Gu@physx@@QEAA@PEAVGuMeshFactory@2@@Z 00000001800497f0 f   GuBVHStructure.obj
 0001:00048850       ??0BVHStructure@Gu@physx@@QEAA@PEAVGuMeshFactory@2@AEAUBVHStructureData@12@@Z 0000000180049850 f   GuBVHStructure.obj
 0001:000488c0       ??R?$AABBTreeOverlap@UAABBAABBTest@Gu@physx@@UBVHTree@23@UBVHNode@23@IUBVHCallback@23@@Gu@physx@@QEAA_NPEBIPEBVPxBounds3@2@AEBUBVHTree@12@AEBUAABBAABBTest@12@AEAUBVHCallback@12@@Z 00000001800498c0 f i GuBVHStructure.obj
 0001:00048b40       ??R?$AABBTreeRaycast@$00UBVHTree@Gu@physx@@UBVHNode@23@IUBVHCallback@23@@Gu@physx@@QEAA_NPEBIPEBVPxBounds3@2@AEBUBVHTree@12@AEBVPxVec3@2@3AEAM3AEAUBVHCallback@12@@Z 0000000180049b40 f i GuBVHStructure.obj
 0001:000491d0       ??R?$AABBTreeRaycast@$0A@UBVHTree@Gu@physx@@UBVHNode@23@IUBVHCallback@23@@Gu@physx@@QEAA_NPEBIPEBVPxBounds3@2@AEBUBVHTree@12@AEBVPxVec3@2@3AEAM3AEAUBVHCallback@12@@Z 000000018004a1d0 f i GuBVHStructure.obj
 0001:00049818       ??_EBVHStructure@Gu@physx@@WBA@EAAPEAXI@Z 000000018004a818 f i GuBVHStructure.obj
 0001:00049830       ??_GBVHStructure@Gu@physx@@UEAAPEAXI@Z 000000018004a830 f i GuBVHStructure.obj
 0001:00049830       ??_EBVHStructure@Gu@physx@@UEAAPEAXI@Z 000000018004a830 f i GuBVHStructure.obj
 0001:00049890       ??_ERefCountable@Cm@physx@@UEAAPEAXI@Z 000000018004a890 f i GuBVHStructure.obj
 0001:00049890       ??_GRefCountable@Cm@physx@@UEAAPEAXI@Z 000000018004a890 f i GuBVHStructure.obj
 0001:000498c0       ?allocate@?$Array@PEBUBVHNode@Gu@physx@@V?$InlineAllocator@$0IAA@V?$ReflectionAllocator@PEBUBVHNode@Gu@physx@@@shdfnd@physx@@@shdfnd@3@@shdfnd@physx@@IEAAPEAPEBUBVHNode@Gu@3@I@Z 000000018004a8c0 f i GuBVHStructure.obj
 0001:00049980       ?createVolumes@BVHStructure@Gu@physx@@AEBAXXZ 000000018004a980 f   GuBVHStructure.obj
 0001:00049a10       ?getBounds@BVHStructure@Gu@physx@@UEBAPEBVPxBounds3@3@XZ 000000018004aa10 f i GuBVHStructure.obj
 0001:00049a10       ?getTriangles@TriangleMesh@Gu@physx@@UEBAPEBXXZ 000000018004aa10 f i GuTriangleMesh.obj
 0001:00049a20       ?getConcreteTypeName@PxBVHStructure@physx@@UEBAPEBDXZ 000000018004aa20 f i GuBVHStructure.obj
 0001:00049a30       ?getNbBounds@BVHStructure@Gu@physx@@UEBAIXZ 000000018004aa30 f i GuBVHStructure.obj
 0001:00049a40       ?isKindOf@PxBVHStructure@physx@@MEBA_NPEBD@Z 000000018004aa40 f i GuBVHStructure.obj
 0001:00049a90       ?load@BVHStructure@Gu@physx@@QEAA_NAEAVPxInputStream@3@@Z 000000018004aa90 f   GuBVHStructure.obj
 0001:00049c60       ?onRefCountZero@BVHStructure@Gu@physx@@UEAAXXZ 000000018004ac60 f   GuBVHStructure.obj
 0001:00049d90       ?onRefCountZero@RefCountable@Cm@physx@@UEAAXXZ 000000018004ad90 f i GuBVHStructure.obj
 0001:00049db0       ?overlap@BVHStructure@Gu@physx@@UEBAIAEBVPxBounds3@3@IPEIAI@Z 000000018004adb0 f   GuBVHStructure.obj
 0001:00049ef0       ?raycast@BVHStructure@Gu@physx@@UEBAIAEBVPxVec3@3@0MIPEIAI@Z 000000018004aef0 f   GuBVHStructure.obj
 0001:00049fc0       ?recreate@?$Array@PEBUBVHNode@Gu@physx@@V?$InlineAllocator@$0IAA@V?$ReflectionAllocator@PEBUBVHNode@Gu@physx@@@shdfnd@physx@@@shdfnd@3@@shdfnd@physx@@IEAAXI@Z 000000018004afc0 f i GuBVHStructure.obj
 0001:0004a070       ?release@TriangleMesh@Gu@physx@@UEAAXXZ 000000018004b070 f   GuTriangleMesh.obj
 0001:0004a070       ?release@ConvexMesh@Gu@physx@@UEAAXXZ 000000018004b070 f   GuConvexMesh.obj
 0001:0004a070       ?release@BVHStructure@Gu@physx@@UEAAXXZ 000000018004b070 f   GuBVHStructure.obj
 0001:0004a070       ?release@HeightField@Gu@physx@@UEAAXXZ 000000018004b070 f   GuHeightField.obj
 0001:0004a0a0       ?resizeUninitialized@?$Array@PEBUBVHNode@Gu@physx@@V?$InlineAllocator@$0IAA@V?$ReflectionAllocator@PEBUBVHNode@Gu@physx@@@shdfnd@physx@@@shdfnd@3@@shdfnd@physx@@QEAAXI@Z 000000018004b0a0 f i GuBVHStructure.obj
 0001:0004a0f0       ?sweep@BVHStructure@Gu@physx@@UEBAIAEBVPxBounds3@3@AEBVPxVec3@3@MIPEIAI@Z 000000018004b0f0 f   GuBVHStructure.obj
 0001:0004a2e0       ?SweepAnyShapeHeightfield@Gu@physx@@YAMAEBUCCDShape@12@0AEBVPxTransform@2@111MAEAVPxVec3@2@2MAEAIM@Z 000000018004b2e0 f   GuCCDSweepConvexMesh.obj
 0001:0004b400       ?SweepAnyShapeMesh@Gu@physx@@YAMAEBUCCDShape@12@0AEBVPxTransform@2@111MAEAVPxVec3@2@2MAEAIM@Z 000000018004c400 f   GuCCDSweepConvexMesh.obj
 0001:0004cad0       ?SweepEstimateAnyShapeHeightfield@Gu@physx@@YAMAEBUCCDShape@12@0AEBVPxTransform@2@111MM@Z 000000018004dad0 f   GuCCDSweepConvexMesh.obj
 0001:0004d330       ?SweepEstimateAnyShapeMesh@Gu@physx@@YAMAEBUCCDShape@12@0AEBVPxTransform@2@111MM@Z 000000018004e330 f   GuCCDSweepConvexMesh.obj
 0001:0004e180       ?growAndPushBack@?$Array@IV?$InlineAllocator@$0BAA@V?$ReflectionAllocator@I@shdfnd@physx@@@shdfnd@physx@@@shdfnd@physx@@IEAAAEAIAEBI@Z 000000018004f180 f i GuCCDSweepConvexMesh.obj
 0001:0004e8b0       ?recreate@?$Array@IV?$InlineAllocator@$0BAA@V?$ReflectionAllocator@I@shdfnd@physx@@@shdfnd@physx@@@shdfnd@physx@@IEAAXI@Z 000000018004f8b0 f i GuCCDSweepConvexMesh.obj
 0001:0004e990       ?resize@?$Array@IV?$InlineAllocator@$0BAA@V?$ReflectionAllocator@I@shdfnd@physx@@@shdfnd@physx@@@shdfnd@physx@@QEAAXIAEBI@Z 000000018004f990 f i GuCCDSweepConvexMesh.obj
 0001:0004ea60       ?resize@?$Array@IV?$ReflectionAllocator@I@shdfnd@physx@@@shdfnd@physx@@QEAAXIAEBI@Z 000000018004fa60 f i GuCCDSweepConvexMesh.obj
 0001:0004eb20       ?transformBoxOrthonormal@physx@@YA?AVBox@Gu@1@AEBV231@AEBVPxTransform@1@@Z 000000018004fb20 f i GuCCDSweepConvexMesh.obj
 0001:0004efb0       ?UnimplementedSweep@Gu@physx@@YAMAEBUCCDShape@12@0AEBVPxTransform@2@111MAEAVPxVec3@2@2MAEAIM@Z 000000018004ffb0 f   GuCCDSweepPrimitives.obj
 0001:0004efc0       ??$SweepGeomGeom@VCapsuleV@Gu@physx@@V123@@Gu@physx@@YAMAEBUCCDShape@01@0AEBVPxTransform@1@111MAEAVPxVec3@1@2MAEAIM@Z 000000018004ffc0 f i GuCCDSweepPrimitives.obj
 0001:0004f110       ??$SweepGeomGeom@VCapsuleV@Gu@physx@@VBoxV@23@@Gu@physx@@YAMAEBUCCDShape@01@0AEBVPxTransform@1@111MAEAVPxVec3@1@2MAEAIM@Z 0000000180050110 f i GuCCDSweepPrimitives.obj
 0001:0004f280       ??$SweepGeomGeom@VCapsuleV@Gu@physx@@VConvexHullV@23@@Gu@physx@@YAMAEBUCCDShape@01@0AEBVPxTransform@1@111MAEAVPxVec3@1@2MAEAIM@Z 0000000180050280 f i GuCCDSweepPrimitives.obj
 0001:0004f800       ??$SweepGeomGeom@VBoxV@Gu@physx@@V123@@Gu@physx@@YAMAEBUCCDShape@01@0AEBVPxTransform@1@111MAEAVPxVec3@1@2MAEAIM@Z 0000000180050800 f i GuCCDSweepPrimitives.obj
 0001:0004f990       ??$SweepGeomGeom@VBoxV@Gu@physx@@VConvexHullV@23@@Gu@physx@@YAMAEBUCCDShape@01@0AEBVPxTransform@1@111MAEAVPxVec3@1@2MAEAIM@Z 0000000180050990 f i GuCCDSweepPrimitives.obj
 0001:0004ff20       ??$SweepGeomGeom@VConvexHullV@Gu@physx@@V123@@Gu@physx@@YAMAEBUCCDShape@01@0AEBVPxTransform@1@111MAEAVPxVec3@1@2MAEAIM@Z 0000000180050f20 f i GuCCDSweepPrimitives.obj
 0001:00050820       ?UnimplementedTriangleSweep@Gu@physx@@YAMAEBVGeometryUnion@12@0AEBVPxTransform@2@111MAEAVPxVec3@2@2AEBVFastVertex2ShapeScaling@Cm@2@AEAVTriangleV@12@M@Z 0000000180051820 f   GuCCDSweepPrimitives.obj
 0001:00050830       ??$SweepGeomTriangles@VCapsuleV@Gu@physx@@@Gu@physx@@YAMAEBVGeometryUnion@01@0AEBVPxTransform@1@111MAEAVPxVec3@1@2AEBVFastVertex2ShapeScaling@Cm@1@AEAVTriangleV@01@M@Z 0000000180051830 f i GuCCDSweepPrimitives.obj
 0001:00050900       ??$SweepGeomTriangles@VBoxV@Gu@physx@@@Gu@physx@@YAMAEBVGeometryUnion@01@0AEBVPxTransform@1@111MAEAVPxVec3@1@2AEBVFastVertex2ShapeScaling@Cm@1@AEAVTriangleV@01@M@Z 0000000180051900 f i GuCCDSweepPrimitives.obj
 0001:00050a00       ??$SweepGeomTriangles@VConvexHullV@Gu@physx@@@Gu@physx@@YAMAEBVGeometryUnion@01@0AEBVPxTransform@1@111MAEAVPxVec3@1@2AEBVFastVertex2ShapeScaling@Cm@1@AEAVTriangleV@01@M@Z 0000000180051a00 f i GuCCDSweepPrimitives.obj
 0001:00050f20       ?supportPoint@?$RelativeConvex@VCapsuleV@Gu@physx@@@Gu@physx@@UEBA?AT__m128@@H@Z 0000000180051f20 f i GuCCDSweepPrimitives.obj
 0001:00050f80       ?support@?$RelativeConvex@VCapsuleV@Gu@physx@@@Gu@physx@@UEBA?AT__m128@@AEBT4@@Z 0000000180051f80 f i GuCCDSweepPrimitives.obj
 0001:00051030       ?support@?$RelativeConvex@VCapsuleV@Gu@physx@@@Gu@physx@@UEBA?AT__m128@@AEBT4@AEAH@Z 0000000180052030 f i GuCCDSweepPrimitives.obj
 0001:000510f0       ?supportPoint@?$RelativeConvex@VTriangleV@Gu@physx@@@Gu@physx@@UEBA?AT__m128@@H@Z 00000001800520f0 f i GuCCDSweepPrimitives.obj
 0001:00051140       ?support@?$RelativeConvex@VTriangleV@Gu@physx@@@Gu@physx@@UEBA?AT__m128@@AEBT4@@Z 0000000180052140 f i GuCCDSweepPrimitives.obj
 0001:00051240       ?support@?$RelativeConvex@VTriangleV@Gu@physx@@@Gu@physx@@UEBA?AT__m128@@AEBT4@AEAH@Z 0000000180052240 f i GuCCDSweepPrimitives.obj
 0001:00055160       ??$gjkPenetration@U?$RelativeConvex@VCapsuleV@Gu@physx@@@Gu@physx@@U?$LocalConvex@VBoxV@Gu@physx@@@23@@Gu@physx@@YA?AW4GjkStatus@01@AEBU?$RelativeConvex@VCapsuleV@Gu@physx@@@01@AEBU?$LocalConvex@VBoxV@Gu@physx@@@01@AEBT__m128@@2_NPEIAE4AEAEAEAUGjkOutput@01@@Z 0000000180056160 f i GuCCDSweepPrimitives.obj
 0001:00056710       ??$gjkPenetration@U?$RelativeConvex@VCapsuleV@Gu@physx@@@Gu@physx@@U?$LocalConvex@VCapsuleV@Gu@physx@@@23@@Gu@physx@@YA?AW4GjkStatus@01@AEBU?$RelativeConvex@VCapsuleV@Gu@physx@@@01@AEBU?$LocalConvex@VCapsuleV@Gu@physx@@@01@AEBT__m128@@2_NPEIAE4AEAEAEAUGjkOutput@01@@Z 0000000180057710 f i GuCCDSweepPrimitives.obj
 0001:00057cc0       ??$gjkPenetration@U?$RelativeConvex@VCapsuleV@Gu@physx@@@Gu@physx@@U?$LocalConvex@VConvexHullV@Gu@physx@@@23@@Gu@physx@@YA?AW4GjkStatus@01@AEBU?$RelativeConvex@VCapsuleV@Gu@physx@@@01@AEBU?$LocalConvex@VConvexHullV@Gu@physx@@@01@AEBT__m128@@2_NPEIAE4AEAEAEAUGjkOutput@01@@Z 0000000180058cc0 f i GuCCDSweepPrimitives.obj
 0001:00059320       ??$gjkPenetration@U?$RelativeConvex@VTriangleV@Gu@physx@@@Gu@physx@@U?$LocalConvex@VBoxV@Gu@physx@@@23@@Gu@physx@@YA?AW4GjkStatus@01@AEBU?$RelativeConvex@VTriangleV@Gu@physx@@@01@AEBU?$LocalConvex@VBoxV@Gu@physx@@@01@AEBT__m128@@2_NPEIAE4AEAEAEAUGjkOutput@01@@Z 000000018005a320 f i GuCCDSweepPrimitives.obj
 0001:0005a900       ??$gjkPenetration@U?$RelativeConvex@VTriangleV@Gu@physx@@@Gu@physx@@U?$LocalConvex@VCapsuleV@Gu@physx@@@23@@Gu@physx@@YA?AW4GjkStatus@01@AEBU?$RelativeConvex@VTriangleV@Gu@physx@@@01@AEBU?$LocalConvex@VCapsuleV@Gu@physx@@@01@AEBT__m128@@2_NPEIAE4AEAEAEAUGjkOutput@01@@Z 000000018005b900 f i GuCCDSweepPrimitives.obj
 0001:0005bf00       ??$gjkPenetration@U?$RelativeConvex@VTriangleV@Gu@physx@@@Gu@physx@@U?$LocalConvex@VConvexHullV@Gu@physx@@@23@@Gu@physx@@YA?AW4GjkStatus@01@AEBU?$RelativeConvex@VTriangleV@Gu@physx@@@01@AEBU?$LocalConvex@VConvexHullV@Gu@physx@@@01@AEBT__m128@@2_NPEIAE4AEAEAEAUGjkOutput@01@@Z 000000018005cf00 f i GuCCDSweepPrimitives.obj
 0001:0005d580       ??$gjkRaycast@U?$RelativeConvex@VCapsuleV@Gu@physx@@@Gu@physx@@U?$LocalConvex@VBoxV@Gu@physx@@@23@@Gu@physx@@YA_NAEBU?$RelativeConvex@VCapsuleV@Gu@physx@@@01@AEBU?$LocalConvex@VBoxV@Gu@physx@@@01@AEBT__m128@@222AEAT4@33M@Z 000000018005e580 f i GuCCDSweepPrimitives.obj
 0001:0005e1e0       ??$gjkRaycast@U?$RelativeConvex@VCapsuleV@Gu@physx@@@Gu@physx@@U?$LocalConvex@VCapsuleV@Gu@physx@@@23@@Gu@physx@@YA_NAEBU?$RelativeConvex@VCapsuleV@Gu@physx@@@01@AEBU?$LocalConvex@VCapsuleV@Gu@physx@@@01@AEBT__m128@@222AEAT4@33M@Z 000000018005f1e0 f i GuCCDSweepPrimitives.obj
 0001:0005eec0       ??$gjkRaycast@U?$RelativeConvex@VCapsuleV@Gu@physx@@@Gu@physx@@U?$LocalConvex@VConvexHullV@Gu@physx@@@23@@Gu@physx@@YA_NAEBU?$RelativeConvex@VCapsuleV@Gu@physx@@@01@AEBU?$LocalConvex@VConvexHullV@Gu@physx@@@01@AEBT__m128@@222AEAT4@33M@Z 000000018005fec0 f i GuCCDSweepPrimitives.obj
 0001:0005fd20       ??$gjkRaycast@U?$RelativeConvex@VTriangleV@Gu@physx@@@Gu@physx@@U?$LocalConvex@VBoxV@Gu@physx@@@23@@Gu@physx@@YA_NAEBU?$RelativeConvex@VTriangleV@Gu@physx@@@01@AEBU?$LocalConvex@VBoxV@Gu@physx@@@01@AEBT__m128@@222AEAT4@33M@Z 0000000180060d20 f i GuCCDSweepPrimitives.obj
 0001:00060a40       ??$gjkRaycast@U?$RelativeConvex@VTriangleV@Gu@physx@@@Gu@physx@@U?$LocalConvex@VCapsuleV@Gu@physx@@@23@@Gu@physx@@YA_NAEBU?$RelativeConvex@VTriangleV@Gu@physx@@@01@AEBU?$LocalConvex@VCapsuleV@Gu@physx@@@01@AEBT__m128@@222AEAT4@33M@Z 0000000180061a40 f i GuCCDSweepPrimitives.obj
 0001:000617b0       ??$gjkRaycast@U?$RelativeConvex@VTriangleV@Gu@physx@@@Gu@physx@@U?$LocalConvex@VConvexHullV@Gu@physx@@@23@@Gu@physx@@YA_NAEBU?$RelativeConvex@VTriangleV@Gu@physx@@@01@AEBU?$LocalConvex@VConvexHullV@Gu@physx@@@01@AEBT__m128@@222AEAT4@33M@Z 00000001800627b0 f i GuCCDSweepPrimitives.obj
 0001:000626a0       ?SweepShapeShape@Gu@physx@@YAMAEBUCCDShape@12@0AEBVPxTransform@2@111MAEAVPxVec3@2@2MAEAIM@Z 00000001800636a0 f   GuCCDSweepPrimitives.obj
 0001:000626c0       ?SweepShapeTriangle@Gu@physx@@YAMAEBVGeometryUnion@12@0AEBVPxTransform@2@111MAEAVPxVec3@2@2AEBVFastVertex2ShapeScaling@Cm@2@AEAVTriangleV@12@M@Z 00000001800636c0 f   GuCCDSweepPrimitives.obj
 0001:000626e0       ?barycentricCoordinates@Gu@physx@@YAXAEBT__m128@@000AEAT3@1@Z 00000001800636e0 f   GuBarycentricCoordinates.obj
 0001:00062830       ?barycentricCoordinates@Gu@physx@@YAXAEBT__m128@@00AEAT3@@Z 0000000180063830 f   GuBarycentricCoordinates.obj
 0001:000628a0       ?addAxis@SeparatingAxes@Gu@physx@@QEAA_NAEBVPxVec3@3@@Z 00000001800638a0 f   GuSeparatingAxes.obj
 0001:00062960       ?contactBoxBox@Gu@physx@@YA_NAEBVGeometryUnion@12@0AEBVPxTransform@2@1AEBUNarrowPhaseParams@12@AEAUCache@12@AEAVContactBuffer@12@PEAVRenderOutput@Cm@2@@Z 0000000180063960 f   GuContactBoxBox.obj
 0001:00066e40       ?contactCapsuleBox@Gu@physx@@YA_NAEBVGeometryUnion@12@0AEBVPxTransform@2@1AEBUNarrowPhaseParams@12@AEAUCache@12@AEAVContactBuffer@12@PEAVRenderOutput@Cm@2@@Z 0000000180067e40 f   GuContactCapsuleBox.obj
 0001:000673d0       ?contactCapsuleCapsule@Gu@physx@@YA_NAEBVGeometryUnion@12@0AEBVPxTransform@2@1AEBUNarrowPhaseParams@12@AEAUCache@12@AEAVContactBuffer@12@PEAVRenderOutput@Cm@2@@Z 00000001800683d0 f   GuContactCapsuleCapsule.obj
 0001:00069cf0       ?contactCapsuleConvex@Gu@physx@@YA_NAEBVGeometryUnion@12@0AEBVPxTransform@2@1AEBUNarrowPhaseParams@12@AEAUCache@12@AEAVContactBuffer@12@PEAVRenderOutput@Cm@2@@Z 000000018006acf0 f   GuContactCapsuleConvex.obj
 0001:0006c160       ?contactCapsuleHeightfield@Gu@physx@@YA_NAEBVGeometryUnion@12@0AEBVPxTransform@2@1AEBUNarrowPhaseParams@12@AEAUCache@12@AEAVContactBuffer@12@PEAVRenderOutput@Cm@2@@Z 000000018006d160 f   GuContactCapsuleMesh.obj
 0001:0006c790       ?contactCapsuleMesh@Gu@physx@@YA_NAEBVGeometryUnion@12@0AEBVPxTransform@2@1AEBUNarrowPhaseParams@12@AEAUCache@12@AEAVContactBuffer@12@PEAVRenderOutput@Cm@2@@Z 000000018006d790 f   GuContactCapsuleMesh.obj
 0001:0006d8a0       ?transformFast@PxBounds3@physx@@SA?AV12@AEBVPxTransform@2@AEBV12@@Z 000000018006e8a0 f i GuContactCapsuleMesh.obj
 0001:0006dc80       ?transformQueryBounds@FastVertex2ShapeScaling@Cm@physx@@QEBAXAEAVPxVec3@3@0AEAVPxMat33@3@@Z 000000018006ec80 f i GuContactCapsuleMesh.obj
 0001:00071fb0       ?contactBoxConvex@Gu@physx@@YA_NAEBVGeometryUnion@12@0AEBVPxTransform@2@1AEBUNarrowPhaseParams@12@AEAUCache@12@AEAVContactBuffer@12@PEAVRenderOutput@Cm@2@@Z 0000000180072fb0 f   GuContactConvexConvex.obj
 0001:00072140       ?contactConvexConvex@Gu@physx@@YA_NAEBVGeometryUnion@12@0AEBVPxTransform@2@1AEBUNarrowPhaseParams@12@AEAUCache@12@AEAVContactBuffer@12@PEAVRenderOutput@Cm@2@@Z 0000000180073140 f   GuContactConvexConvex.obj
 0001:00072590       ?transformPlaneToShapeSpace@FastVertex2ShapeScaling@Cm@physx@@QEBAXAEBVPxVec3@3@MAEAV43@AEAM@Z 0000000180073590 f i GuContactConvexConvex.obj
 0001:00072680       ??0?$CacheMap@UCachedEdge@Gu@physx@@$0IA@@Gu@physx@@QEAA@XZ 0000000180073680 f i GuContactConvexMesh.obj
 0001:00072740       ??0?$CacheMap@UCachedVertex@Gu@physx@@$0IA@@Gu@physx@@QEAA@XZ 0000000180073740 f i GuContactConvexMesh.obj
 0001:00072d10       ??_GConvexMeshContactGenerationCallback@@UEAAPEAXI@Z 0000000180073d10 f i GuContactConvexMesh.obj
 0001:00072d10       ??_EConvexMeshContactGenerationCallback@@UEAAPEAXI@Z 0000000180073d10 f i GuContactConvexMesh.obj
 0001:00072d70       ?addData@?$CacheMap@UCachedEdge@Gu@physx@@$0IA@@Gu@physx@@QEAA_NAEBUCachedEdge@23@@Z 0000000180073d70 f i GuContactConvexMesh.obj
 0001:00072e50       ?addData@?$CacheMap@UCachedVertex@Gu@physx@@$0IA@@Gu@physx@@QEAA_NAEBUCachedVertex@23@@Z 0000000180073e50 f i GuContactConvexMesh.obj
 0001:00073220       ?contactBoxHeightfield@Gu@physx@@YA_NAEBVGeometryUnion@12@0AEBVPxTransform@2@1AEBUNarrowPhaseParams@12@AEAUCache@12@AEAVContactBuffer@12@PEAVRenderOutput@Cm@2@@Z 0000000180074220 f   GuContactConvexMesh.obj
 0001:00073380       ?contactBoxMesh@Gu@physx@@YA_NAEBVGeometryUnion@12@0AEBVPxTransform@2@1AEBUNarrowPhaseParams@12@AEAUCache@12@AEAVContactBuffer@12@PEAVRenderOutput@Cm@2@@Z 0000000180074380 f   GuContactConvexMesh.obj
 0001:00073530       ?contactConvexHeightfield@Gu@physx@@YA_NAEBVGeometryUnion@12@0AEBVPxTransform@2@1AEBUNarrowPhaseParams@12@AEAUCache@12@AEAVContactBuffer@12@PEAVRenderOutput@Cm@2@@Z 0000000180074530 f   GuContactConvexMesh.obj
 0001:00073660       ?contactConvexMesh@Gu@physx@@YA_NAEBVGeometryUnion@12@0AEBVPxTransform@2@1AEBUNarrowPhaseParams@12@AEAUCache@12@AEAVContactBuffer@12@PEAVRenderOutput@Cm@2@@Z 0000000180074660 f   GuContactConvexMesh.obj
 0001:00076d80       ?processHit@ConvexMeshContactGenerationCallback@@UEAA_NAEBUPxRaycastHit@physx@@AEBVPxVec3@3@11AEAMPEBI@Z 0000000180077d80 f i GuContactConvexMesh.obj
 0001:00077650       ?recreate@?$Array@IV?$InlineAllocator@$0BBAA@V?$ReflectionAllocator@I@shdfnd@physx@@@shdfnd@physx@@@shdfnd@physx@@IEAAXI@Z 0000000180078650 f i GuContactConvexMesh.obj
 0001:00078680       ?contactPlaneBox@Gu@physx@@YA_NAEBVGeometryUnion@12@0AEBVPxTransform@2@1AEBUNarrowPhaseParams@12@AEAUCache@12@AEAVContactBuffer@12@PEAVRenderOutput@Cm@2@@Z 0000000180079680 f   GuContactPlaneBox.obj
 0001:00079280       ?contactPlaneCapsule@Gu@physx@@YA_NAEBVGeometryUnion@12@0AEBVPxTransform@2@1AEBUNarrowPhaseParams@12@AEAUCache@12@AEAVContactBuffer@12@PEAVRenderOutput@Cm@2@@Z 000000018007a280 f   GuContactPlaneCapsule.obj
 0001:00079890       ?contactPlaneConvex@Gu@physx@@YA_NAEBVGeometryUnion@12@0AEBVPxTransform@2@1AEBUNarrowPhaseParams@12@AEAUCache@12@AEAVContactBuffer@12@PEAVRenderOutput@Cm@2@@Z 000000018007a890 f   GuContactPlaneConvex.obj
 0001:0007b6a0       ?contactPolygonPolygonExt@Gu@physx@@YA_NIPEBVPxVec3@2@PEBEAEBVMatrix34@Cm@2@AEBVPxPlane@2@AEBVPxMat33@2@I01234AEBV32@22IIAEAVContactBuffer@12@_N5M@Z 000000018007c6a0 f   GuContactPolygonPolygon.obj
 0001:0007cde0       ?findRotationMatrixFromZ@Gu@physx@@YA?AVPxMat33@2@AEBVPxVec3@2@@Z 000000018007dde0 f   GuContactPolygonPolygon.obj
 0001:0007d810       ?contactSphereBox@Gu@physx@@YA_NAEBVGeometryUnion@12@0AEBVPxTransform@2@1AEBUNarrowPhaseParams@12@AEAUCache@12@AEAVContactBuffer@12@PEAVRenderOutput@Cm@2@@Z 000000018007e810 f   GuContactSphereBox.obj
 0001:0007ddf0       ?contactSphereCapsule@Gu@physx@@YA_NAEBVGeometryUnion@12@0AEBVPxTransform@2@1AEBUNarrowPhaseParams@12@AEAUCache@12@AEAVContactBuffer@12@PEAVRenderOutput@Cm@2@@Z 000000018007edf0 f   GuContactSphereCapsule.obj
 0001:0007ebc0       ?contactSphereHeightfield@Gu@physx@@YA_NAEBVGeometryUnion@12@0AEBVPxTransform@2@1AEBUNarrowPhaseParams@12@AEAUCache@12@AEAVContactBuffer@12@PEAVRenderOutput@Cm@2@@Z 000000018007fbc0 f   GuContactSphereMesh.obj
 0001:0007f590       ?contactSphereMesh@Gu@physx@@YA_NAEBVGeometryUnion@12@0AEBVPxTransform@2@1AEBUNarrowPhaseParams@12@AEAUCache@12@AEAVContactBuffer@12@PEAVRenderOutput@Cm@2@@Z 0000000180080590 f   GuContactSphereMesh.obj
 0001:00081800       ?contactSpherePlane@Gu@physx@@YA_NAEBVGeometryUnion@12@0AEBVPxTransform@2@1AEBUNarrowPhaseParams@12@AEAUCache@12@AEAVContactBuffer@12@PEAVRenderOutput@Cm@2@@Z 0000000180082800 f   GuContactSpherePlane.obj
 0001:00081a00       ?contactSphereSphere@Gu@physx@@YA_NAEBVGeometryUnion@12@0AEBVPxTransform@2@1AEBUNarrowPhaseParams@12@AEAUCache@12@AEAVContactBuffer@12@PEAVRenderOutput@Cm@2@@Z 0000000180082a00 f   GuContactSphereSphere.obj
 0001:00081b70       ?selectNormal@Gu@physx@@YA_NEMM@Z 0000000180082b70 f   GuFeatureCode.obj
 0001:00081bf0       ??0BigConvexData@physx@@QEAA@XZ 0000000180082bf0 f   GuBigConvexData.obj
 0001:00081c10       ??1BigConvexData@physx@@QEAA@XZ 0000000180082c10 f   GuBigConvexData.obj
 0001:00081c90       ?ComputeNearestOffset@BigConvexData@physx@@QEBAIAEBVPxVec3@2@@Z 0000000180082c90 f   GuBigConvexData.obj
 0001:00081d90       ?ComputeOffset@BigConvexData@physx@@QEBAIAEBVPxVec3@2@@Z 0000000180082d90 f   GuBigConvexData.obj
 0001:00081e90       ?CreateOffsets@BigConvexData@physx@@IEAAXXZ 0000000180082e90 f   GuBigConvexData.obj
 0001:00081ee0       ?Load@BigConvexData@physx@@QEAA_NAEAVPxInputStream@2@@Z 0000000180082ee0 f   GuBigConvexData.obj
 0001:00081ff0       ?VLoad@BigConvexData@physx@@IEAA_NAEAVPxInputStream@2@@Z 0000000180082ff0 f   GuBigConvexData.obj
 0001:00082190       ?exportExtraData@BigConvexData@physx@@QEAAXAEAVPxSerializationContext@2@@Z 0000000180083190 f   GuBigConvexData.obj
 0001:00082210       ?importExtraData@BigConvexData@physx@@QEAAXAEAVPxDeserializationContext@2@@Z 0000000180083210 f   GuBigConvexData.obj
 0001:00082280       ?findUniqueConvexEdges@Gu@physx@@YAIIPEIAUConvexEdge@12@IPEIBUHullPolygonData@12@PEIBE@Z 0000000180083280 f   GuConvexHelper.obj
 0001:000823c0       ?getConvexData@Gu@physx@@YA_NAEBVGeometryUnion@12@AEAVFastVertex2ShapeScaling@Cm@2@AEAVPxBounds3@2@AEAUPolygonalData@12@@Z 00000001800833c0 f   GuConvexHelper.obj
 0001:00082640       ?getScaledConvex@Gu@physx@@YAXAEAPEAVPxVec3@2@AEAPEAEPEAV32@PEAE_NPEBV32@PEBEIAEBVFastVertex2ShapeScaling@Cm@2@@Z 0000000180083640 f   GuConvexHelper.obj
 0001:00082770       ??0ConvexMesh@Gu@physx@@QEAA@AEAVGuMeshFactory@2@AEAUConvexHullInitData@12@@Z 0000000180083770 f   GuConvexMesh.obj
 0001:000828a0       ??0ConvexMesh@Gu@physx@@QEAA@XZ 00000001800838a0 f   GuConvexMesh.obj
 0001:00082940       ??1ConvexMesh@Gu@physx@@UEAA@XZ 0000000180083940 f   GuConvexMesh.obj
 0001:000829e0       ??_EConvexMesh@Gu@physx@@UEAAPEAXI@Z 00000001800839e0 f i GuConvexMesh.obj
 0001:00082af0       ??_EConvexMesh@Gu@physx@@WBA@EAAPEAXI@Z 0000000180083af0 f i GuConvexMesh.obj
 0001:00082b00       ??_EPxHeightField@physx@@MEAAPEAXI@Z 0000000180083b00 f i GuHeightField.obj
 0001:00082b00       ??_EPxConvexMesh@physx@@MEAAPEAXI@Z 0000000180083b00 f i GuConvexMesh.obj
 0001:00082b90       ?acquireReference@TriangleMesh@Gu@physx@@UEAAXXZ 0000000180083b90 f   GuTriangleMesh.obj
 0001:00082b90       ?acquireReference@ConvexMesh@Gu@physx@@UEAAXXZ 0000000180083b90 f   GuConvexMesh.obj
 0001:00082b90       ?acquireReference@HeightField@Gu@physx@@UEAAXXZ 0000000180083b90 f   GuHeightField.obj
 0001:00083060       ?createObject@ConvexMesh@Gu@physx@@SAPEAV123@AEAPEAEAEAVPxDeserializationContext@3@@Z 0000000180084060 f   GuConvexMesh.obj
 0001:000830c0       ?exportExtraData@ConvexMesh@Gu@physx@@UEAAXAEAVPxSerializationContext@3@@Z 00000001800840c0 f   GuConvexMesh.obj
 0001:00083190       ?getLocalBounds@ConvexMesh@Gu@physx@@UEBA?AVPxBounds3@3@XZ 0000000180084190 f   GuConvexMesh.obj
 0001:00083220       ?getMassInformation@ConvexMesh@Gu@physx@@UEBAXAEAMAEAVPxMat33@3@AEAVPxVec3@3@@Z 0000000180084220 f   GuConvexMesh.obj
 0001:00083290       ?getPolygonData@ConvexMesh@Gu@physx@@UEBA_NIAEAUPxHullPolygon@3@@Z 0000000180084290 f   GuConvexMesh.obj
 0001:000832e0       ?getReferenceCount@TriangleMesh@Gu@physx@@UEBAIXZ 00000001800842e0 f   GuTriangleMesh.obj
 0001:000832e0       ?getReferenceCount@HeightField@Gu@physx@@UEBAIXZ 00000001800842e0 f   GuHeightField.obj
 0001:000832e0       ?raw_length@pairNode@@UEBAHXZ 00000001800842e0 f   libvcruntime:undname.obj
 0001:000832e0       ?getReferenceCount@ConvexMesh@Gu@physx@@UEBAIXZ 00000001800842e0 f   GuConvexMesh.obj
 0001:000832f0       ?importExtraData@ConvexMesh@Gu@physx@@QEAAXAEAVPxDeserializationContext@3@@Z 00000001800842f0 f   GuConvexMesh.obj
 0001:000833b0       ?isGpuCompatible@ConvexMesh@Gu@physx@@UEBA_NXZ 00000001800843b0 f   GuConvexMesh.obj
 0001:000833d0       ?load@ConvexMesh@Gu@physx@@QEAA_NAEAVPxInputStream@3@@Z 00000001800843d0 f   GuConvexMesh.obj
 0001:00083680       ?onRefCountZero@ConvexMesh@Gu@physx@@UEAAXXZ 0000000180084680 f   GuConvexMesh.obj
 0001:00083770       ??Dphysx@@YA?AVMatrix34@Cm@0@AEBVPxMeshScale@0@AEBV120@@Z 0000000180084770 f i GuConvexUtilsInternal.obj
 0001:00083d40       ?computeHullOBB@Gu@physx@@YAXAEAVBox@12@AEBVPxBounds3@2@MAEBVMatrix34@Cm@2@2AEBVFastVertex2ShapeScaling@62@_N@Z 0000000180084d40 f   GuConvexUtilsInternal.obj
 0001:000841f0       ?computeOBBAroundConvex@Gu@physx@@YAXAEAVBox@12@AEBVPxConvexMeshGeometry@2@PEBVPxConvexMesh@2@AEBVPxTransform@2@@Z 00000001800851f0 f   GuConvexUtilsInternal.obj
 0001:00084b00       ?computeVertexSpaceOBB@Gu@physx@@YAXAEAVBox@12@AEBV312@AEBVPxTransform@2@AEBVPxMeshScale@2@@Z 0000000180085b00 f   GuConvexUtilsInternal.obj
 0001:00084eb0       ?transform@physx@@YA?AVBox@Gu@1@AEBVMatrix34@Cm@1@AEBV231@@Z 0000000180085eb0 f i GuConvexUtilsInternal.obj
 0001:00085100       ?localSearch@physx@@YAXAEAIAEBVPxVec3@1@PEBV21@PEBUBigConvexRawData@Gu@1@@Z 0000000180086100 f   GuHillClimbing.obj
 0001:00085230       ??0PCMPolygonalBox@Gu@physx@@QEAA@AEBVPxVec3@2@@Z 0000000180086230 f   GuPCMShapeConvex.obj
 0001:00085230       ??0PolygonalBox@Gu@physx@@QEAA@AEBVPxVec3@2@@Z 0000000180086230 f   GuShapeConvex.obj
 0001:000866f0       ?getPolygonalData@PolygonalBox@Gu@physx@@QEBAXPEIAUPolygonalData@23@@Z 00000001800876f0 f   GuShapeConvex.obj
 0001:00086750       ?getPolygonalData_Convex@Gu@physx@@YAXPEIAUPolygonalData@12@PEIBUConvexHullData@12@AEBVFastVertex2ShapeScaling@Cm@2@@Z 0000000180087750 f   GuShapeConvex.obj
 0001:000868b0       ?distancePointBoxSquared@Gu@physx@@YAMAEBVPxVec3@2@00AEBVPxMat33@2@PEAV32@@Z 00000001800878b0 f   GuDistancePointBox.obj
 0001:00086a00       ?closestPtPointTriangle@Gu@physx@@YA?AVPxVec3@2@AEBV32@000AEAM1@Z 0000000180087a00 f   GuDistancePointTriangle.obj
 0001:00086f20       ?distancePointTriangleSquared@Gu@physx@@YA?AT__m128@@AEBT3@000AEAT3@11@Z 0000000180087f20 f   GuDistancePointTriangle.obj
 0001:00087c70       ?distanceSegmentBoxSquared@Gu@physx@@YAMAEBVPxVec3@2@000AEBVPxMat33@2@PEAMPEAV32@@Z 0000000180088c70 f   GuDistanceSegmentBox.obj
 0001:000884f0       ?distanceSegmentSegmentSquared4@Gu@physx@@YA?AT__m128@@AEBT3@000000000AEAT3@1@Z 00000001800894f0 f   GuDistanceSegmentSegment.obj
 0001:00088810       ?distanceSegmentSegmentSquared@Gu@physx@@YA?AT__m128@@AEBT3@000AEAT3@1@Z 0000000180089810 f   GuDistanceSegmentSegment.obj
 0001:000889e0       ?distanceSegmentSegmentSquared@Gu@physx@@YAMAEBVPxVec3@2@000PEAM1@Z 00000001800899e0 f   GuDistanceSegmentSegment.obj
 0001:00088c70       ?distanceSegmentSegmentSquared@Gu@physx@@YAMAEBVPxVec3@2@0M00MPEAM1@Z 0000000180089c70 f   GuDistanceSegmentSegment.obj
 0001:000893c0       ?distanceSegmentTriangleSquared@Gu@physx@@YA?AT__m128@@AEBT3@0000AEAT3@1@Z 000000018008a3c0 f   GuDistanceSegmentTriangle.obj
 0001:00089b00       ?distanceSegmentTriangleSquared@Gu@physx@@YAMAEBVPxVec3@2@0000PEAM11@Z 000000018008ab00 f   GuDistanceSegmentTriangle.obj
 0001:0008b190       ?PenetrationDepth@EPA@Gu@physx@@QEAA?AW4GjkStatus@23@AEBUGjkConvex@23@0PEIBT__m128@@1E_NT6@AEAUGjkOutput@23@@Z 000000018008c190 f   GuEPA.obj
 0001:0008bae0       ?addFacet@EPA@Gu@physx@@QEAAPEAVFacet@23@IIIAEBT__m128@@@Z 000000018008cae0 f   GuEPA.obj
 0001:0008bf30       ?epaPenetration@Gu@physx@@YA?AW4GjkStatus@12@AEBUGjkConvex@12@0PEIBE1E_NT__m128@@AEAUGjkOutput@12@@Z 000000018008cf30 f   GuEPA.obj
 0001:0008c0a0       ?expandSegment@EPA@Gu@physx@@QEAA_NAEBUGjkConvex@23@0AEAHAEBT__m128@@@Z 000000018008d0a0 f   GuEPA.obj
 0001:0008c250       ?expandTriangle@EPA@Gu@physx@@QEAA_NAEAHAEBT__m128@@@Z 000000018008d250 f   GuEPA.obj
 0001:0008c300       ?silhouette@Facet@Gu@physx@@QEAAXAEBT__m128@@PEIBT4@1AEAVEdgeBuffer@23@AEAV?$InlineDeferredIDPool@$0EA@@Cm@3@@Z 000000018008d300 f   GuEPA.obj
 0001:0008c4c0       ?closestPtPointTetrahedron@Gu@physx@@YA?AT__m128@@PEIAT3@00AEAI@Z 000000018008d4c0 f   GuGJKSimplex.obj
 0001:0008cc40       ?closestPtPointTetrahedron@Gu@physx@@YA?AT__m128@@PEIAT3@00PEIAH1AEAI@Z 000000018008dc40 f   GuGJKSimplex.obj
 0001:0008e6f0       ??$gjk@UGjkConvex@Gu@physx@@U123@@Gu@physx@@YA?AW4GjkStatus@01@AEBUGjkConvex@01@0AEBT__m128@@1AEAT4@222@Z 000000018008f6f0 f i GuGJKTest.obj
 0001:0008f2a0       ??$gjkPenetration@UGjkConvex@Gu@physx@@U123@@Gu@physx@@YA?AW4GjkStatus@01@AEBUGjkConvex@01@0AEBT__m128@@1_NPEIAE3AEAEAEAUGjkOutput@01@@Z 00000001800902a0 f i GuGJKTest.obj
 0001:00090710       ?testEpaPenetration@Gu@physx@@YA?AW4GjkStatus@12@AEAUGjkConvex@12@0PEBE1EAEAUGjkOutput@12@@Z 0000000180091710 f   GuGJKTest.obj
 0001:00090760       ?testGjk@Gu@physx@@YA?AW4GjkStatus@12@AEAUGjkConvex@12@0AEBT__m128@@1AEAT5@222@Z 0000000180091760 f   GuGJKTest.obj
 0001:00090770       ?testGjkPenetration@Gu@physx@@YA?AW4GjkStatus@12@AEAUGjkConvex@12@0AEBT__m128@@1PEAE2AEAEAEAUGjkOutput@12@@Z 0000000180091770 f   GuGJKTest.obj
 0001:000907c0       ??0HeightField@Gu@physx@@QEAA@AEAVGuMeshFactory@2@AEAUHeightFieldData@12@@Z 00000001800917c0 f   GuHeightField.obj
 0001:00090890       ??0HeightField@Gu@physx@@QEAA@PEAVGuMeshFactory@2@@Z 0000000180091890 f   GuHeightField.obj
 0001:00090900       ??1HeightField@Gu@physx@@UEAA@XZ 0000000180091900 f   GuHeightField.obj
 0001:00090970       ??_EHeightField@Gu@physx@@UEAAPEAXI@Z 0000000180091970 f i GuHeightField.obj
 0001:00090aec       ??_EHeightField@Gu@physx@@WBA@EAAPEAXI@Z 0000000180091aec f i GuHeightField.obj
 0001:00090b00       ?computeCellCoordinates@HeightField@Gu@physx@@QEBAIMMAEAM0@Z 0000000180091b00 f   GuHeightField.obj
 0001:00090c00       ?createObject@HeightField@Gu@physx@@SAPEAV123@AEAPEAEAEAVPxDeserializationContext@3@@Z 0000000180091c00 f   GuHeightField.obj
 0001:00090c70       ?exportExtraData@HeightField@Gu@physx@@UEAAXAEAVPxSerializationContext@3@@Z 0000000180091c70 f   GuHeightField.obj
 0001:00090cc0       ?getEdgeTriangleIndices@physx@@YAIAEBVHeightField@Gu@1@AEBUEdgeData@1@PEIAI@Z 0000000180091cc0 f   GuHeightField.obj
 0001:00090df0       ?getVertexEdgeIndices@physx@@YAIAEBVHeightField@Gu@1@IIIQEAUEdgeData@1@@Z 0000000180091df0 f   GuHeightField.obj
 0001:00090fd0       ?importExtraData@HeightField@Gu@physx@@QEAAXAEAVPxDeserializationContext@3@@Z 0000000180091fd0 f   GuHeightField.obj
 0001:00090ff0       ?isCollisionVertexPreca@HeightField@Gu@physx@@QEBA_NIIIG@Z 0000000180091ff0 f   GuHeightField.obj
 0001:00091090       ?isConvexVertex@HeightField@Gu@physx@@QEBA_NIII@Z 0000000180092090 f i GuHeightField.obj
 0001:00091160       ?isSolidVertex@HeightField@Gu@physx@@QEBA_NIIIGAEA_N@Z 0000000180092160 f   GuHeightField.obj
 0001:000912e0       ?load@HeightField@Gu@physx@@QEAA_NAEAVPxInputStream@3@@Z 00000001800922e0 f   GuHeightField.obj
 0001:00091660       ?loadFromDesc@HeightField@Gu@physx@@QEAA_NAEBVPxHeightFieldDesc@3@@Z 0000000180092660 f   GuHeightField.obj
 0001:00091880       ?modifySamples@HeightField@Gu@physx@@UEAA_NHHAEBVPxHeightFieldDesc@3@_N@Z 0000000180092880 f   GuHeightField.obj
 0001:00091be0       ?onRefCountZero@HeightField@Gu@physx@@UEAAXXZ 0000000180092be0 f   GuHeightField.obj
 0001:00091c70       ?parseTrianglesForCollisionVertices@HeightField@Gu@physx@@QEAAXG@Z 0000000180092c70 f   GuHeightField.obj
 0001:00092150       ?releaseMemory@HeightField@Gu@physx@@QEAAXXZ 0000000180093150 f   GuHeightField.obj
 0001:000921a0       ?resizeAndClear@?$BitMapBase@VNonTrackingAllocator@shdfnd@physx@@@Cm@physx@@QEAAXI@Z 00000001800931a0 f i GuHeightField.obj
 0001:00092260       ?saveCells@HeightField@Gu@physx@@UEBAIPEAXI@Z 0000000180093260 f   GuHeightField.obj
 0001:000922a0       ?computeLocalBounds@HeightFieldUtil@Gu@physx@@QEBAXAEAVPxBounds3@3@@Z 00000001800932a0 f   GuHeightFieldUtil.obj
 0001:00092370       ?findClosestPointOnEdge@HeightFieldUtil@Gu@physx@@QEBAMIIIIAEBVPxVec3@3@AEAV43@@Z 0000000180093370 f   GuHeightFieldUtil.obj
 0001:00092660       ?findClosestPointsOnCell@HeightFieldUtil@Gu@physx@@QEBAIIIVPxVec3@3@PEIAV43@PEIAI_N33@Z 0000000180093660 f   GuHeightFieldUtil.obj
 0001:00092de0       ?findProjectionOnTriangle@HeightFieldUtil@Gu@physx@@QEBA_NIIIAEBVPxVec3@3@AEAV43@@Z 0000000180093de0 f   GuHeightFieldUtil.obj
 0001:00093080       ?getEdge@HeightFieldUtil@Gu@physx@@QEBAXIIIIAEAVPxVec3@3@0@Z 0000000180094080 f   GuHeightFieldUtil.obj
 0001:000932b0       ?getEdgeFaceIndex@HeightFieldUtil@Gu@physx@@QEBAII@Z 00000001800942b0 f   GuHeightFieldUtil.obj
 0001:000934a0       ?getEdgeFaceIndex@HeightFieldUtil@Gu@physx@@QEBAIIIII@Z 00000001800944a0 f   GuHeightFieldUtil.obj
 0001:00093650       ?getEdgeFaceIndex@HeightFieldUtil@Gu@physx@@QEBAIIIPEIBI@Z 0000000180094650 f   GuHeightFieldUtil.obj
 0001:000936e0       ?getFaceIndexAtShapePoint@HeightFieldUtil@Gu@physx@@QEBAIMM@Z 00000001800946e0 f   GuHeightFieldUtil.obj
 0001:000937f0       ?getTriangle@HeightFieldUtil@Gu@physx@@QEBAIAEBVPxTransform@3@AEAVPxTriangle@3@PEAI2I_N3@Z 00000001800947f0 f   GuHeightFieldUtil.obj
 0001:000942d0       ?getTriangleAdjacencyIndices@HeightField@Gu@physx@@QEBAXIIIIAEAI00@Z 00000001800952d0 f i GuHeightFieldUtil.obj
 0001:000944b0       ?getTriangleVertexIndices@HeightField@Gu@physx@@QEBAXIAEAI00@Z 00000001800954b0 f i GuHeightFieldUtil.obj
 0001:00094570       ?getVertexFaceIndex@HeightFieldUtil@Gu@physx@@QEBAIIII@Z 0000000180095570 f   GuHeightFieldUtil.obj
 0001:000947b0       ?getVertexNormal@HeightFieldUtil@Gu@physx@@QEBA?AVPxVec3@3@III@Z 00000001800957b0 f   GuHeightFieldUtil.obj
 0001:00094b00       ?overlapAABBTriangles@HeightFieldUtil@Gu@physx@@QEBA_NAEBVPxTransform@3@AEBVPxBounds3@3@IPEAV?$EntityReport@I@23@@Z 0000000180095b00 f   GuHeightFieldUtil.obj
 0001:00095130       ??$traceSegment@UTriggerTraceSegmentCallback@Gu@physx@@$0A@$0A@@HeightFieldTraceUtil@Gu@physx@@QEBAXAEBVPxVec3@2@0MPEAUTriggerTraceSegmentCallback@12@AEBVPxBounds3@2@_NPEBV32@@Z 0000000180096130 f i GuOverlapTestsHF.obj
 0001:00096110       ?GeomOverlapCallback_BoxHeightfield@@YA_NAEBVPxGeometry@physx@@AEBVPxTransform@2@01PEAUTriggerCache@Gu@2@@Z 0000000180097110 f   GuOverlapTestsHF.obj
 0001:00096430       ?GeomOverlapCallback_CapsuleHeightfield@@YA_NAEBVPxGeometry@physx@@AEBVPxTransform@2@01PEAUTriggerCache@Gu@2@@Z 0000000180097430 f   GuOverlapTestsHF.obj
 0001:00096670       ?GeomOverlapCallback_ConvexHeightfield@@YA_NAEBVPxGeometry@physx@@AEBVPxTransform@2@01PEAUTriggerCache@Gu@2@@Z 0000000180097670 f   GuOverlapTestsHF.obj
 0001:000966e0       ?GeomOverlapCallback_SphereHeightfield@@YA_NAEBVPxGeometry@physx@@AEBVPxTransform@2@01PEAUTriggerCache@Gu@2@@Z 00000001800976e0 f   GuOverlapTestsHF.obj
 0001:000968b0       ?checkOverlapAABB_heightFieldGeom@Gu@physx@@YA_NAEBVPxGeometry@2@AEBVPxTransform@2@AEBVPxBounds3@2@@Z 00000001800978b0 f   GuOverlapTestsHF.obj
 0001:00099b70       ??$gjkRaycast@U?$LocalConvex@VTriangleV@Gu@physx@@@Gu@physx@@U?$LocalConvex@VConvexHullV@Gu@physx@@@23@@Gu@physx@@YA_NAEBU?$LocalConvex@VTriangleV@Gu@physx@@@01@AEBU?$LocalConvex@VConvexHullV@Gu@physx@@@01@AEBT__m128@@222AEAT4@33M@Z 000000018009ab70 f i GuSweepsHF.obj
 0001:0009a950       ??$traceSegment@VBoxTraceSegmentReport@@$0A@$00@HeightFieldTraceUtil@Gu@physx@@QEBAXAEBVPxVec3@2@0MPEAVBoxTraceSegmentReport@@AEBVPxBounds3@2@_NPEBV32@@Z 000000018009b950 f i GuSweepsHF.obj
 0001:0009a950       ??$traceSegment@VCapsuleTraceSegmentReport@@$0A@$00@HeightFieldTraceUtil@Gu@physx@@QEBAXAEBVPxVec3@2@0MPEAVCapsuleTraceSegmentReport@@AEBVPxBounds3@2@_NPEBV32@@Z 000000018009b950 f i GuSweepsHF.obj
 0001:0009a950       ??$traceSegment@VConvexTraceSegmentReport@@$0A@$00@HeightFieldTraceUtil@Gu@physx@@QEBAXAEBVPxVec3@2@0MPEAVConvexTraceSegmentReport@@AEBVPxBounds3@2@_NPEBV32@@Z 000000018009b950 f i GuSweepsHF.obj
 0001:0009b370       ??0ConvexTraceSegmentReport@@QEAA@AEBVHeightFieldUtil@Gu@physx@@AEBUConvexHullData@23@AEBVPxMeshScale@3@AEBVPxTransform@3@3AEBVPxVec3@3@MV?$PxFlags@W4Enum@PxHitFlag@physx@@G@3@M@Z 000000018009c370 f i GuSweepsHF.obj
 0001:0009bd70       ??_EBoxTraceSegmentReport@@UEAAPEAXI@Z 000000018009cd70 f i GuSweepsHF.obj
 0001:0009bd70       ??_GBoxTraceSegmentReport@@UEAAPEAXI@Z 000000018009cd70 f i GuSweepsHF.obj
 0001:0009bda0       ??_GCapsuleTraceSegmentReport@@UEAAPEAXI@Z 000000018009cda0 f i GuSweepsHF.obj
 0001:0009bda0       ??_ECapsuleTraceSegmentReport@@UEAAPEAXI@Z 000000018009cda0 f i GuSweepsHF.obj
 0001:0009bdd0       ??_GConvexTraceSegmentReport@@UEAAPEAXI@Z 000000018009cdd0 f i GuSweepsHF.obj
 0001:0009bdd0       ??_EConvexTraceSegmentReport@@UEAAPEAXI@Z 000000018009cdd0 f i GuSweepsHF.obj
 0001:0009be00       ??_EHeightFieldTraceSegmentReport@@UEAAPEAXI@Z 000000018009ce00 f i GuSweepsHF.obj
 0001:0009be00       ??_GHeightFieldTraceSegmentReport@@UEAAPEAXI@Z 000000018009ce00 f i GuSweepsHF.obj
 0001:0009be30       ?finalizeHit@ConvexTraceSegmentReport@@QEAA_NAEAUPxSweepHit@physx@@AEBVPxHeightFieldGeometry@3@AEBVPxTransform@3@AEBVPxConvexMeshGeometry@3@2AEBVPxVec3@3@M@Z 000000018009ce30 f i GuSweepsHF.obj
 0001:0009c080       ?onEvent@BoxTraceSegmentReport@@UEAA_NIPEAI@Z 000000018009d080 f i GuSweepsHF.obj
 0001:0009c4f0       ?onEvent@CapsuleTraceSegmentReport@@UEAA_NIPEAI@Z 000000018009d4f0 f i GuSweepsHF.obj
 0001:0009c720       ?onEvent@ConvexTraceSegmentReport@@UEAA_NIPEAI@Z 000000018009d720 f i GuSweepsHF.obj
 0001:0009cce0       ?prepare@?$OverlapTraceSegment@VCapsuleTraceSegmentReport@@@HeightFieldTraceUtil@Gu@physx@@QEAAXAEBVPxVec3@4@00AEAM1@Z 000000018009dce0 f i GuSweepsHF.obj
 0001:0009cce0       ?prepare@?$OverlapTraceSegment@VBoxTraceSegmentReport@@@HeightFieldTraceUtil@Gu@physx@@QEAAXAEBVPxVec3@4@00AEAM1@Z 000000018009dce0 f i GuSweepsHF.obj
 0001:0009cce0       ?prepare@?$OverlapTraceSegment@VConvexTraceSegmentReport@@@HeightFieldTraceUtil@Gu@physx@@QEAAXAEBVPxVec3@4@00AEAM1@Z 000000018009dce0 f i GuSweepsHF.obj
 0001:0009cf80       ?sweepBox_HeightFieldGeom@@YA_NAEBVPxGeometry@physx@@AEBVPxTransform@2@AEBVPxBoxGeometry@2@1AEBVBox@Gu@2@AEBVPxVec3@2@MAEAUPxSweepHit@2@V?$PxFlags@W4Enum@PxHitFlag@physx@@G@2@M@Z 000000018009df80 f   GuSweepsHF.obj
 0001:0009ddf0       ?sweepCapsule_HeightFieldGeom@@YA_NAEBVPxGeometry@physx@@AEBVPxTransform@2@AEBVPxCapsuleGeometry@2@1AEBVCapsule@Gu@2@AEBVPxVec3@2@MAEAUPxSweepHit@2@V?$PxFlags@W4Enum@PxHitFlag@physx@@G@2@M@Z 000000018009edf0 f   GuSweepsHF.obj
 0001:0009e780       ?sweepConvex_HeightFieldGeom@@YA_NAEBVPxGeometry@physx@@AEBVPxTransform@2@AEBVPxConvexMeshGeometry@2@1AEBVPxVec3@2@MAEAUPxSweepHit@2@V?$PxFlags@W4Enum@PxHitFlag@physx@@G@2@M@Z 000000018009f780 f   GuSweepsHF.obj
 0001:0009f1d0       ?testVertexIndex@?$OverlapTraceSegment@VBoxTraceSegmentReport@@@HeightFieldTraceUtil@Gu@physx@@QEAA_NI@Z 00000001800a01d0 f i GuSweepsHF.obj
 0001:0009f1d0       ?testVertexIndex@?$OverlapTraceSegment@VConvexTraceSegmentReport@@@HeightFieldTraceUtil@Gu@physx@@QEAA_NI@Z 00000001800a01d0 f i GuSweepsHF.obj
 0001:0009f1d0       ?testVertexIndex@?$OverlapTraceSegment@VCapsuleTraceSegmentReport@@@HeightFieldTraceUtil@Gu@physx@@QEAA_NI@Z 00000001800a01d0 f i GuSweepsHF.obj
 0001:0009f320       ?intersectOBBOBB@Gu@physx@@YA_NAEBVPxVec3@2@0AEBVPxMat33@2@001_N@Z 00000001800a0320 f   GuIntersectionBoxBox.obj
 0001:0009f980       ?intersectCapsuleTriangle@Gu@physx@@YA_NAEBVPxVec3@2@000AEBVCapsule@12@AEBUCapsuleTriangleOverlapData@12@@Z 00000001800a0980 f   GuIntersectionCapsuleTriangle.obj
 0001:000a0510       ?intersectEdgeEdge@Gu@physx@@YA_NAEBVPxVec3@2@0000AEAMAEAV32@@Z 00000001800a1510 f   GuIntersectionEdgeEdge.obj
 0001:000a0840       ?intersectRayAABB2@Gu@physx@@YA_NAEBT__m128@@0000AEAT3@1@Z 00000001800a1840 f   GuIntersectionRayBox.obj
 0001:000a0900       ?intersectRayAABB2@Gu@physx@@YA_NAEBVPxVec3@2@000MAEAM1@Z 00000001800a1900 f   GuIntersectionRayBox.obj
 0001:000a0ab0       ?intersectRayAABB@Gu@physx@@YAHAEBVPxVec3@2@000AEAM1@Z 00000001800a1ab0 f   GuIntersectionRayBox.obj
 0001:000a0bd0       ?rayAABBIntersect2@Gu@physx@@YAIAEBVPxVec3@2@000AEAV32@AEAM@Z 00000001800a1bd0 f   GuIntersectionRayBox.obj
 0001:000a0de0       ?intersectRayCapsuleInternal@Gu@physx@@YAIAEBVPxVec3@2@000MQEAM@Z 00000001800a1de0 f   GuIntersectionRayCapsule.obj
 0001:000a1670       ?intersectRaySphere@Gu@physx@@YA_NAEBVPxVec3@2@0M0MAEAMPEAV32@@Z 00000001800a2670 f   GuIntersectionRaySphere.obj
 0001:000a1760       ?intersectRaySphereBasic@Gu@physx@@YA_NAEBVPxVec3@2@0M0MAEAMPEAV32@@Z 00000001800a2760 f   GuIntersectionRaySphere.obj
 0001:000a18c0       ?intersectSphereBox@Gu@physx@@YA_NAEBVSphere@12@AEBVBox@12@@Z 00000001800a28c0 f   GuIntersectionSphereBox.obj
 0001:000a1af0       ?intersectTriangleBox@Gu@physx@@YAHAEBVBoxPadded@12@AEBVPxVec3@2@11@Z 00000001800a2af0 f   GuIntersectionTriangleBox.obj
 0001:000a20c0       ?intersectTriangleBoxBV4@@YAHAEBVPxVec3@physx@@00AEBVPxMat33@2@00@Z 00000001800a30c0 f   GuIntersectionTriangleBox.obj
 0001:000a2500       ?intersectTriangleBox_ReferenceCode@Gu@physx@@YAHAEBVPxVec3@2@0000@Z 00000001800a3500 f   GuIntersectionTriangleBox.obj
 0001:000a2d70       ?intersectTriangleBox_Unsafe@Gu@physx@@YAHAEBVPxVec3@2@0000@Z 00000001800a3d70 f   GuIntersectionTriangleBox.obj
 0001:000a3140       ??0BV4Tree@Gu@physx@@QEAA@PEAVSourceMesh@12@AEBVPxBounds3@2@@Z 00000001800a4140 f   GuBV4.obj
 0001:000a3200       ??0BV4Tree@Gu@physx@@QEAA@W4PxEMPTY@2@@Z 00000001800a4200 f   GuBV4.obj
 0001:000a3210       ??0BV4Tree@Gu@physx@@QEAA@XZ 00000001800a4210 f   GuBV4.obj
 0001:000a3240       ??0SourceMesh@Gu@physx@@QEAA@XZ 00000001800a4240 f   GuBV4.obj
 0001:000a3260       ??0SourceMeshBase@Gu@physx@@QEAA@XZ 00000001800a4260 f   GuBV4.obj
 0001:000a3270       ??1BV4Tree@Gu@physx@@QEAA@XZ 00000001800a4270 f   GuBV4.obj
 0001:000a32d0       ??1SourceMesh@Gu@physx@@QEAA@XZ 00000001800a42d0 f   GuBV4.obj
 0001:000a32d0       ??1SourceMeshBase@Gu@physx@@QEAA@XZ 00000001800a42d0 f   GuBV4.obj
 0001:000a3320       ??4BV4Tree@Gu@physx@@QEAAXAEAV012@@Z 00000001800a4320 f   GuBV4.obj
 0001:000a33b0       ??4SourceMesh@Gu@physx@@QEAAXAEAV012@@Z 00000001800a43b0 f   GuBV4.obj
 0001:000a3400       ?exportExtraData@BV4Tree@Gu@physx@@QEAAXAEAVPxSerializationContext@3@@Z 00000001800a4400 f   GuBV4.obj
 0001:000a3450       ?importExtraData@BV4Tree@Gu@physx@@QEAAXAEAVPxDeserializationContext@3@@Z 00000001800a4450 f   GuBV4.obj
 0001:000a3480       ?init@BV32Tree@Gu@physx@@QEAA_NPEAVSourceMesh@23@AEBVPxBounds3@3@@Z 00000001800a4480 f   GuBV32.obj
 0001:000a3480       ?init@BV4Tree@Gu@physx@@QEAA_NPEAVSourceMesh@23@AEBVPxBounds3@3@@Z 00000001800a4480 f   GuBV4.obj
 0001:000a3520       ?load@BV4Tree@Gu@physx@@QEAA_NAEAVPxInputStream@3@_N@Z 00000001800a4520 f   GuBV4.obj
 0001:000a3740       ?remapTopology@SourceMesh@Gu@physx@@QEAAXPEBI@Z 00000001800a4740 f   GuBV4.obj
 0001:000a3a10       ??0AABBTree@Gu@physx@@QEAA@XZ 00000001800a4a10 f   GuBV4Build.obj
 0001:000a3a20       ??0BVData@@QEAA@XZ         00000001800a4a20 f   GuBV4Build.obj
 0001:000a3a50       ??1AABBTree@Gu@physx@@QEAA@XZ 00000001800a4a50 f   GuBV4Build.obj
 0001:000a3a60       ?BuildBV4Ex@Gu@physx@@YA_NAEAVBV4Tree@12@AEAVSourceMesh@12@MI@Z 00000001800a4a60 f   GuBV4Build.obj
 0001:000a4f30       ?allocateNode@BV4BuildParams@@QEAAPEAUBV4Node@@XZ 00000001800a5f30 f   GuBV4Build.obj
 0001:000a5050       ?buildFromMesh@AABBTree@Gu@physx@@QEAA_NAEAVSourceMesh@23@I@Z 00000001800a6050 f   GuBV4Build.obj
 0001:000a5c10       ?release@AABBTree@Gu@physx@@QEAAXXZ 00000001800a6c10 f   GuBV4Build.obj
 0001:000a5cb0       ?releaseNodes@BV4BuildParams@@QEAAXXZ 00000001800a6cb0 f   GuBV4Build.obj
 0001:000a5f80       ?walk@AABBTree@Gu@physx@@QEBAIP6A_NPEBVAABBTreeNode@23@IPEAX@Z1@Z 00000001800a6f80 f   GuBV4Build.obj
 0001:000a81a0       ?GenericSweep_AABB_CB@@YAXAEBVBox@Gu@physx@@AEBVPxVec3@3@MAEBVBV4Tree@23@P6A_NPEAX111IAEAM@Z3I@Z 00000001800a91a0 f   GuBV4_AABBSweep.obj
 0001:000a82d0       ?Sweep_AABB_BV4@@YAHAEBVBox@Gu@physx@@AEBVPxVec3@3@MAEBVBV4Tree@23@PEIAVSweepHit@23@I@Z 00000001800a92d0 f   GuBV4_AABBSweep.obj
 0001:000ac720       ?BV4_OverlapBoxAll@@YAIAEBVBox@Gu@physx@@AEBVBV4Tree@23@PEIBVPxMat44@3@PEAIIAEA_N@Z 00000001800ad720 f   GuBV4_BoxOverlap.obj
 0001:000acf30       ?BV4_OverlapBoxAny@@YAHAEBVBox@Gu@physx@@AEBVBV4Tree@23@PEIBVPxMat44@3@@Z 00000001800adf30 f   GuBV4_BoxOverlap.obj
 0001:000ad6f0       ?BV4_OverlapBoxCB@@YAXAEBVBox@Gu@physx@@AEBVBV4Tree@23@P6A_NPEAXAEBVPxVec3@3@33IPEBI@Z2@Z 00000001800ae6f0 f   GuBV4_BoxOverlap.obj
 0001:000adbb0       ?BV4_OverlapCapsuleAll@@YAIAEBVCapsule@Gu@physx@@AEBVBV4Tree@23@PEIBVPxMat44@3@PEAIIAEA_N@Z 00000001800aebb0 f   GuBV4_BoxOverlap.obj
 0001:000ae2a0       ?BV4_OverlapCapsuleAny@@YAHAEBVCapsule@Gu@physx@@AEBVBV4Tree@23@PEIBVPxMat44@3@@Z 00000001800af2a0 f   GuBV4_BoxOverlap.obj
 0001:000b04b0       ?BV4_CapsuleSweepSingle@@YAHAEBVCapsule@Gu@physx@@AEBVPxVec3@3@MAEBVBV4Tree@23@PEIAVSweepHit@23@I@Z 00000001800b14b0 f   GuBV4_CapsuleSweep.obj
 0001:000b3950       ?BV4_CapsuleSweepSingleAA@@YAHAEBVCapsule@Gu@physx@@AEBVPxVec3@3@MAEBVBV4Tree@23@PEIAVSweepHit@23@I@Z 00000001800b4950 f   GuBV4_CapsuleSweepAA.obj
 0001:000b8340       ?BV4_BoxSweepSingle@@YAHAEBVBox@Gu@physx@@AEBVPxVec3@3@MAEBVBV4Tree@23@PEIBVPxMat44@3@PEIAVSweepHit@23@I@Z 00000001800b9340 f   GuBV4_OBBSweep.obj
 0001:000b8a70       ?BV4_GenericSweepCB@@YAXAEBVBox@Gu@physx@@AEBVPxVec3@3@MAEBVBV4Tree@23@P6A_NPEAX111IAEAM@Z3_N@Z 00000001800b9a70 f   GuBV4_OBBSweep.obj
 0001:000b8c40       ?Sweep_OBB_BV4@@YAHAEBVBox@Gu@physx@@AEBVPxVec3@3@MAEBVBV4Tree@23@PEIAVSweepHit@23@I@Z 00000001800b9c40 f   GuBV4_OBBSweep.obj
 0001:000bac10       ?BV4_RaycastCB@@YAXAEBVPxVec3@physx@@0AEBVBV4Tree@Gu@2@PEIBVPxMat44@2@MMIP6A?AW4HitCode@42@PEAX000IMMM@Z3@Z 00000001800bbc10 f   GuBV4_Raycast.obj
 0001:000bb030       ?BV4_RaycastSingle@@YAHAEBVPxVec3@physx@@0AEBVBV4Tree@Gu@2@PEIBVPxMat44@2@PEIAUPxRaycastHit@2@MMIV?$PxFlags@W4Enum@PxHitFlag@physx@@G@2@@Z 00000001800bc030 f   GuBV4_Raycast.obj
 0001:000bcd90       ?BV4_OverlapSphereAll@@YAIAEBVSphere@Gu@physx@@AEBVBV4Tree@23@PEIBVPxMat44@3@PEAIIAEA_N@Z 00000001800bdd90 f   GuBV4_SphereOverlap.obj
 0001:000bd0a0       ?BV4_OverlapSphereAny@@YAHAEBVSphere@Gu@physx@@AEBVBV4Tree@23@PEIBVPxMat44@3@@Z 00000001800be0a0 f   GuBV4_SphereOverlap.obj
 0001:000beea0       ?BV4_GenericSweepCB_Old@@YAXAEBVPxVec3@physx@@00MAEBVBV4Tree@Gu@2@PEIBVPxMat44@2@P6A_NPEAX000IAEAM@Z3@Z 00000001800bfea0 f   GuBV4_SphereSweep.obj
 0001:000bf280       ?BV4_SphereSweepSingle@@YAHAEBVSphere@Gu@physx@@AEBVPxVec3@3@MAEBVBV4Tree@23@PEIBVPxMat44@3@PEIAVSweepHit@23@I@Z 00000001800c0280 f   GuBV4_SphereSweep.obj
 0001:000c0540       ?computeSweepData@physx@@YAMAEBVPxTriangleMeshGeometry@1@AEAVPxVec3@1@11M@Z 00000001800c1540 f i GuMidphaseBV4.obj
 0001:000c19e0       ?intersectBoxVsMesh_BV4@Gu@physx@@YA_NAEBVBox@12@AEBVTriangleMesh@12@AEBVPxTransform@2@AEBVPxMeshScale@2@PEAULimitedResults@12@@Z 00000001800c29e0 f   GuMidphaseBV4.obj
 0001:000c2500       ?intersectCapsuleVsMesh_BV4@Gu@physx@@YA_NAEBVCapsule@12@AEBVTriangleMesh@12@AEBVPxTransform@2@AEBVPxMeshScale@2@PEAULimitedResults@12@@Z 00000001800c3500 f   GuMidphaseBV4.obj
 0001:000c2d40       ?intersectOBB_BV4@Gu@physx@@YAXPEBVTriangleMesh@12@AEBVBox@12@AEAU?$MeshHitCallback@UPxRaycastHit@physx@@@12@_N3@Z 00000001800c3d40 f   GuMidphaseBV4.obj
 0001:000c2d60       ?intersectSphereVsMesh_BV4@Gu@physx@@YA_NAEBVSphere@12@AEBVTriangleMesh@12@AEBVPxTransform@2@AEBVPxMeshScale@2@PEAULimitedResults@12@@Z 00000001800c3d60 f   GuMidphaseBV4.obj
 0001:000c34a0       ?raycast_triangleMesh_BV4@Gu@physx@@YAIPEBVTriangleMesh@12@AEBVPxTriangleMeshGeometry@2@AEBVPxTransform@2@AEBVPxVec3@2@3MV?$PxFlags@W4Enum@PxHitFlag@physx@@G@2@IPEIAUPxRaycastHit@2@@Z 00000001800c44a0 f   GuMidphaseBV4.obj
 0001:000c42b0       ?sweepBox_MeshGeom_BV4@Gu@physx@@YA_NPEBVTriangleMesh@12@AEBVPxTriangleMeshGeometry@2@AEBVPxTransform@2@AEBVBox@12@AEBVPxVec3@2@MAEAUPxSweepHit@2@V?$PxFlags@W4Enum@PxHitFlag@physx@@G@2@M@Z 00000001800c52b0 f   GuMidphaseBV4.obj
 0001:000c59d0       ?sweepCapsule_MeshGeom_BV4@Gu@physx@@YA_NPEBVTriangleMesh@12@AEBVPxTriangleMeshGeometry@2@AEBVPxTransform@2@AEBVCapsule@12@AEBVPxVec3@2@MAEAUPxSweepHit@2@V?$PxFlags@W4Enum@PxHitFlag@physx@@G@2@M@Z 00000001800c69d0 f   GuMidphaseBV4.obj
 0001:000c64c0       ?sweepConvex_MeshGeom_BV4@Gu@physx@@YAXPEBVTriangleMesh@12@AEBVBox@12@AEBVPxVec3@2@MAEAUSweepConvexMeshHitCallback@12@_N@Z 00000001800c74c0 f   GuMidphaseBV4.obj
 0001:000c6500       ?transform@PxMeshScale@physx@@QEBA?AVPxVec3@2@AEBV32@@Z 00000001800c7500 f i GuMidphaseBV4.obj
 0001:000c6740       ?findOverlapHeightField@PxMeshQuery@physx@@SAIAEBVPxGeometry@2@AEBVPxTransform@2@AEBVPxHeightFieldGeometry@2@1PEAIIIAEA_N@Z 00000001800c7740 f   GuMeshQuery.obj
 0001:000c6e30       ?findOverlapTriangleMesh@PxMeshQuery@physx@@SAIAEBVPxGeometry@2@AEBVPxTransform@2@AEBVPxTriangleMeshGeometry@2@1PEAIIIAEA_N@Z 00000001800c7e30 f   GuMeshQuery.obj
 0001:000c7140       ?getTriangle@PxMeshQuery@physx@@SAXAEBVPxHeightFieldGeometry@2@AEBVPxTransform@2@IAEAVPxTriangle@2@PEAI3@Z 00000001800c8140 f   GuMeshQuery.obj
 0001:000c71c0       ?getTriangle@PxMeshQuery@physx@@SAXAEBVPxTriangleMeshGeometry@2@AEBVPxTransform@2@IAEAVPxTriangle@2@PEAI3@Z 00000001800c81c0 f   GuMeshQuery.obj
 0001:000c76c0       ?sweep@PxMeshQuery@physx@@SA_NAEBVPxVec3@2@MAEBVPxGeometry@2@AEBVPxTransform@2@IPEBVPxTriangle@2@AEAUPxSweepHit@2@V?$PxFlags@W4Enum@PxHitFlag@physx@@G@2@PEBIM_N@Z 00000001800c86c0 f   GuMeshQuery.obj
 0001:000c7950       ??$collide@$00$00@MeshRayCollider@@SAXAEBVPxVec3@physx@@0M_NPEBVRTreeTriangleMesh@Gu@2@AEAU?$MeshHitCallback@UPxRaycastHit@physx@@@42@PEBV12@@Z 00000001800c8950 f i GuMidphaseRTree.obj
 0001:000c7cd0       ??$collide@$00$0A@@MeshRayCollider@@SAXAEBVPxVec3@physx@@0M_NPEBVRTreeTriangleMesh@Gu@2@AEAU?$MeshHitCallback@UPxRaycastHit@physx@@@42@PEBV12@@Z 00000001800c8cd0 f i GuMidphaseRTree.obj
 0001:000c7f10       ??$collide@$0A@$00@MeshRayCollider@@SAXAEBVPxVec3@physx@@0M_NPEBVRTreeTriangleMesh@Gu@2@AEAU?$MeshHitCallback@UPxRaycastHit@physx@@@42@PEBV12@@Z 00000001800c8f10 f i GuMidphaseRTree.obj
 0001:000ca2d0       ??0?$RayRTreeCallback@$00$0A@@@QEAA@MAEAU?$MeshHitCallback@UPxRaycastHit@physx@@@Gu@physx@@HPEBXPEBVPxVec3@3@AEBV43@3M_N2@Z 00000001800cb2d0 f i GuMidphaseRTree.obj
 0001:000ca400       ??1?$RayRTreeCallback@$00$00@@UEAA@XZ 00000001800cb400 f i GuMidphaseRTree.obj
 0001:000ca490       ??1?$RayRTreeCallback@$0A@$0A@@@UEAA@XZ 00000001800cb490 f i GuMidphaseRTree.obj
 0001:000ca490       ??1?$RayRTreeCallback@$00$0A@@@UEAA@XZ 00000001800cb490 f i GuMidphaseRTree.obj
 0001:000ca520       ??1?$RayRTreeCallback@$0A@$00@@UEAA@XZ 00000001800cb520 f i GuMidphaseRTree.obj
 0001:000ca5a8       ??_E?$RayRTreeCallback@$00$00@@W7EAAPEAXI@Z 00000001800cb5a8 f i GuMidphaseRTree.obj
 0001:000ca5b4       ??_E?$RayRTreeCallback@$00$0A@@@W7EAAPEAXI@Z 00000001800cb5b4 f i GuMidphaseRTree.obj
 0001:000ca5b4       ??_E?$RayRTreeCallback@$0A@$0A@@@W7EAAPEAXI@Z 00000001800cb5b4 f i GuMidphaseRTree.obj
 0001:000ca5c0       ??_E?$RayRTreeCallback@$0A@$00@@W7EAAPEAXI@Z 00000001800cb5c0 f i GuMidphaseRTree.obj
 0001:000ca630       ??_E?$RayRTreeCallback@$00$00@@UEAAPEAXI@Z 00000001800cb630 f i GuMidphaseRTree.obj
 0001:000ca630       ??_G?$RayRTreeCallback@$00$00@@UEAAPEAXI@Z 00000001800cb630 f i GuMidphaseRTree.obj
 0001:000ca670       ??_E?$RayRTreeCallback@$00$0A@@@UEAAPEAXI@Z 00000001800cb670 f i GuMidphaseRTree.obj
 0001:000ca670       ??_G?$RayRTreeCallback@$00$0A@@@UEAAPEAXI@Z 00000001800cb670 f i GuMidphaseRTree.obj
 0001:000ca670       ??_G?$RayRTreeCallback@$0A@$0A@@@UEAAPEAXI@Z 00000001800cb670 f i GuMidphaseRTree.obj
 0001:000ca670       ??_E?$RayRTreeCallback@$0A@$0A@@@UEAAPEAXI@Z 00000001800cb670 f i GuMidphaseRTree.obj
 0001:000ca6b0       ??_G?$RayRTreeCallback@$0A@$00@@UEAAPEAXI@Z 00000001800cb6b0 f i GuMidphaseRTree.obj
 0001:000ca6b0       ??_E?$RayRTreeCallback@$0A@$00@@UEAAPEAXI@Z 00000001800cb6b0 f i GuMidphaseRTree.obj
 0001:000ca6f0       ??_ECallback@RTree@Gu@physx@@UEAAPEAXI@Z 00000001800cb6f0 f i GuMidphaseRTree.obj
 0001:000ca6f0       ??_GCallback@RTree@Gu@physx@@UEAAPEAXI@Z 00000001800cb6f0 f i GuMidphaseRTree.obj
 0001:000ca720       ??_ECallbackRaycast@RTree@Gu@physx@@UEAAPEAXI@Z 00000001800cb720 f i GuMidphaseRTree.obj
 0001:000ca720       ??_GCallbackRefit@RTree@Gu@physx@@UEAAPEAXI@Z 00000001800cb720 f i GuTriangleMeshRTree.obj
 0001:000ca720       ??_ECallbackRefit@RTree@Gu@physx@@UEAAPEAXI@Z 00000001800cb720 f i GuTriangleMeshRTree.obj
 0001:000ca720       ??_GCallbackRaycast@RTree@Gu@physx@@UEAAPEAXI@Z 00000001800cb720 f i GuMidphaseRTree.obj
 0001:000ca750       ??_GRayMeshColliderCallback@@UEAAPEAXI@Z 00000001800cb750 f i GuMidphaseRTree.obj
 0001:000ca750       ??_ERayMeshColliderCallback@@UEAAPEAXI@Z 00000001800cb750 f i GuMidphaseRTree.obj
 0001:000ca780       ?collideOBB@MeshRayCollider@@SAXAEBVBox@Gu@physx@@_NPEBVRTreeTriangleMesh@34@AEAU?$MeshHitCallback@UPxRaycastHit@physx@@@34@1@Z 00000001800cb780 f   GuMidphaseRTree.obj
 0001:000cac50       ?intersectBoxVsMesh_RTREE@Gu@physx@@YA_NAEBVBox@12@AEBVTriangleMesh@12@AEBVPxTransform@2@AEBVPxMeshScale@2@PEAULimitedResults@12@@Z 00000001800cbc50 f   GuMidphaseRTree.obj
 0001:000cacc0       ?intersectCapsuleVsMesh_RTREE@Gu@physx@@YA_NAEBVCapsule@12@AEBVTriangleMesh@12@AEBVPxTransform@2@AEBVPxMeshScale@2@PEAULimitedResults@12@@Z 00000001800cbcc0 f   GuMidphaseRTree.obj
 0001:000cad40       ?intersectOBB_RTREE@Gu@physx@@YAXPEBVTriangleMesh@12@AEBVBox@12@AEAU?$MeshHitCallback@UPxRaycastHit@physx@@@12@_N3@Z 00000001800cbd40 f   GuMidphaseRTree.obj
 0001:000cad70       ?intersectSphereVsMesh_RTREE@Gu@physx@@YA_NAEBVSphere@12@AEBVTriangleMesh@12@AEBVPxTransform@2@AEBVPxMeshScale@2@PEAULimitedResults@12@@Z 00000001800cbd70 f   GuMidphaseRTree.obj
 0001:000cbba0       ?processHit@RayMeshColliderCallback@@UEAA_NAEBUPxRaycastHit@physx@@AEBVPxVec3@3@11AEAMPEBI@Z 00000001800ccba0 f i GuMidphaseRTree.obj
 0001:000cc330       ?processResults@?$RayRTreeCallback@$00$00@@UEAA_NIPEAI@Z 00000001800cd330 f i GuMidphaseRTree.obj
 0001:000cc6e0       ?processResults@?$RayRTreeCallback@$00$00@@UEAA_NIPEAIAEAM@Z 00000001800cd6e0 f i GuMidphaseRTree.obj
 0001:000cca70       ?processResults@?$RayRTreeCallback@$00$0A@@@UEAA_NIPEAI@Z 00000001800cda70 f i GuMidphaseRTree.obj
 0001:000cca70       ?processResults@?$RayRTreeCallback@$0A@$0A@@@UEAA_NIPEAI@Z 00000001800cda70 f i GuMidphaseRTree.obj
 0001:000ccd00       ?processResults@?$RayRTreeCallback@$00$0A@@@UEAA_NIPEAIAEAM@Z 00000001800cdd00 f i GuMidphaseRTree.obj
 0001:000ccd00       ?processResults@?$RayRTreeCallback@$0A@$0A@@@UEAA_NIPEAIAEAM@Z 00000001800cdd00 f i GuMidphaseRTree.obj
 0001:000ccfa0       ?processResults@?$RayRTreeCallback@$0A@$00@@UEAA_NIPEAI@Z 00000001800cdfa0 f i GuMidphaseRTree.obj
 0001:000cd600       ?processResults@?$RayRTreeCallback@$0A@$00@@UEAA_NIPEAIAEAM@Z 00000001800ce600 f i GuMidphaseRTree.obj
 0001:000cdc70       ?raycast_triangleMesh_RTREE@Gu@physx@@YAIPEBVTriangleMesh@12@AEBVPxTriangleMeshGeometry@2@AEBVPxTransform@2@AEBVPxVec3@2@3MV?$PxFlags@W4Enum@PxHitFlag@physx@@G@2@IPEIAUPxRaycastHit@2@@Z 00000001800cec70 f   GuMidphaseRTree.obj
 0001:000ce410       ?sweepBox_MeshGeom_RTREE@Gu@physx@@YA_NPEBVTriangleMesh@12@AEBVPxTriangleMeshGeometry@2@AEBVPxTransform@2@AEBVBox@12@AEBVPxVec3@2@MAEAUPxSweepHit@2@V?$PxFlags@W4Enum@PxHitFlag@physx@@G@2@M@Z 00000001800cf410 f   GuMidphaseRTree.obj
 0001:000cf970       ?sweepCapsule_MeshGeom_RTREE@Gu@physx@@YA_NPEBVTriangleMesh@12@AEBVPxTriangleMeshGeometry@2@AEBVPxTransform@2@AEBVCapsule@12@AEBVPxVec3@2@MAEAUPxSweepHit@2@V?$PxFlags@W4Enum@PxHitFlag@physx@@G@2@M@Z 00000001800d0970 f   GuMidphaseRTree.obj
 0001:000d0170       ?sweepConvex_MeshGeom_RTREE@Gu@physx@@YAXPEBVTriangleMesh@12@AEBVBox@12@AEBVPxVec3@2@MAEAUSweepConvexMeshHitCallback@12@_N@Z 00000001800d1170 f   GuMidphaseRTree.obj
 0001:000d01c0       ??$gjk@U?$RelativeConvex@VTriangleV@Gu@physx@@@Gu@physx@@U?$LocalConvex@VConvexHullV@Gu@physx@@@23@@Gu@physx@@YA?AW4GjkStatus@01@AEBU?$RelativeConvex@VTriangleV@Gu@physx@@@01@AEBU?$LocalConvex@VConvexHullV@Gu@physx@@@01@AEBT__m128@@2AEAT5@333@Z 00000001800d11c0 f i GuOverlapTestsMesh.obj
 0001:000d0eb0       ??0ConvexVsMeshOverlapCallback@@QEAA@AEBVConvexMesh@Gu@physx@@AEBVPxMeshScale@3@AEBVFastVertex2ShapeScaling@Cm@3@AEBVPxTransform@3@3_NAEBVBox@23@@Z 00000001800d1eb0 f i GuOverlapTestsMesh.obj
 0001:000d1720       ??_EConvexVsMeshOverlapCallback@@UEAAPEAXI@Z 00000001800d2720 f i GuOverlapTestsMesh.obj
 0001:000d1720       ??_GConvexVsMeshOverlapCallback@@UEAAPEAXI@Z 00000001800d2720 f i GuOverlapTestsMesh.obj
 0001:000d1750       ?GeomOverlapCallback_BoxMesh@@YA_NAEBVPxGeometry@physx@@AEBVPxTransform@2@01PEAUTriggerCache@Gu@2@@Z 00000001800d2750 f   GuOverlapTestsMesh.obj
 0001:000d1850       ?GeomOverlapCallback_CapsuleMesh@@YA_NAEBVPxGeometry@physx@@AEBVPxTransform@2@01PEAUTriggerCache@Gu@2@@Z 00000001800d2850 f   GuOverlapTestsMesh.obj
 0001:000d1960       ?GeomOverlapCallback_ConvexMesh@@YA_NAEBVPxGeometry@physx@@AEBVPxTransform@2@01PEAUTriggerCache@Gu@2@@Z 00000001800d2960 f   GuOverlapTestsMesh.obj
 0001:000d1f50       ?GeomOverlapCallback_SphereMesh@@YA_NAEBVPxGeometry@physx@@AEBVPxTransform@2@01PEAUTriggerCache@Gu@2@@Z 00000001800d2f50 f   GuOverlapTestsMesh.obj
 0001:000d1fc0       ?checkOverlapAABB_triangleGeom@Gu@physx@@YA_NAEBVPxGeometry@2@AEBVPxTransform@2@AEBVPxBounds3@2@@Z 00000001800d2fc0 f   GuOverlapTestsMesh.obj
 0001:000d20c0       ?processHit@ConvexVsMeshOverlapCallback@@UEAA_NAEBUPxRaycastHit@physx@@AEBVPxVec3@3@11AEAMPEBI@Z 00000001800d30c0 f i GuOverlapTestsMesh.obj
 0001:000d2440       ??0RTree@Gu@physx@@QEAA@W4PxEMPTY@2@@Z 00000001800d3440 f   GuRTree.obj
 0001:000d2450       ?exportExtraData@RTree@Gu@physx@@QEAAXAEAVPxSerializationContext@3@@Z 00000001800d3450 f   GuRTree.obj
 0001:000d2490       ?importExtraData@RTree@Gu@physx@@QEAAXAEAVPxDeserializationContext@3@@Z 00000001800d3490 f   GuRTree.obj
 0001:000d24c0       ?load@RTree@Gu@physx@@QEAA_NAEAVPxInputStream@3@I_N@Z 00000001800d34c0 f   GuRTree.obj
 0001:000d27c0       ?refitAllStaticTree@RTree@Gu@physx@@QEAAXAEAUCallbackRefit@123@PEAVPxBounds3@3@@Z 00000001800d37c0 f   GuRTree.obj
 0001:000d2d20       ?validate@RTree@Gu@physx@@QEAAXPEAUCallbackRefit@123@@Z 00000001800d3d20 f   GuRTree.obj
 0001:000d2e80       ?validateRecursive@RTree@Gu@physx@@IEAAXIURTreeNodeQ@23@PEAURTreePage@23@PEAUCallbackRefit@123@@Z 00000001800d3e80 f   GuRTree.obj
 0001:000d2fb0       ??$traverseRay@$00@RTree@Gu@physx@@QEBAXAEBVPxVec3@2@0IPEAIPEAUCallbackRaycast@012@PEBV32@M@Z 00000001800d3fb0 f i GuRTreeQueries.obj
 0001:000d3350       ??$traverseRay@$0A@@RTree@Gu@physx@@QEBAXAEBVPxVec3@2@0IPEAIPEAUCallbackRaycast@012@PEBV32@M@Z 00000001800d4350 f i GuRTreeQueries.obj
 0001:000d36a0       ?traverseAABB@RTree@Gu@physx@@QEBAXAEBVPxVec3@3@0IPEAIPEAUCallback@123@@Z 00000001800d46a0 f   GuRTreeQueries.obj
 0001:000d3860       ?traverseOBB@RTree@Gu@physx@@QEBAXAEBVBox@23@IPEAIPEAUCallback@123@@Z 00000001800d4860 f   GuRTreeQueries.obj
 0001:000d4140       ??0SweepBoxMeshHitCallback@Gu@physx@@QEAA@W4Enum@CallbackMode@12@AEBVMatrix34Padded@12@M_NAEBVBox@12@AEBVPxVec3@2@44AEBV?$PxFlags@W4Enum@PxHitFlag@physx@@G@2@M2M@Z 00000001800d5140 f   GuSweepsMesh.obj
 0001:000d4250       ??0SweepCapsuleMeshHitCallback@Gu@physx@@QEAA@AEAUPxSweepHit@2@AEBVMatrix34@Cm@2@M_NAEBVCapsule@12@AEBVPxVec3@2@AEBV?$PxFlags@W4Enum@PxHitFlag@physx@@G@2@2M@Z 00000001800d5250 f   GuSweepsMesh.obj
 0001:000d4320       ??0SweepConvexMeshHitCallback@Gu@physx@@QEAA@AEBUConvexHullData@12@AEBVPxMeshScale@2@AEBVFastVertex2ShapeScaling@Cm@2@AEBVPxTransform@2@3AEBVPxVec3@2@MV?$PxFlags@W4Enum@PxHitFlag@physx@@G@2@_NM6M@Z 00000001800d5320 f   GuSweepsMesh.obj
 0001:000d4d00       ??_ESweepBoxMeshHitCallback@Gu@physx@@UEAAPEAXI@Z 00000001800d5d00 f i GuSweepsMesh.obj
 0001:000d4d00       ??_GSweepBoxMeshHitCallback@Gu@physx@@UEAAPEAXI@Z 00000001800d5d00 f i GuSweepsMesh.obj
 0001:000d4d30       ??_GSweepCapsuleMeshHitCallback@Gu@physx@@UEAAPEAXI@Z 00000001800d5d30 f i GuSweepsMesh.obj
 0001:000d4d30       ??_ESweepCapsuleMeshHitCallback@Gu@physx@@UEAAPEAXI@Z 00000001800d5d30 f i GuSweepsMesh.obj
 0001:000d4d60       ??_ESweepConvexMeshHitCallback@Gu@physx@@UEAAPEAXI@Z 00000001800d5d60 f i GuSweepsMesh.obj
 0001:000d4d60       ??_GSweepConvexMeshHitCallback@Gu@physx@@UEAAPEAXI@Z 00000001800d5d60 f i GuSweepsMesh.obj
 0001:000d4d90       ??_GSweepShapeMeshHitCallback@Gu@physx@@UEAAPEAXI@Z 00000001800d5d90 f i GuSweepsMesh.obj
 0001:000d4d90       ??_ESweepShapeMeshHitCallback@Gu@physx@@UEAAPEAXI@Z 00000001800d5d90 f i GuSweepsMesh.obj
 0001:000d4dc0       ?finalizeHit@SweepBoxMeshHitCallback@Gu@physx@@QEBA_NAEAUPxSweepHit@3@AEBVPxTriangleMeshGeometry@3@AEBVPxTransform@3@2AEBVPxVec3@3@_N4@Z 00000001800d5dc0 f   GuSweepsMesh.obj
 0001:000d5490       ?finalizeHit@SweepCapsuleMeshHitCallback@Gu@physx@@QEBA_NAEAUPxSweepHit@3@AEBVCapsule@23@AEBVPxTriangleMeshGeometry@3@AEBVPxTransform@3@_N@Z 00000001800d6490 f   GuSweepsMesh.obj
 0001:000d5620       ?finalizeHit@SweepConvexMeshHitCallback@Gu@physx@@QEAA_NAEAUPxSweepHit@3@AEBVPxTriangleMeshGeometry@3@AEBVPxTransform@3@AEBVPxConvexMeshGeometry@3@2AEBVPxVec3@3@M_N555@Z 00000001800d6620 f   GuSweepsMesh.obj
 0001:000d5b10       ?processHit@SweepBoxMeshHitCallback@Gu@physx@@UEAA_NAEBUPxRaycastHit@3@AEBVPxVec3@3@11AEAMPEBI@Z 00000001800d6b10 f   GuSweepsMesh.obj
 0001:000d6320       ?processHit@SweepCapsuleMeshHitCallback@Gu@physx@@UEAA_NAEBUPxRaycastHit@3@AEBVPxVec3@3@11AEAMPEBI@Z 00000001800d7320 f   GuSweepsMesh.obj
 0001:000d6850       ?processHit@SweepConvexMeshHitCallback@Gu@physx@@UEAA_NAEBUPxRaycastHit@3@AEBVPxVec3@3@11AEAMPEBI@Z 00000001800d7850 f   GuSweepsMesh.obj
 0001:000d6fa0       ?sweepBox_MeshGeom@@YA_NAEBVPxGeometry@physx@@AEBVPxTransform@2@AEBVPxBoxGeometry@2@1AEBVBox@Gu@2@AEBVPxVec3@2@MAEAUPxSweepHit@2@V?$PxFlags@W4Enum@PxHitFlag@physx@@G@2@M@Z 00000001800d7fa0 f   GuSweepsMesh.obj
 0001:000d7030       ?sweepCapsule_MeshGeom@@YA_NAEBVPxGeometry@physx@@AEBVPxTransform@2@AEBVPxCapsuleGeometry@2@1AEBVCapsule@Gu@2@AEBVPxVec3@2@MAEAUPxSweepHit@2@V?$PxFlags@W4Enum@PxHitFlag@physx@@G@2@M@Z 00000001800d8030 f   GuSweepsMesh.obj
 0001:000d70c0       ?sweepConvex_MeshGeom@@YA_NAEBVPxGeometry@physx@@AEBVPxTransform@2@AEBVPxConvexMeshGeometry@2@1AEBVPxVec3@2@MAEAUPxSweepHit@2@V?$PxFlags@W4Enum@PxHitFlag@physx@@G@2@M@Z 00000001800d80c0 f   GuSweepsMesh.obj
 0001:000d7d00       ??0TriangleMesh@Gu@physx@@QEAA@AEAVGuMeshFactory@2@AEAVTriangleMeshData@12@@Z 00000001800d8d00 f   GuTriangleMesh.obj
 0001:000d7e90       ??1TriangleMesh@Gu@physx@@UEAA@XZ 00000001800d8e90 f   GuTriangleMesh.obj
 0001:000d8044       ??_ETriangleMesh@Gu@physx@@WBA@EAAPEAXI@Z 00000001800d9044 f i GuTriangleMesh.obj
 0001:000d8050       ??_GTriangleMesh@Gu@physx@@UEAAPEAXI@Z 00000001800d9050 f i GuTriangleMesh.obj
 0001:000d8050       ??_ETriangleMesh@Gu@physx@@UEAAPEAXI@Z 00000001800d9050 f i GuTriangleMesh.obj
 0001:000d80c0       ?exportExtraData@TriangleMesh@Gu@physx@@UEAAXAEAVPxSerializationContext@3@@Z 00000001800d90c0 f   GuTriangleMesh.obj
 0001:000d8200       ?getLocalBounds@TriangleMesh@Gu@physx@@UEBA?AVPxBounds3@3@XZ 00000001800d9200 f i GuTriangleMesh.obj
 0001:000d8290       ?getNbVertices@TriangleMesh@Gu@physx@@UEBAIXZ 00000001800d9290 f i GuTriangleMesh.obj
 0001:000d82a0       ?getTriangleMaterialIndex@TriangleMesh@Gu@physx@@UEBAGI@Z 00000001800d92a0 f i GuTriangleMesh.obj
 0001:000d82c0       ?getTriangleMeshFlags@TriangleMesh@Gu@physx@@UEBA?AV?$PxFlags@W4Enum@PxTriangleMeshFlag@physx@@E@3@XZ 00000001800d92c0 f i GuTriangleMesh.obj
 0001:000d82d0       ?getTrianglesRemap@TriangleMesh@Gu@physx@@UEBAPEBIXZ 00000001800d92d0 f i GuTriangleMesh.obj
 0001:000d82e0       ?getVertices@TriangleMesh@Gu@physx@@UEBAPEBVPxVec3@3@XZ 00000001800d92e0 f i GuTriangleMesh.obj
 0001:000d82f0       ?getVerticesForModification@TriangleMesh@Gu@physx@@UEAAPEAVPxVec3@3@XZ 00000001800d92f0 f   GuTriangleMesh.obj
 0001:000d8330       ?importExtraData@TriangleMesh@Gu@physx@@QEAAXAEAVPxDeserializationContext@3@@Z 00000001800d9330 f   GuTriangleMesh.obj
 0001:000d8440       ?isKindOf@PxTriangleMesh@physx@@MEBA_NPEBD@Z 00000001800d9440 f i GuTriangleMesh.obj
 0001:000d8490       ?onRefCountZero@TriangleMesh@Gu@physx@@UEAAXXZ 00000001800d9490 f   GuTriangleMesh.obj
 0001:000d8530       ?refitBVH@TriangleMesh@Gu@physx@@UEAA?AVPxBounds3@3@XZ 00000001800d9530 f   GuTriangleMesh.obj
 0001:000d8600       ??0BV4TriangleMesh@Gu@physx@@QEAA@AEAVGuMeshFactory@2@AEAVTriangleMeshData@12@@Z 00000001800d9600 f   GuTriangleMeshBV4.obj
 0001:000d8694       ??_EBV4TriangleMesh@Gu@physx@@WBA@EAAPEAXI@Z 00000001800d9694 f i GuTriangleMeshBV4.obj
 0001:000d86a0       ??_EBV4TriangleMesh@Gu@physx@@UEAAPEAXI@Z 00000001800d96a0 f i GuTriangleMeshBV4.obj
 0001:000d86a0       ??_GBV4TriangleMesh@Gu@physx@@UEAAPEAXI@Z 00000001800d96a0 f i GuTriangleMeshBV4.obj
 0001:000d8730       ?createObject@BV4TriangleMesh@Gu@physx@@SAPEAVTriangleMesh@23@AEAPEAEAEAVPxDeserializationContext@3@@Z 00000001800d9730 f   GuTriangleMeshBV4.obj
 0001:000d8820       ?exportExtraData@BV4TriangleMesh@Gu@physx@@UEAAXAEAVPxSerializationContext@3@@Z 00000001800d9820 f   GuTriangleMeshBV4.obj
 0001:000d8860       ?getConcreteTypeName@BV4TriangleMesh@Gu@physx@@UEBAPEBDXZ 00000001800d9860 f i GuTriangleMeshBV4.obj
 0001:000d8870       ?getMidphaseID@BV4TriangleMesh@Gu@physx@@UEBA?AW4Enum@PxMeshMidPhase@3@XZ 00000001800d9870 f i GuTriangleMeshBV4.obj
 0001:000d8870       ?length@charNode@@UEBAHXZ  00000001800d9870 f i libvcruntime:undname.obj
 0001:000d8870       _get_startup_argv_mode     00000001800d9870 f i LIBCMT:argv_mode.obj
 0001:000d8870       DllMain                    00000001800d9870 f i LIBCMT:dll_dllmain_stub.obj
 0001:000d8870       ?raw_length@charNode@@UEBAHXZ 00000001800d9870 f i libvcruntime:undname.obj
 0001:000d8880       ??0RTreeTriangleMesh@Gu@physx@@QEAA@AEAVGuMeshFactory@2@AEAVTriangleMeshData@12@@Z 00000001800d9880 f   GuTriangleMeshRTree.obj
 0001:000d89f8       ??_ERTreeTriangleMesh@Gu@physx@@WBA@EAAPEAXI@Z 00000001800d99f8 f i GuTriangleMeshRTree.obj
 0001:000d8a10       ??_G?$RefitCallback@I@physx@@UEAAPEAXI@Z 00000001800d9a10 f i GuTriangleMeshRTree.obj
 0001:000d8a10       ??_G?$RefitCallback@G@physx@@UEAAPEAXI@Z 00000001800d9a10 f i GuTriangleMeshRTree.obj
 0001:000d8a10       ??_E?$RefitCallback@G@physx@@UEAAPEAXI@Z 00000001800d9a10 f i GuTriangleMeshRTree.obj
 0001:000d8a10       ??_E?$RefitCallback@I@physx@@UEAAPEAXI@Z 00000001800d9a10 f i GuTriangleMeshRTree.obj
 0001:000d8a40       ??_GRTreeTriangleMesh@Gu@physx@@UEAAPEAXI@Z 00000001800d9a40 f i GuTriangleMeshRTree.obj
 0001:000d8a40       ??_ERTreeTriangleMesh@Gu@physx@@UEAAPEAXI@Z 00000001800d9a40 f i GuTriangleMeshRTree.obj
 0001:000d8b00       ?createObject@RTreeTriangleMesh@Gu@physx@@SAPEAVTriangleMesh@23@AEAPEAEAEAVPxDeserializationContext@3@@Z 00000001800d9b00 f   GuTriangleMeshRTree.obj
 0001:000d8ba0       ?exportExtraData@RTreeTriangleMesh@Gu@physx@@UEAAXAEAVPxSerializationContext@3@@Z 00000001800d9ba0 f   GuTriangleMeshRTree.obj
 0001:000d8be0       ?getConcreteTypeName@RTreeTriangleMesh@Gu@physx@@UEBAPEBDXZ 00000001800d9be0 f i GuTriangleMeshRTree.obj
 0001:000d8bf0       ?getMidphaseID@RTreeTriangleMesh@Gu@physx@@UEBA?AW4Enum@PxMeshMidPhase@3@XZ 00000001800d9bf0 f i GuTriangleMeshRTree.obj
 0001:000d8c00       ?getVerticesForModification@RTreeTriangleMesh@Gu@physx@@UEAAPEAVPxVec3@3@XZ 00000001800d9c00 f   GuTriangleMeshRTree.obj
 0001:000d8c10       ?recomputeBounds@?$RefitCallback@G@physx@@UEAAXIAEAT__m128@@0@Z 00000001800d9c10 f i GuTriangleMeshRTree.obj
 0001:000d8f40       ?recomputeBounds@?$RefitCallback@I@physx@@UEAAXIAEAT__m128@@0@Z 00000001800d9f40 f i GuTriangleMeshRTree.obj
 0001:000d9260       ?refitBVH@RTreeTriangleMesh@Gu@physx@@UEAA?AVPxBounds3@3@XZ 00000001800da260 f   GuTriangleMeshRTree.obj
 0001:000d9480       ??0BV32Tree@Gu@physx@@QEAA@PEAVSourceMesh@12@AEBVPxBounds3@2@@Z 00000001800da480 f   GuBV32.obj
 0001:000d9540       ??0BV32Tree@Gu@physx@@QEAA@XZ 00000001800da540 f   GuBV32.obj
 0001:000d9570       ??1BV32Tree@Gu@physx@@QEAA@XZ 00000001800da570 f   GuBV32.obj
 0001:000d9580       ?calculateLeafNode@BV32Tree@Gu@physx@@QEAAXAEAUBV32Data@23@@Z 00000001800da580 f   GuBV32.obj
 0001:000d97c0       ?createSOAformatNode@BV32Tree@Gu@physx@@QEAAXAEAUBV32DataPacked@23@AEBUBV32Data@23@IAEAI2@Z 00000001800da7c0 f   GuBV32.obj
 0001:000d9c10       ?load@BV32Tree@Gu@physx@@QEAA_NAEAVPxInputStream@3@_N@Z 00000001800dac10 f   GuBV32.obj
 0001:000d9e30       ?release@BV32Tree@Gu@physx@@QEAAXXZ 00000001800dae30 f   GuBV32.obj
 0001:000d9ec0       ??0BV32Node@@QEAA@XZ       00000001800daec0 f i GuBV32Build.obj
 0001:000da1e0       ?BuildBV32Ex@Gu@physx@@YA_NAEAVBV32Tree@12@AEAVSourceMesh@12@MI@Z 00000001800db1e0 f   GuBV32Build.obj
 0001:000dd9b0       ?pcmContactBoxBox@Gu@physx@@YA_NAEBVGeometryUnion@12@0AEBVPxTransform@2@1AEBUNarrowPhaseParams@12@AEAUCache@12@AEAVContactBuffer@12@PEAVRenderOutput@Cm@2@@Z 00000001800de9b0 f   GuPCMContactBoxBox.obj
 0001:000de7c0       ??$gjkPenetration@U?$RelativeConvex@VBoxV@Gu@physx@@@Gu@physx@@U?$LocalConvex@VConvexHullNoScaleV@Gu@physx@@@23@@Gu@physx@@YA?AW4GjkStatus@01@AEBU?$RelativeConvex@VBoxV@Gu@physx@@@01@AEBU?$LocalConvex@VConvexHullNoScaleV@Gu@physx@@@01@AEBT__m128@@2_NPEIAE4AEAEAEAUGjkOutput@01@@Z 00000001800df7c0 f i GuPCMContactBoxConvex.obj
 0001:000e0460       ?pcmContactBoxConvex@Gu@physx@@YA_NAEBVGeometryUnion@12@0AEBVPxTransform@2@1AEBUNarrowPhaseParams@12@AEAUCache@12@AEAVContactBuffer@12@PEAVRenderOutput@Cm@2@@Z 00000001800e1460 f   GuPCMContactBoxConvex.obj
 0001:000e1300       ?support@?$LocalConvex@VConvexHullNoScaleV@Gu@physx@@@Gu@physx@@UEBA?AT__m128@@AEBT4@@Z 00000001800e2300 f i GuPCMContactBoxConvex.obj
 0001:000e1350       ?support@?$LocalConvex@VConvexHullNoScaleV@Gu@physx@@@Gu@physx@@UEBA?AT__m128@@AEBT4@AEAH@Z 00000001800e2350 f i GuPCMContactBoxConvex.obj
 0001:000e13b0       ?supportPoint@?$LocalConvex@VConvexHullNoScaleV@Gu@physx@@@Gu@physx@@UEBA?AT__m128@@H@Z 00000001800e23b0 f i GuPCMContactBoxConvex.obj
 0001:000e13e0       ?pcmContactCapsuleBox@Gu@physx@@YA_NAEBVGeometryUnion@12@0AEBVPxTransform@2@1AEBUNarrowPhaseParams@12@AEAUCache@12@AEAVContactBuffer@12@PEAVRenderOutput@Cm@2@@Z 00000001800e23e0 f   GuPCMContactCapsuleBox.obj
 0001:000e2370       ?pcmContactCapsuleCapsule@Gu@physx@@YA_NAEBVGeometryUnion@12@0AEBVPxTransform@2@1AEBUNarrowPhaseParams@12@AEAUCache@12@AEAVContactBuffer@12@PEAVRenderOutput@Cm@2@@Z 00000001800e3370 f   GuPCMContactCapsuleCapsule.obj
 0001:000e2bf0       ??$gjkPenetration@U?$LocalConvex@VCapsuleV@Gu@physx@@@Gu@physx@@U?$LocalConvex@VConvexHullNoScaleV@Gu@physx@@@23@@Gu@physx@@YA?AW4GjkStatus@01@AEBU?$LocalConvex@VCapsuleV@Gu@physx@@@01@AEBU?$LocalConvex@VConvexHullNoScaleV@Gu@physx@@@01@AEBT__m128@@2_NPEIAE4AEAEAEAUGjkOutput@01@@Z 00000001800e3bf0 f i GuPCMContactCapsuleConvex.obj
 0001:000e4390       ?pcmContactCapsuleConvex@Gu@physx@@YA_NAEBVGeometryUnion@12@0AEBVPxTransform@2@1AEBUNarrowPhaseParams@12@AEAUCache@12@AEAVContactBuffer@12@PEAVRenderOutput@Cm@2@@Z 00000001800e5390 f   GuPCMContactCapsuleConvex.obj
 0001:000e55c0       ??0PCMMeshContactGeneration@Gu@physx@@QEAA@AEBT__m128@@0AEBVPsTransformV@aos@shdfnd@2@1AEAVMultiplePersistentContactManifold@12@AEAVContactBuffer@12@PEAV?$InlineArray@I$0EEA@V?$ReflectionAllocator@I@shdfnd@physx@@@62@PEAVRenderOutput@Cm@2@@Z 00000001800e65c0 f i GuPCMContactCapsuleHeightField.obj
 0001:000e5f00       ??_EPCMCapsuleVsHeightfieldContactGenerationCallback@physx@@UEAAPEAXI@Z 00000001800e6f00 f i GuPCMContactCapsuleHeightField.obj
 0001:000e5f00       ??_GPCMCapsuleVsHeightfieldContactGenerationCallback@physx@@UEAAPEAXI@Z 00000001800e6f00 f i GuPCMContactCapsuleHeightField.obj
 0001:000e5f30       ?onEvent@?$PCMHeightfieldContactGenerationCallback@UPCMCapsuleVsHeightfieldContactGenerationCallback@physx@@@Gu@physx@@UEAA_NIPEAI@Z 00000001800e6f30 f i GuPCMContactCapsuleHeightField.obj
 0001:000e64f0       ?pcmContactCapsuleHeightField@Gu@physx@@YA_NAEBVGeometryUnion@12@0AEBVPxTransform@2@1AEBUNarrowPhaseParams@12@AEAUCache@12@AEAVContactBuffer@12@PEAVRenderOutput@Cm@2@@Z 00000001800e74f0 f   GuPCMContactCapsuleHeightField.obj
 0001:000e7210       ??$processTriangleCache@$0BA@@PCMCapsuleVsMeshContactGenerationCallback@physx@@QEAAXAEAU?$TriangleCache@$0BA@@Gu@1@@Z 00000001800e8210 f i GuPCMContactCapsuleMesh.obj
 0001:000e72a0       ??_GPCMCapsuleVsMeshContactGenerationCallback@physx@@UEAAPEAXI@Z 00000001800e82a0 f i GuPCMContactCapsuleMesh.obj
 0001:000e72a0       ??_EPCMCapsuleVsMeshContactGenerationCallback@physx@@UEAAPEAXI@Z 00000001800e82a0 f i GuPCMContactCapsuleMesh.obj
 0001:000e72d0       ?pcmContactCapsuleMesh@Gu@physx@@YA_NAEBVGeometryUnion@12@0AEBVPxTransform@2@1AEBUNarrowPhaseParams@12@AEAUCache@12@AEAVContactBuffer@12@PEAVRenderOutput@Cm@2@@Z 00000001800e82d0 f   GuPCMContactCapsuleMesh.obj
 0001:000e81e0       ?processHit@?$PCMMeshContactGenerationCallback@UPCMCapsuleVsMeshContactGenerationCallback@physx@@@Gu@physx@@UEAA_NAEBUPxRaycastHit@3@AEBVPxVec3@3@11AEAMPEBI@Z 00000001800e91e0 f i GuPCMContactCapsuleMesh.obj
 0001:000e85a0       ??$sort@USortedTriangle@Gu@physx@@U?$Less@USortedTriangle@Gu@physx@@@shdfnd@3@V?$ReflectionAllocator@USortedTriangle@Gu@physx@@@53@@shdfnd@physx@@YAXPEAUSortedTriangle@Gu@1@IAEBU?$Less@USortedTriangle@Gu@physx@@@01@AEBV?$ReflectionAllocator@USortedTriangle@Gu@physx@@@01@I@Z 00000001800e95a0 f i GuPCMContactConvexCommon.obj
 0001:000e8a30       ?addContactsToPatch@PCMConvexVsMeshContactGeneration@Gu@physx@@QEAAXAEBT__m128@@I@Z 00000001800e9a30 f   GuPCMContactConvexCommon.obj
 0001:000e9360       ?addToPatch@PCMSphereVsMeshContactGeneration@Gu@physx@@QEAAXAEBT__m128@@0T4@I@Z 00000001800ea360 f   GuPCMContactConvexCommon.obj
 0001:000e9a00       ?allocate@?$ReflectionAllocator@USortedTriangle@Gu@physx@@@shdfnd@physx@@QEAAPEAX_KPEBDH@Z 00000001800eaa00 f i GuPCMContactConvexCommon.obj
 0001:000e9aa0       ?doSupport@?$SupportLocalImpl@VTriangleV@Gu@physx@@@Gu@physx@@UEBA?AT__m128@@AEBT4@@Z 00000001800eaaa0 f i GuPCMContactConvexCommon.obj
 0001:000e9b30       ?doSupport@?$SupportLocalImpl@VTriangleV@Gu@physx@@@Gu@physx@@UEBAXAEBT__m128@@AEAT4@1@Z 00000001800eab30 f i GuPCMContactConvexCommon.obj
 0001:000e9bb0       ?generateContacts@PCMCapsuleVsMeshContactGeneration@Gu@physx@@SA_NAEBT__m128@@0000I000PEAVMeshPersistentContact@23@AEAI@Z 00000001800eabb0 f   GuPCMContactConvexCommon.obj
 0001:000ea040       ?generateEE@PCMCapsuleVsMeshContactGeneration@Gu@physx@@QEAAXAEBT__m128@@000I00PEAVMeshPersistentContact@23@AEAI@Z 00000001800eb040 f   GuPCMContactConvexCommon.obj
 0001:000ea2d0       ?generateEEMTD@PCMCapsuleVsMeshContactGeneration@Gu@physx@@SAXAEBT__m128@@000I00PEAVMeshPersistentContact@23@AEAI@Z 00000001800eb2d0 f   GuPCMContactConvexCommon.obj
 0001:000ea520       ?generateLastContacts@PCMConvexVsMeshContactGeneration@Gu@physx@@QEAAXXZ 00000001800eb520 f   GuPCMContactConvexCommon.obj
 0001:000eaa60       ?generateLastContacts@PCMSphereVsMeshContactGeneration@Gu@physx@@QEAAXXZ 00000001800eba60 f   GuPCMContactConvexCommon.obj
 0001:000eaed0       ?growAndPushBack@?$Array@USortedTriangle@Gu@physx@@V?$InlineAllocator@$0IAA@V?$ReflectionAllocator@USortedTriangle@Gu@physx@@@shdfnd@physx@@@shdfnd@3@@shdfnd@physx@@IEAAAEAUSortedTriangle@Gu@3@AEBU453@@Z 00000001800ebed0 f i GuPCMContactConvexCommon.obj
 0001:000eb550       ?pcmDistanceSegmentTriangleSquared@Gu@physx@@YA?AT__m128@@AEBT3@0000AEAT3@11@Z 00000001800ec550 f   GuPCMContactConvexCommon.obj
 0001:000ebe90       ?populateVerts@?$SupportLocalImpl@VTriangleV@Gu@physx@@@Gu@physx@@UEBAXPEBEIPEBVPxVec3@3@PEAT__m128@@@Z 00000001800ece90 f i GuPCMContactConvexCommon.obj
 0001:000ebfd0       ?processTriangle@PCMCapsuleVsMeshContactGeneration@Gu@physx@@QEAA_NPEBVPxVec3@3@IEPEBI@Z 00000001800ecfd0 f   GuPCMContactConvexCommon.obj
 0001:000ecb70       ?processTriangle@PCMCapsuleVsMeshContactGeneration@Gu@physx@@SA_NAEBVTriangleV@23@IAEBVCapsuleV@23@AEBT__m128@@EPEAVMeshPersistentContact@23@AEAI@Z 00000001800edb70 f   GuPCMContactConvexCommon.obj
 0001:000eceb0       ?processTriangle@PCMConvexVsMeshContactGeneration@Gu@physx@@QEAA_NPEBVPxVec3@3@IEPEBI@Z 00000001800edeb0 f   GuPCMContactConvexCommon.obj
 0001:000ed440       ?processTriangle@PCMConvexVsMeshContactGeneration@Gu@physx@@SA_NAEBUPolygonalData@23@PEAVSupportLocal@23@PEBVPxVec3@3@IEAEBT__m128@@_NAEBVPsTransformV@aos@shdfnd@3@AEBVPsMatTransformV@9shdfnd@3@PEAVMeshPersistentContact@23@AEAI@Z 00000001800ee440 f   GuPCMContactConvexCommon.obj
 0001:000ed6e0       ?processTriangle@PCMSphereVsMeshContactGeneration@Gu@physx@@QEAA_NPEBVPxVec3@3@IEPEBI@Z 00000001800ee6e0 f   GuPCMContactConvexCommon.obj
 0001:000edaf0       ??$gjkPenetration@U?$RelativeConvex@VConvexHullNoScaleV@Gu@physx@@@Gu@physx@@U?$LocalConvex@VConvexHullNoScaleV@Gu@physx@@@23@@Gu@physx@@YA?AW4GjkStatus@01@AEBU?$RelativeConvex@VConvexHullNoScaleV@Gu@physx@@@01@AEBU?$LocalConvex@VConvexHullNoScaleV@Gu@physx@@@01@AEBT__m128@@2_NPEIAE4AEAEAEAUGjkOutput@01@@Z 00000001800eeaf0 f i GuPCMContactConvexConvex.obj
 0001:000ef0a0       ??$gjkPenetration@U?$RelativeConvex@VConvexHullNoScaleV@Gu@physx@@@Gu@physx@@U?$LocalConvex@VConvexHullV@Gu@physx@@@23@@Gu@physx@@YA?AW4GjkStatus@01@AEBU?$RelativeConvex@VConvexHullNoScaleV@Gu@physx@@@01@AEBU?$LocalConvex@VConvexHullV@Gu@physx@@@01@AEBT__m128@@2_NPEIAE4AEAEAEAUGjkOutput@01@@Z 00000001800f00a0 f i GuPCMContactConvexConvex.obj
 0001:000f06e0       ??$gjkPenetration@U?$RelativeConvex@VConvexHullV@Gu@physx@@@Gu@physx@@U?$LocalConvex@VConvexHullNoScaleV@Gu@physx@@@23@@Gu@physx@@YA?AW4GjkStatus@01@AEBU?$RelativeConvex@VConvexHullV@Gu@physx@@@01@AEBU?$LocalConvex@VConvexHullNoScaleV@Gu@physx@@@01@AEBT__m128@@2_NPEIAE4AEAEAEAUGjkOutput@01@@Z 00000001800f16e0 f i GuPCMContactConvexConvex.obj
 0001:000f2710       ?pcmContactConvexConvex@Gu@physx@@YA_NAEBVGeometryUnion@12@0AEBVPxTransform@2@1AEBUNarrowPhaseParams@12@AEAUCache@12@AEAVContactBuffer@12@PEAVRenderOutput@Cm@2@@Z 00000001800f3710 f   GuPCMContactConvexConvex.obj
 0001:000f3870       ?support@?$RelativeConvex@VConvexHullNoScaleV@Gu@physx@@@Gu@physx@@UEBA?AT__m128@@AEBT4@@Z 00000001800f4870 f i GuPCMContactConvexConvex.obj
 0001:000f3920       ?support@?$RelativeConvex@VConvexHullNoScaleV@Gu@physx@@@Gu@physx@@UEBA?AT__m128@@AEBT4@AEAH@Z 00000001800f4920 f i GuPCMContactConvexConvex.obj
 0001:000f39e0       ?supportPoint@?$RelativeConvex@VConvexHullNoScaleV@Gu@physx@@@Gu@physx@@UEBA?AT__m128@@H@Z 00000001800f49e0 f i GuPCMContactConvexConvex.obj
 0001:000f3a40       ??_GPCMConvexVsHeightfieldContactGenerationCallback@physx@@UEAAPEAXI@Z 00000001800f4a40 f i GuPCMContactConvexHeightField.obj
 0001:000f3a40       ??_EPCMConvexVsHeightfieldContactGenerationCallback@physx@@UEAAPEAXI@Z 00000001800f4a40 f i GuPCMContactConvexHeightField.obj
 0001:000f3a70       ?PCMContactConvexHeightfield@Gu@physx@@YA_NAEBUPolygonalData@12@PEAVSupportLocal@12@AEBT__m128@@AEBVPxBounds3@2@AEBVPxHeightFieldGeometry@2@AEBVPxTransform@2@5MAEAVContactBuffer@12@AEBVFastVertex2ShapeScaling@Cm@2@_NAEAVMultiplePersistentContactManifold@12@PEAVRenderOutput@Cm@2@@Z 00000001800f4a70 f   GuPCMContactConvexHeightField.obj
 0001:000f4520       ?onEvent@?$PCMHeightfieldContactGenerationCallback@UPCMConvexVsHeightfieldContactGenerationCallback@physx@@@Gu@physx@@UEAA_NIPEAI@Z 00000001800f5520 f i GuPCMContactConvexHeightField.obj
 0001:000f4ae0       ?pcmContactBoxHeightField@Gu@physx@@YA_NAEBVGeometryUnion@12@0AEBVPxTransform@2@1AEBUNarrowPhaseParams@12@AEAUCache@12@AEAVContactBuffer@12@PEAVRenderOutput@Cm@2@@Z 00000001800f5ae0 f   GuPCMContactConvexHeightField.obj
 0001:000f4d80       ?pcmContactConvexHeightField@Gu@physx@@YA_NAEBVGeometryUnion@12@0AEBVPxTransform@2@1AEBUNarrowPhaseParams@12@AEAUCache@12@AEAVContactBuffer@12@PEAVRenderOutput@Cm@2@@Z 00000001800f5d80 f   GuPCMContactConvexHeightField.obj
 0001:000f5470       ??$processTriangleCache@$0BA@@PCMConvexVsMeshContactGenerationCallback@physx@@QEAAXAEAU?$TriangleCache@$0BA@@Gu@1@@Z 00000001800f6470 f i GuPCMContactConvexMesh.obj
 0001:000f5500       ??_EPCMConvexVsMeshContactGenerationCallback@physx@@UEAAPEAXI@Z 00000001800f6500 f i GuPCMContactConvexMesh.obj
 0001:000f5500       ??_GPCMConvexVsMeshContactGenerationCallback@physx@@UEAAPEAXI@Z 00000001800f6500 f i GuPCMContactConvexMesh.obj
 0001:000f5530       ?PCMContactConvexMesh@Gu@physx@@YA_NAEBUPolygonalData@12@PEAVSupportLocal@12@AEBT__m128@@AEBVPxBounds3@2@AEBUPxTriangleMeshGeometryLL@2@AEBVPxTransform@2@5MAEAVContactBuffer@12@AEBVFastVertex2ShapeScaling@Cm@2@7_N8AEAVMultiplePersistentContactManifold@12@PEAVRenderOutput@Cm@2@@Z 00000001800f6530 f   GuPCMContactConvexMesh.obj
 0001:000f60e0       ?pcmContactBoxMesh@Gu@physx@@YA_NAEBVGeometryUnion@12@0AEBVPxTransform@2@1AEBUNarrowPhaseParams@12@AEAUCache@12@AEAVContactBuffer@12@PEAVRenderOutput@Cm@2@@Z 00000001800f70e0 f   GuPCMContactConvexMesh.obj
 0001:000f6420       ?pcmContactConvexMesh@Gu@physx@@YA_NAEBVGeometryUnion@12@0AEBVPxTransform@2@1AEBUNarrowPhaseParams@12@AEAUCache@12@AEAVContactBuffer@12@PEAVRenderOutput@Cm@2@@Z 00000001800f7420 f   GuPCMContactConvexMesh.obj
 0001:000f6bf0       ?processHit@?$PCMMeshContactGenerationCallback@UPCMConvexVsMeshContactGenerationCallback@physx@@@Gu@physx@@UEAA_NAEBUPxRaycastHit@3@AEBVPxVec3@3@11AEAMPEBI@Z 00000001800f7bf0 f i GuPCMContactConvexMesh.obj
 0001:000f7020       ?addGJKEPAContacts@Gu@physx@@YA_NPEBUGjkConvex@12@0AEBVPsMatTransformV@aos@shdfnd@2@W4GjkStatus@12@PEAVPersistentContact@12@T__m128@@4AEAUGjkOutput@12@AEAVPersistentContactManifold@12@@Z 00000001800f8020 f   GuPCMContactGenBoxConvex.obj
 0001:000f7220       ?buildPartialHull@Gu@physx@@YAXAEBUPolygonalData@12@PEAVSupportLocal@12@AEAVSeparatingAxes@12@AEBT__m128@@3@Z 00000001800f8220 f   GuPCMContactGenBoxConvex.obj
 0001:000f74e0       ?computeMTD@Gu@physx@@YA_NAEAUPolygonalData@12@0PEAVSupportLocal@12@1AEAT__m128@@2@Z 00000001800f84e0 f   GuPCMContactGenBoxConvex.obj
 0001:000f7b40       ?generateFullContactManifold@Gu@physx@@YA_NAEAUPolygonalData@12@0PEAVSupportLocal@12@1PEAVPersistentContact@12@AEAIAEBT__m128@@444MM_NPEAVRenderOutput@Cm@2@M@Z 00000001800f8b40 f   GuPCMContactGenBoxConvex.obj
 0001:000f9380       ?generatedContacts@Gu@physx@@YAXAEAUPolygonalData@12@0AEBUHullPolygonData@12@1PEAVSupportLocal@12@2AEBVPsMatTransformV@aos@shdfnd@2@PEAVPersistentContact@12@AEAIAEBT__m128@@PEAVRenderOutput@Cm@2@@Z 00000001800fa380 f   GuPCMContactGenBoxConvex.obj
 0001:000faaa0       ?computeMTD@Gu@physx@@YA_NAEBVCapsuleV@12@AEAUPolygonalData@12@PEAVSupportLocal@12@AEAT__m128@@3@Z 00000001800fbaa0 f   GuPCMContactGenSphereCapsule.obj
 0001:000fab90       ?generateCapsuleBoxFullContactManifold@Gu@physx@@YA_NAEBVCapsuleV@12@AEAUPolygonalData@12@PEAVSupportLocal@12@AEBVPsMatTransformV@aos@shdfnd@2@PEAVPersistentContact@12@AEAIAEBT__m128@@AEAT__m128@@6M_NMPEAVRenderOutput@Cm@2@@Z 00000001800fbb90 f   GuPCMContactGenSphereCapsule.obj
 0001:000fb420       ?generateFullContactManifold@Gu@physx@@YA_NAEBVCapsuleV@12@AEAUPolygonalData@12@PEAVSupportLocal@12@AEBVPsMatTransformV@aos@shdfnd@2@PEAVPersistentContact@12@AEAIAEBT__m128@@AEAT__m128@@6M_NM@Z 00000001800fc420 f   GuPCMContactGenSphereCapsule.obj
 0001:000fbd30       ?generateSphereFullContactManifold@Gu@physx@@YA_NAEBVCapsuleV@12@AEAUPolygonalData@12@PEAVSupportLocal@12@PEAVPersistentContact@12@AEAIAEBT__m128@@AEAT7@_N@Z 00000001800fcd30 f   GuPCMContactGenSphereCapsule.obj
 0001:000fc1b0       ?generatedCapsuleBoxFaceContacts@Gu@physx@@YAXAEBVCapsuleV@12@AEAUPolygonalData@12@AEBUHullPolygonData@12@PEAVSupportLocal@12@AEBVPsMatTransformV@aos@shdfnd@2@PEAVPersistentContact@12@AEAIAEBT__m128@@7@Z 00000001800fd1b0 f   GuPCMContactGenSphereCapsule.obj
 0001:000fc950       ?generatedContactsEEContacts@Gu@physx@@YAXAEBVCapsuleV@12@AEAUPolygonalData@12@AEBUHullPolygonData@12@PEAVSupportLocal@12@AEBVPsMatTransformV@aos@shdfnd@2@PEAVPersistentContact@12@AEAIAEBT__m128@@7@Z 00000001800fd950 f   GuPCMContactGenSphereCapsule.obj
 0001:000fd610       ?pcmContactPlaneBox@Gu@physx@@YA_NAEBVGeometryUnion@12@0AEBVPxTransform@2@1AEBUNarrowPhaseParams@12@AEAUCache@12@AEAVContactBuffer@12@PEAVRenderOutput@Cm@2@@Z 00000001800fe610 f   GuPCMContactPlaneBox.obj
 0001:000fe220       ?pcmContactPlaneCapsule@Gu@physx@@YA_NAEBVGeometryUnion@12@0AEBVPxTransform@2@1AEBUNarrowPhaseParams@12@AEAUCache@12@AEAVContactBuffer@12@PEAVRenderOutput@Cm@2@@Z 00000001800ff220 f   GuPCMContactPlaneCapsule.obj
 0001:000fe9e0       ?pcmContactPlaneConvex@Gu@physx@@YA_NAEBVGeometryUnion@12@0AEBVPxTransform@2@1AEBUNarrowPhaseParams@12@AEAUCache@12@AEAVContactBuffer@12@PEAVRenderOutput@Cm@2@@Z 00000001800ff9e0 f   GuPCMContactPlaneConvex.obj
 0001:000ff370       ?pcmContactSphereBox@Gu@physx@@YA_NAEBVGeometryUnion@12@0AEBVPxTransform@2@1AEBUNarrowPhaseParams@12@AEAUCache@12@AEAVContactBuffer@12@PEAVRenderOutput@Cm@2@@Z 0000000180100370 f   GuPCMContactSphereBox.obj
 0001:000ff7c0       ?pcmContactSphereCapsule@Gu@physx@@YA_NAEBVGeometryUnion@12@0AEBVPxTransform@2@1AEBUNarrowPhaseParams@12@AEAUCache@12@AEAVContactBuffer@12@PEAVRenderOutput@Cm@2@@Z 00000001801007c0 f   GuPCMContactSphereCapsule.obj
 0001:000ffc20       ?pcmContactSphereConvex@Gu@physx@@YA_NAEBVGeometryUnion@12@0AEBVPxTransform@2@1AEBUNarrowPhaseParams@12@AEAUCache@12@AEAVContactBuffer@12@PEAVRenderOutput@Cm@2@@Z 0000000180100c20 f   GuPCMContactSphereConvex.obj
 0001:00100950       ??1?$Array@USortedTriangle@Gu@physx@@V?$InlineAllocator@$0IAA@V?$ReflectionAllocator@USortedTriangle@Gu@physx@@@shdfnd@physx@@@shdfnd@3@@shdfnd@physx@@QEAA@XZ 0000000180101950 f i GuPCMContactSphereHeightField.obj
 0001:001009c0       ??_GPCMSphereVsHeightfieldContactGenerationCallback@physx@@UEAAPEAXI@Z 00000001801019c0 f i GuPCMContactSphereHeightField.obj
 0001:001009c0       ??_EPCMSphereVsHeightfieldContactGenerationCallback@physx@@UEAAPEAXI@Z 00000001801019c0 f i GuPCMContactSphereHeightField.obj
 0001:00100a10       ?onEvent@?$PCMHeightfieldContactGenerationCallback@UPCMSphereVsHeightfieldContactGenerationCallback@physx@@@Gu@physx@@UEAA_NIPEAI@Z 0000000180101a10 f i GuPCMContactSphereHeightField.obj
 0001:00100fd0       ?pcmContactSphereHeightField@Gu@physx@@YA_NAEBVGeometryUnion@12@0AEBVPxTransform@2@1AEBUNarrowPhaseParams@12@AEAUCache@12@AEAVContactBuffer@12@PEAVRenderOutput@Cm@2@@Z 0000000180101fd0 f   GuPCMContactSphereHeightField.obj
 0001:00101a70       ??$processTriangleCache@$0BA@@PCMSphereVsMeshContactGenerationCallback@physx@@QEAAXAEAU?$TriangleCache@$0BA@@Gu@1@@Z 0000000180102a70 f i GuPCMContactSphereMesh.obj
 0001:00101b00       ??_GPCMSphereVsMeshContactGenerationCallback@physx@@UEAAPEAXI@Z 0000000180102b00 f i GuPCMContactSphereMesh.obj
 0001:00101b00       ??_EPCMSphereVsMeshContactGenerationCallback@physx@@UEAAPEAXI@Z 0000000180102b00 f i GuPCMContactSphereMesh.obj
 0001:00101b50       ?pcmContactSphereMesh@Gu@physx@@YA_NAEBVGeometryUnion@12@0AEBVPxTransform@2@1AEBUNarrowPhaseParams@12@AEAUCache@12@AEAVContactBuffer@12@PEAVRenderOutput@Cm@2@@Z 0000000180102b50 f   GuPCMContactSphereMesh.obj
 0001:00102740       ?processHit@?$PCMMeshContactGenerationCallback@UPCMSphereVsMeshContactGenerationCallback@physx@@@Gu@physx@@UEAA_NAEBUPxRaycastHit@3@AEBVPxVec3@3@11AEAMPEBI@Z 0000000180103740 f i GuPCMContactSphereMesh.obj
 0001:00102b00       ?pcmContactSpherePlane@Gu@physx@@YA_NAEBVGeometryUnion@12@0AEBVPxTransform@2@1AEBUNarrowPhaseParams@12@AEAUCache@12@AEAVContactBuffer@12@PEAVRenderOutput@Cm@2@@Z 0000000180103b00 f   GuPCMContactSpherePlane.obj
 0001:00102c90       ?pcmContactSphereSphere@Gu@physx@@YA_NAEBVGeometryUnion@12@0AEBVPxTransform@2@1AEBUNarrowPhaseParams@12@AEAUCache@12@AEAVContactBuffer@12@PEAVRenderOutput@Cm@2@@Z 0000000180103c90 f   GuPCMContactSphereSphere.obj
 0001:00102d80       ?getPCMConvexData@Gu@physx@@YAXAEBVConvexHullV@12@_NAEAUPolygonalData@12@@Z 0000000180103d80 f   GuPCMShapeConvex.obj
 0001:00102ee0       ?getPCMConvexData@Gu@physx@@YA_NAEBVGeometryUnion@12@AEAVFastVertex2ShapeScaling@Cm@2@AEAVPxBounds3@2@AEAUPolygonalData@12@@Z 0000000180103ee0 f   GuPCMShapeConvex.obj
 0001:001032a0       ?getPolygonalData@PCMPolygonalBox@Gu@physx@@QEBAXPEIAUPolygonalData@23@@Z 00000001801042a0 f   GuPCMShapeConvex.obj
 0001:001032f0       ?generatePolyDataContactManifold@PCMConvexVsMeshContactGeneration@Gu@physx@@QEAA_NAEAVTriangleV@23@IIEPEAVMeshPersistentContact@23@AEAIAEBT__m128@@AEAT6@@Z 00000001801042f0 f   GuPCMTriangleContactGen.obj
 0001:00103420       ?generateTriangleFullContactManifold@PCMConvexVsMeshContactGeneration@Gu@physx@@QEAA_NAEAVTriangleV@23@IPEBIEAEBUPolygonalData@23@PEAV?$SupportLocalImpl@VTriangleV@Gu@physx@@@23@PEAVSupportLocal@23@PEAVMeshPersistentContact@23@AEAIAEBT__m128@@AEAT9@@Z 0000000180104420 f   GuPCMTriangleContactGen.obj
 0001:00103d40       ?generateTriangleFullContactManifold@PCMConvexVsMeshContactGeneration@Gu@physx@@SA_NAEAVTriangleV@23@IEAEBUPolygonalData@23@PEAV?$SupportLocalImpl@VTriangleV@Gu@physx@@@23@PEAVSupportLocal@23@PEAVMeshPersistentContact@23@AEAIAEBT__m128@@AEAT9@PEAVRenderOutput@Cm@3@@Z 0000000180104d40 f   GuPCMTriangleContactGen.obj
 0001:00106470       ?addBatchManifoldContacts2@PersistentContactManifold@Gu@physx@@QEAAXPEBVPersistentContact@23@I@Z 0000000180107470 f   GuPersistentContactManifold.obj
 0001:001064e0       ?addBatchManifoldContacts@PersistentContactManifold@Gu@physx@@QEAAXPEBVPersistentContact@23@IM@Z 00000001801074e0 f   GuPersistentContactManifold.obj
 0001:00106560       ?addBatchManifoldContactsCluster@PersistentContactManifold@Gu@physx@@QEAAXPEBVPersistentContact@23@I@Z 0000000180107560 f   GuPersistentContactManifold.obj
 0001:001067e0       ?addManifoldContactPoints@MultiplePersistentContactManifold@Gu@physx@@QEAAXPEAVMeshPersistentContact@23@IPEAPEAUPCMContactPatch@23@IAEBT__m128@@2E@Z 00000001801077e0 f   GuPersistentContactManifold.obj
 0001:00106bf0       ?addManifoldContactsToContactBuffer@MultiplePersistentContactManifold@Gu@physx@@QEAA_NAEAVContactBuffer@23@AEBVPsTransformV@aos@shdfnd@3@1AEBT__m128@@@Z 0000000180107bf0 f   GuPersistentContactManifold.obj
 0001:00106ea0       ?addManifoldContactsToContactBuffer@MultiplePersistentContactManifold@Gu@physx@@QEAA_NAEAVContactBuffer@23@AEBVPsTransformV@aos@shdfnd@3@@Z 0000000180107ea0 f   GuPersistentContactManifold.obj
 0001:00107110       ?addManifoldContactsToContactBuffer@PersistentContactManifold@Gu@physx@@QEAAXAEAVContactBuffer@23@AEBT__m128@@1AEBVPsTransformV@aos@shdfnd@3@11@Z 0000000180108110 f   GuPersistentContactManifold.obj
 0001:001072b0       ?addManifoldContactsToContactBuffer@PersistentContactManifold@Gu@physx@@QEAAXAEAVContactBuffer@23@AEBT__m128@@AEBVPsMatTransformV@aos@shdfnd@3@@Z 00000001801082b0 f   GuPersistentContactManifold.obj
 0001:00107350       ?addManifoldContactsToContactBuffer@PersistentContactManifold@Gu@physx@@QEAAXAEAVContactBuffer@23@AEBT__m128@@AEBVPsTransformV@aos@shdfnd@3@1@Z 0000000180108350 f   GuPersistentContactManifold.obj
 0001:001074b0       ?addManifoldPoint2@PersistentContactManifold@Gu@physx@@QEAAIAEBT__m128@@000@Z 00000001801084b0 f   GuPersistentContactManifold.obj
 0001:001075e0       ?addManifoldPoint@Gu@physx@@YAXPEAVPersistentContact@12@AEAVPersistentContactManifold@12@AEAUGjkOutput@12@AEBVPsMatTransformV@aos@shdfnd@2@T__m128@@@Z 00000001801085e0 f   GuPersistentContactManifold.obj
 0001:00107790       ?addManifoldPoint@PersistentContactManifold@Gu@physx@@QEAAIAEBT__m128@@000@Z 0000000180108790 f   GuPersistentContactManifold.obj
 0001:00107bc0       ?drawLine@MultiplePersistentContactManifold@Gu@physx@@SAXAEAVRenderOutput@Cm@3@AEBT__m128@@1I@Z 0000000180108bc0 f   GuPersistentContactManifold.obj
 0001:00107c80       ?drawLine@MultiplePersistentContactManifold@Gu@physx@@SAXAEAVRenderOutput@Cm@3@VPxVec3@3@1I@Z 0000000180108c80 f   GuPersistentContactManifold.obj
 0001:00107d40       ?drawManifold@MultiplePersistentContactManifold@Gu@physx@@QEAAXAEAVRenderOutput@Cm@3@AEBVPsTransformV@aos@shdfnd@3@1@Z 0000000180108d40 f   GuPersistentContactManifold.obj
 0001:001084f0       ?drawPoint@MultiplePersistentContactManifold@Gu@physx@@SAXAEAVRenderOutput@Cm@3@AEBT__m128@@MI@Z 00000001801094f0 f   GuPersistentContactManifold.obj
 0001:001086d0       ?drawPolygon@MultiplePersistentContactManifold@Gu@physx@@SAXAEAVRenderOutput@Cm@3@AEBVPsTransformV@aos@shdfnd@3@PEAT__m128@@II@Z 00000001801096d0 f   GuPersistentContactManifold.obj
 0001:00108940       ?findRotationMatrixFromZAxis@Gu@physx@@YA?AUMat33V@aos@shdfnd@2@AEBT__m128@@@Z 0000000180109940 f   GuPersistentContactManifold.obj
 0001:00108c10       ?fromBuffer@MultiplePersistentContactManifold@Gu@physx@@QEAAXPEIAE@Z 0000000180109c10 f   GuPersistentContactManifold.obj
 0001:00108d60       ?reduceBatchContacts2@PersistentContactManifold@Gu@physx@@QEAAXPEBVPersistentContact@23@I@Z 0000000180109d60 f   GuPersistentContactManifold.obj
 0001:00108f60       ?reduceBatchContacts@PersistentContactManifold@Gu@physx@@QEAAXPEBVPersistentContact@23@IM@Z 0000000180109f60 f   GuPersistentContactManifold.obj
 0001:00109420       ?reduceBatchContactsCapsule@SinglePersistentContactManifold@Gu@physx@@QEAA?AT__m128@@PEBVMeshPersistentContact@23@IAEAUPCMContactPatch@23@@Z 000000018010a420 f   GuPersistentContactManifold.obj
 0001:001096b0       ?reduceBatchContactsCluster@PersistentContactManifold@Gu@physx@@QEAAXPEBVPersistentContact@23@I@Z 000000018010a6b0 f   GuPersistentContactManifold.obj
 0001:00109b50       ?reduceBatchContactsConvex@SinglePersistentContactManifold@Gu@physx@@QEAA?AT__m128@@PEBVMeshPersistentContact@23@IAEAUPCMContactPatch@23@@Z 000000018010ab50 f   GuPersistentContactManifold.obj
 0001:0010a150       ?reduceContacts@SinglePersistentContactManifold@Gu@physx@@SAIPEAVMeshPersistentContact@23@I@Z 000000018010b150 f   GuPersistentContactManifold.obj
 0001:0010a660       ?reduceContactsForPCM@PersistentContactManifold@Gu@physx@@QEAAIAEBT__m128@@00@Z 000000018010b660 f   GuPersistentContactManifold.obj
 0001:0010ac00       ?refreshContactPoints@SinglePersistentContactManifold@Gu@physx@@QEAA?AT__m128@@AEBVPsMatTransformV@aos@shdfnd@3@AEBT4@1@Z 000000018010bc00 f   GuPersistentContactManifold.obj
 0001:0010ad50       ?replaceManifoldPoint@PersistentContactManifold@Gu@physx@@QEAA_NAEBT__m128@@000@Z 000000018010bd50 f   GuPersistentContactManifold.obj
 0001:0010ae20       ?sweepBoxBox@Gu@physx@@YA_NAEBVBox@12@0AEBVPxVec3@2@MV?$PxFlags@W4Enum@PxHitFlag@physx@@G@2@AEAUPxSweepHit@2@@Z 000000018010be20 f   GuSweepBoxBox.obj
 0001:0010c420       ?sweepBoxSphere@Gu@physx@@YA_NAEBVBox@12@MAEBVPxVec3@2@1MAEAMAEAV42@V?$PxFlags@W4Enum@PxHitFlag@physx@@G@2@@Z 000000018010d420 f   GuSweepBoxSphere.obj
 0001:0010d060       ?sweepBoxTriangle@Gu@physx@@YA_NAEBVPxTriangle@2@AEBVPxBounds3@2@AEBVPxVec3@2@2AEAV52@3AEAM_N@Z 000000018010e060 f   GuSweepBoxTriangle_FeatureBased.obj
 0001:0010e700       ?triBoxSweepTestBoxSpace@Gu@physx@@YAHAEBVPxTriangle@2@AEBVPxVec3@2@11MAEAM_N@Z 000000018010f700 f   GuSweepBoxTriangle_SAT.obj
 0001:00110010       ?sweepCapsuleBox@Gu@physx@@YA_NAEBVCapsule@12@AEBVPxTransform@2@AEBVPxVec3@2@2MAEAV52@AEAM3V?$PxFlags@W4Enum@PxHitFlag@physx@@G@2@@Z 0000000180111010 f   GuSweepCapsuleBox.obj
 0001:00110380       ?distancePointSegmentSquared@Gu@physx@@YAMAEBVSegment@12@AEBVPxVec3@2@PEAM@Z 0000000180111380 f i GuSweepCapsuleCapsule.obj
 0001:00110700       ?sweepCapsuleCapsule@Gu@physx@@YA_NAEBVCapsule@12@0AEBVPxVec3@2@MAEAMAEAV42@3IAEAG@Z 0000000180111700 f   GuSweepCapsuleCapsule.obj
 0001:001114d0       ?sweepCapsuleTriangles_Precise@Gu@physx@@YA_NIPEIBVPxTriangle@2@AEBVCapsule@12@AEBVPxVec3@2@MPEIBIAEAUPxSweepHit@2@AEAV52@V?$PxFlags@W4Enum@PxHitFlag@physx@@G@2@_NPEBVBoxPadded@12@@Z 00000001801124d0 f   GuSweepCapsuleTriangle.obj
 0001:00113560       ?sweepSphereCapsule@Gu@physx@@YA_NAEBVSphere@12@AEBVCapsule@12@AEBVPxVec3@2@MAEAMAEAV52@4V?$PxFlags@W4Enum@PxHitFlag@physx@@G@2@@Z 0000000180114560 f   GuSweepSphereCapsule.obj
 0001:00113c00       ?sweepSphereSphere@Gu@physx@@YA_NAEBVPxVec3@2@M0M0AEAMAEAV32@@Z 0000000180114c00 f   GuSweepSphereSphere.obj
 0001:00113e90       ?sweepSphereTriangles@Gu@physx@@YA_NIPEIBVPxTriangle@2@AEBVPxVec3@2@M1MPEIBIAEAUPxSweepHit@2@AEAV42@_N555@Z 0000000180114e90 f   GuSweepSphereTriangle.obj
 0001:00114740       ?sweepSphereVSQuad@Gu@physx@@YA_NPEIBVPxVec3@2@AEBV32@1M1AEAM@Z 0000000180115740 f   GuSweepSphereTriangle.obj
 0001:00115bd0       ?sweepSphereVSTri@Gu@physx@@YA_NPEIBVPxVec3@2@AEBV32@1M1AEAMAEA_N_N@Z 0000000180116bd0 f   GuSweepSphereTriangle.obj
 0001:00116ac0       ??$gjk@U?$LocalConvex@VTriangleV@Gu@physx@@@Gu@physx@@U?$LocalConvex@VBoxV@Gu@physx@@@23@@Gu@physx@@YA?AW4GjkStatus@01@AEBU?$LocalConvex@VTriangleV@Gu@physx@@@01@AEBU?$LocalConvex@VBoxV@Gu@physx@@@01@AEBT__m128@@2AEAT5@333@Z 0000000180117ac0 f i GuSweepTriangleUtils.obj
 0001:00117710       ?computeBoxTriImpactData@Gu@physx@@YAXAEAVPxVec3@2@0AEBV32@1AEBVPxTriangle@2@M@Z 0000000180118710 f   GuSweepTriangleUtils.obj
 0001:001179a0       ?computeEdgeEdgeNormal@Gu@physx@@YAXAEAVPxVec3@2@AEBV32@1111M@Z 00000001801189a0 f   GuSweepTriangleUtils.obj
 0001:00117c60       ?computeSphereTriImpactData@Gu@physx@@YAXAEAVPxVec3@2@0AEBV32@1MAEBVPxTriangle@2@@Z 0000000180118c60 f   GuSweepTriangleUtils.obj
 0001:0011813c       __imp_load_PxGetFoundation 000000018011913c f   PhysXFoundation_64:PhysXFoundation_64.dll
 0001:00118148       __tailMerge_physxfoundation_64_dll 0000000180119148     PhysXFoundation_64:PhysXFoundation_64.dll
 0001:001181c1       __imp_load_?getAllocator@shdfnd@physx@@YAAEAVPxAllocatorCallback@2@XZ 00000001801191c1 f   PhysXFoundation_64:PhysXFoundation_64.dll
 0001:001181cd       __imp_load_?getInstance@Foundation@shdfnd@physx@@SAAEAV123@XZ 00000001801191cd f   PhysXFoundation_64:PhysXFoundation_64.dll
 0001:001181d9       __imp_load_?error@Foundation@shdfnd@physx@@QEAAXW4Enum@PxErrorCode@3@PEBDH1ZZ 00000001801191d9 f   PhysXFoundation_64:PhysXFoundation_64.dll
 0001:001181e5       __imp_load_?vsnprintf@shdfnd@physx@@YAHPEAD_KPEBD0@Z 00000001801191e5 f   PhysXFoundation_64:PhysXFoundation_64.dll
 0001:001181f1       __imp_load_??0MutexImpl@shdfnd@physx@@QEAA@XZ 00000001801191f1 f   PhysXFoundation_64:PhysXFoundation_64.dll
 0001:001181fd       __imp_load_??1MutexImpl@shdfnd@physx@@QEAA@XZ 00000001801191fd f   PhysXFoundation_64:PhysXFoundation_64.dll
 0001:00118209       __imp_load_?lock@MutexImpl@shdfnd@physx@@QEAAXXZ 0000000180119209 f   PhysXFoundation_64:PhysXFoundation_64.dll
 0001:00118215       __imp_load_?unlock@MutexImpl@shdfnd@physx@@QEAAXXZ 0000000180119215 f   PhysXFoundation_64:PhysXFoundation_64.dll
 0001:00118221       __imp_load_?getSize@MutexImpl@shdfnd@physx@@SAIXZ 0000000180119221 f   PhysXFoundation_64:PhysXFoundation_64.dll
 0001:0011822d       __imp_load_?atomicDecrement@shdfnd@physx@@YAHPECH@Z 000000018011922d f   PhysXFoundation_64:PhysXFoundation_64.dll
 0001:00118239       __imp_load_?PxTransformFromSegment@physx@@YA?AVPxTransform@1@AEBVPxVec3@1@0PEAM@Z 0000000180119239 f   PhysXFoundation_64:PhysXFoundation_64.dll
 0001:00118245       __imp_load_?optimizeBoundingBox@shdfnd@physx@@YA?AVPxVec3@2@AEAVPxMat33@2@@Z 0000000180119245 f   PhysXFoundation_64:PhysXFoundation_64.dll
 0001:00118251       __imp_load_?allocate@TempAllocator@shdfnd@physx@@QEAAPEAX_KPEBDH@Z 0000000180119251 f   PhysXFoundation_64:PhysXFoundation_64.dll
 0001:0011825d       __imp_load_?deallocate@TempAllocator@shdfnd@physx@@QEAAXPEAX@Z 000000018011925d f   PhysXFoundation_64:PhysXFoundation_64.dll
 0001:00118269       __imp_load_?atomicIncrement@shdfnd@physx@@YAHPECH@Z 0000000180119269 f   PhysXFoundation_64:PhysXFoundation_64.dll
 0001:00118278       ?DloadAcquireSectionWriteAccess@@YAXXZ 0000000180119278 f i Delayimp:delayhlp.obj
 0001:00118324       ?DloadGetSRWLockFunctionPointers@@YAEXZ 0000000180119324 f i Delayimp:delayhlp.obj
 0001:001183c0       ?DloadMakePermanentImageCommit@@YAXPEAX_K@Z 00000001801193c0 f i Delayimp:delayhlp.obj
 0001:00118458       ?DloadObtainSection@@YAPEAXPEAK0@Z 0000000180119458 f i Delayimp:delayhlp.obj
 0001:001184f4       ?DloadProtectSection@@YAXKPEAK@Z 00000001801194f4 f i Delayimp:delayhlp.obj
 0001:00118584       ?DloadReleaseSectionWriteAccess@@YAXXZ 0000000180119584 f i Delayimp:delayhlp.obj
 0001:00118618       __delayLoadHelper2         0000000180119618 f   Delayimp:delayhlp.obj
 0001:001188f0       ??_V@YAXPEAX@Z             00000001801198f0 f   LIBCMT:delete_array.obj
 0001:001188f0       ??3@YAXPEAX_K@Z            00000001801198f0 f   LIBCMT:delete_scalar_size.obj
 0001:001188f8       ??_Etype_info@@UEAAPEAXI@Z 00000001801198f8 f i LIBCMT:std_type_info_static.obj
 0001:001188f8       ??_Gtype_info@@UEAAPEAXI@Z 00000001801198f8 f i LIBCMT:std_type_info_static.obj
 0001:00118924       ?__scrt_initialize_type_info@@YAXXZ 0000000180119924 f   LIBCMT:tncleanup.obj
 0001:00118934       ?__scrt_uninitialize_type_info@@YAXXZ 0000000180119934 f   LIBCMT:tncleanup.obj
 0001:00118950       _alloca_probe              0000000180119950 f   LIBCMT:chkstk.obj
 0001:00118950       __chkstk                   0000000180119950 f   LIBCMT:chkstk.obj
 0001:001189b0       __vdecl_sinf4              00000001801199b0 f   LIBCMT:svml_ssinf4_dispatch.obj
 0001:001189d0       __libm_sse2_sincosf_       00000001801199d0 f   LIBCMT:svml_ssinf4_dispatch.obj
 0001:00118a13       __libm_sse2_sincosf4_      0000000180119a13 f   LIBCMT:svml_ssinf4_dispatch.obj
 0001:00118a20       ??3@YAXPEAX@Z              0000000180119a20 f   LIBCMT:delete_scalar.obj
 0001:00118d48       _DllMainCRTStartup         0000000180119d48 f   LIBCMT:dll_dllmain.obj
 0001:00118d88       __isa_available_init       0000000180119d88 f   LIBCMT:cpu_disp.obj
 0001:00118f30       __sse2_sinf4@@16           0000000180119f30 f   LIBCMT:svml_ssinf4_sse2.obj
 0001:00119870       __sse4_sinf4@@16           000000018011a870 f   LIBCMT:svml_ssinf4_sse4.obj
 0001:00119fe4       __security_init_cookie     000000018011afe4 f   LIBCMT:gs_support.obj
 0001:0011a090       __local_stdio_printf_options 000000018011b090 f i LIBCMT:default_local_stdio_options.obj
 0001:0011a098       __local_stdio_scanf_options 000000018011b098 f i LIBCMT:default_local_stdio_options.obj
 0001:0011a0a0       __scrt_initialize_default_local_stdio_options 000000018011b0a0 f   LIBCMT:default_local_stdio_options.obj
 0001:0011a0bc       __scrt_acquire_startup_lock 000000018011b0bc f   LIBCMT:utility.obj
 0001:0011a0f8       __scrt_dllmain_after_initialize_c 000000018011b0f8 f   LIBCMT:utility.obj
 0001:0011a12c       __scrt_dllmain_before_initialize_c 000000018011b12c f   LIBCMT:utility.obj
 0001:0011a144       __scrt_dllmain_crt_thread_attach 000000018011b144 f   LIBCMT:utility.obj
 0001:0011a16c       __scrt_dllmain_crt_thread_detach 000000018011b16c f   LIBCMT:utility.obj
 0001:0011a184       __scrt_dllmain_exception_filter 000000018011b184 f   LIBCMT:utility.obj
 0001:0011a1e4       __scrt_dllmain_uninitialize_c 000000018011b1e4 f   LIBCMT:utility.obj
 0001:0011a214       __scrt_dllmain_uninitialize_critical 000000018011b214 f   LIBCMT:utility.obj
 0001:0011a228       __scrt_initialize_crt      000000018011b228 f   LIBCMT:utility.obj
 0001:0011a274       __scrt_initialize_onexit_tables 000000018011b274 f   LIBCMT:utility.obj
 0001:0011a300       __scrt_is_nonwritable_in_current_image 000000018011b300 f   LIBCMT:utility.obj
 0001:0011a398       __scrt_release_startup_lock 000000018011b398 f   LIBCMT:utility.obj
 0001:0011a3bc       __scrt_uninitialize_crt    000000018011b3bc f   LIBCMT:utility.obj
 0001:0011a3e8       __scrt_get_dyn_tls_init_callback 000000018011b3e8 f   LIBCMT:dyn_tls_init.obj
 0001:0011a3f0       __crt_debugger_hook        000000018011b3f0 f   LIBCMT:utility_desktop.obj
 0001:0011a3f8       __scrt_fastfail            000000018011b3f8 f   LIBCMT:utility_desktop.obj
 0001:0011a544       _RTC_Initialize            000000018011b544 f   LIBCMT:initsect.obj
 0001:0011a580       _RTC_Terminate             000000018011b580 f   LIBCMT:initsect.obj
 0001:0011a5c0       __common_ssin_cout_rare    000000018011b5c0 f   LIBCMT:svml_s_sin_cout.obj
 0001:0011a630       __scrt_is_ucrt_dll_in_use  000000018011b630 f   LIBCMT:ucrt_detection.obj
 0001:0011a63c       _get_purecall_handler      000000018011b63c f   libvcruntime:purevirt.obj
 0001:0011a644       _purecall                  000000018011b644 f   libvcruntime:purevirt.obj
 0001:0011a668       __std_type_info_compare    000000018011b668 f   libvcruntime:std_type_info.obj
 0001:0011a690       __std_type_info_destroy_list 000000018011b690 f   libvcruntime:std_type_info.obj
 0001:0011a6bc       __std_type_info_name       000000018011b6bc f   libvcruntime:std_type_info.obj
 0001:0011a7f0       memcpy_repmovs             000000018011b7f0 f   libvcruntime:memcpy.obj
 0001:0011a810       memmove                    000000018011b810 f   libvcruntime:memcpy.obj
 0001:0011a810       memcpy                     000000018011b810 f   libvcruntime:memcpy.obj
 0001:0011ac00       memset_repmovs             000000018011bc00 f   libvcruntime:memset.obj
 0001:0011ac20       memset                     000000018011bc20 f   libvcruntime:memset.obj
 0001:0011adb0       strstr                     000000018011bdb0 f   libvcruntime:strstr.obj
 0001:0011afac       __C_specific_handler       000000018011bfac f   libvcruntime:riscchandler.obj
 0001:0011b1b8       __vcrt_initialize          000000018011c1b8 f   libvcruntime:initialization.obj
 0001:0011b1e0       __vcrt_thread_attach       000000018011c1e0 f   libvcruntime:initialization.obj
 0001:0011b1f4       __vcrt_thread_detach       000000018011c1f4 f   libvcruntime:initialization.obj
 0001:0011b208       __vcrt_uninitialize        000000018011c208 f   libvcruntime:initialization.obj
 0001:0011b224       __vcrt_uninitialize_critical 000000018011c224 f   libvcruntime:initialization.obj
 0001:0011b234       __DestructExceptionObject  000000018011c234 f   libvcruntime:ehhelpers.obj
 0001:0011b2a4       ?_CallMemberFunction0@@YAXQEAX0@Z 000000018011c2a4 f i libvcruntime:ehhelpers.obj
 0001:0011b2a8       _IsExceptionObjectToBeDestroyed 000000018011c2a8 f   libvcruntime:ehhelpers.obj
 0001:0011b2d8       __AdjustPointer            000000018011c2d8 f   libvcruntime:ehhelpers.obj
 0001:0011b2fc       __FrameUnwindFilter        000000018011c2fc f   libvcruntime:ehhelpers.obj
 0001:0011b364       __std_terminate            000000018011c364 f   libvcruntime:ehhelpers.obj
 0001:0011b370       ??$?0$00@DName@@QEAA@PEBDU?$StringLifeSelector@$00@@@Z 000000018011c370 f i libvcruntime:undname.obj
 0001:0011b3b0       ??$?0$01@DName@@QEAA@PEBDU?$StringLifeSelector@$01@@@Z 000000018011c3b0 f i libvcruntime:undname.obj
 0001:0011b3b0       ??$?0$0A@@DName@@QEAA@PEBDU?$StringLifeSelector@$0A@@@@Z 000000018011c3b0 f i libvcruntime:undname.obj
 0001:0011b3f0       ??$?0$01@pcharNode@@QEAA@PEBDHU?$StringLifeSelector@$01@@@Z 000000018011c3f0 f i libvcruntime:undname.obj
 0001:0011b3f0       ??$?0$0A@@pcharNode@@QEAA@PEBDHU?$StringLifeSelector@$0A@@@@Z 000000018011c3f0 f i libvcruntime:undname.obj
 0001:0011b464       ??$append@VDNameNode@@@DName@@AEAAXPEBVDNameNode@@@Z 000000018011c464 f i libvcruntime:undname.obj
 0001:0011b464       ??$append@VcharNode@@@DName@@AEAAXPEBVcharNode@@@Z 000000018011c464 f i libvcruntime:undname.obj
 0001:0011b464       ??$append@VpcharNode@@@DName@@AEAAXPEBVpcharNode@@@Z 000000018011c464 f i libvcruntime:undname.obj
 0001:0011b464       ??$append@VDNameStatusNode@@@DName@@AEAAXPEBVDNameStatusNode@@@Z 000000018011c464 f i libvcruntime:undname.obj
 0001:0011b4c8       ??$doPchar@$00@DName@@AEAAXPEBDH@Z 000000018011c4c8 f i libvcruntime:undname.obj
 0001:0011b56c       ??$doPchar@$0A@@DName@@AEAAXPEBDH@Z 000000018011c56c f i libvcruntime:undname.obj
 0001:0011b56c       ??$doPchar@$01@DName@@AEAAXPEBDH@Z 000000018011c56c f i libvcruntime:undname.obj
 0001:0011b604       ??0DName@@QEAA@AEAPEBDD@Z  000000018011c604 f   libvcruntime:undname.obj
 0001:0011b6b4       ??0DName@@QEAA@AEBUStringLiteral@@@Z 000000018011c6b4 f   libvcruntime:undname.obj
 0001:0011b6e0       ??0DName@@QEAA@PEAV0@@Z    000000018011c6e0 f   libvcruntime:undname.obj
 0001:0011b764       ??0DName@@QEAA@_J@Z        000000018011c764 f   libvcruntime:undname.obj
 0001:0011b80c       ??0DName@@QEAA@_K@Z        000000018011c80c f   libvcruntime:undname.obj
 0001:0011b89c       ??2@YAPEAX_KAEAV_HeapManager@@H@Z 000000018011c89c f   libvcruntime:undname.obj
 0001:0011b8c8       ??AReplicator@@QEBA?AVDName@@H@Z 000000018011c8c8 f   libvcruntime:undname.obj
 0001:0011b908       ??HDName@@QEBA?AV0@AEBUStringLiteral@@@Z 000000018011c908 f   libvcruntime:undname.obj
 0001:0011b934       ??HDName@@QEBA?AV0@AEBV0@@Z 000000018011c934 f   libvcruntime:undname.obj
 0001:0011b960       ??HDName@@QEBA?AV0@D@Z     000000018011c960 f   libvcruntime:undname.obj
 0001:0011b98c       ??HDName@@QEBA?AV0@W4DNameStatus@@@Z 000000018011c98c f   libvcruntime:undname.obj
 0001:0011b9b8       ??YDName@@QEAAAEAV0@AEBUStringLiteral@@@Z 000000018011c9b8 f   libvcruntime:undname.obj
 0001:0011ba38       ??YDName@@QEAAAEAV0@AEBV0@@Z 000000018011ca38 f   libvcruntime:undname.obj
 0001:0011baec       ??YDName@@QEAAAEAV0@D@Z    000000018011caec f   libvcruntime:undname.obj
 0001:0011bb58       ??YDName@@QEAAAEAV0@W4DNameStatus@@@Z 000000018011cb58 f   libvcruntime:undname.obj
 0001:0011bbc4       ??YReplicator@@QEAAAEAV0@AEBVDName@@@Z 000000018011cbc4 f   libvcruntime:undname.obj
 0001:0011bc1c       ?UScore@UnDecorator@@SA?AUStringLiteral@@W4Tokens@@@Z 000000018011cc1c f   libvcruntime:undname.obj
 0001:0011bc68       ?composeDeclaration@UnDecorator@@CA?AVDName@@AEBV2@@Z 000000018011cc68 f i libvcruntime:undname.obj
 0001:0011cb10       ?doPchar@DName@@AEAAXD@Z   000000018011db10 f   libvcruntime:undname.obj
 0001:0011cb60       ?getArgumentList@UnDecorator@@CA?AVDName@@XZ 000000018011db60 f   libvcruntime:undname.obj
 0001:0011ccf4       ?getArgumentTypes@UnDecorator@@CA?AVDName@@XZ 000000018011dcf4 f   libvcruntime:undname.obj
 0001:0011ce50       ?getArrayObject@UnDecorator@@CA?AVDName@@XZ 000000018011de50 f   libvcruntime:undname.obj
 0001:0011cf18       ?getArrayType@UnDecorator@@CA?AVDName@@AEBV2@@Z 000000018011df18 f i libvcruntime:undname.obj
 0001:0011d160       ?getBasedType@UnDecorator@@CA?AVDName@@XZ 000000018011e160 f   libvcruntime:undname.obj
 0001:0011d258       ?getBasicDataType@UnDecorator@@CA?AVDName@@AEBV2@@Z 000000018011e258 f   libvcruntime:undname.obj
 0001:0011d79c       ?getCallingConvention@UnDecorator@@CA?AVDName@@XZ 000000018011e79c f   libvcruntime:undname.obj
 0001:0011d8dc       ?getDataIndirectType@UnDecorator@@CA?AVDName@@AEBV2@W4IndirectionKind@@0H@Z 000000018011e8dc f   libvcruntime:undname.obj
 0001:0011e174       ?getDataType@UnDecorator@@CA?AVDName@@PEAV2@@Z 000000018011f174 f   libvcruntime:undname.obj
 0001:0011e288       ?getDecoratedName@UnDecorator@@CA?AVDName@@XZ 000000018011f288 f   libvcruntime:undname.obj
 0001:0011e56c       ?getDimension@UnDecorator@@CA?AVDName@@_N@Z 000000018011f56c f   libvcruntime:undname.obj
 0001:0011e6b8       ?getDispatchTarget@UnDecorator@@CA?AVDName@@XZ 000000018011f6b8 f   libvcruntime:undname.obj
 0001:0011e704       ?getECSUDataType@UnDecorator@@CA?AVDName@@XZ 000000018011f704 f   libvcruntime:undname.obj
 0001:0011e8e4       ?getEnumType@UnDecorator@@CA?AVDName@@XZ 000000018011f8e4 f i libvcruntime:undname.obj
 0001:0011ea0c       ?getExtendedDataIndirectType@UnDecorator@@CA?AVDName@@AEAW4IndirectionKind@@AEA_NH@Z 000000018011fa0c f   libvcruntime:undname.obj
 0001:0011ec14       ?getExternalDataType@UnDecorator@@CA?AVDName@@AEBV2@@Z 000000018011fc14 f i libvcruntime:undname.obj
 0001:0011ecd4       ?getFloatingPoint@UnDecorator@@CA?AVDName@@H@Z 000000018011fcd4 f   libvcruntime:undname.obj
 0001:0011edf4       ?getFunctionIndirectType@UnDecorator@@CA?AVDName@@AEBV2@@Z 000000018011fdf4 f   libvcruntime:undname.obj
 0001:0011f32c       ?getLastChar@DNameStatusNode@@UEBADXZ 000000018012032c f i libvcruntime:undname.obj
 0001:0011f338       ?getLastChar@charNode@@UEBADXZ 0000000180120338 f i libvcruntime:undname.obj
 0001:0011f33c       ?getLastChar@pDNameNode@@UEBADXZ 000000018012033c f i libvcruntime:undname.obj
 0001:0011f368       ?getLastChar@pairNode@@UEBADXZ 0000000180120368 f i libvcruntime:undname.obj
 0001:0011f3a0       ?getLastChar@pcharNode@@UEBADXZ 00000001801203a0 f i libvcruntime:undname.obj
 0001:0011f3b4       ?getLexicalFrame@UnDecorator@@CA?AVDName@@XZ 00000001801203b4 f i libvcruntime:undname.obj
 0001:0011f418       ?getMemoryWithBuffer@_HeapManager@@QEAAPEAX_K@Z 0000000180120418 f   libvcruntime:undname.obj
 0001:0011f4a8       ?getNoexcept@UnDecorator@@CA?AVDName@@XZ 00000001801204a8 f   libvcruntime:undname.obj
 0001:0011f50c       ?getNumberOfDimensions@UnDecorator@@CAHXZ 000000018012050c f   libvcruntime:undname.obj
 0001:0011f580       ?getOperatorName@UnDecorator@@CA?AVDName@@_NPEA_N@Z 0000000180120580 f i libvcruntime:undname.obj
 0001:0011fdc8       ?getPrimaryDataType@UnDecorator@@CA?AVDName@@AEBV2@@Z 0000000180120dc8 f   libvcruntime:undname.obj
 0001:0012007c       ?getPtrRefDataType@UnDecorator@@CA?AVDName@@AEBV2@H@Z 000000018012107c f   libvcruntime:undname.obj
 0001:00120248       ?getPtrRefType@UnDecorator@@CA?AVDName@@AEBV2@0W4IndirectionKind@@@Z 0000000180121248 f   libvcruntime:undname.obj
 0001:00120420       ?getRestrictionSpec@UnDecorator@@CA?AVDName@@XZ 0000000180121420 f   libvcruntime:undname.obj
 0001:001205ec       ?getReturnType@UnDecorator@@CA?AVDName@@PEAV2@@Z 00000001801215ec f   libvcruntime:undname.obj
 0001:00120620       ?getScope@UnDecorator@@CA?AVDName@@XZ 0000000180121620 f   libvcruntime:undname.obj
 0001:00120ad4       ?getScopedName@UnDecorator@@CA?AVDName@@XZ 0000000180121ad4 f   libvcruntime:undname.obj
 0001:00120c10       ?getSignedDimension@UnDecorator@@CA?AVDName@@XZ 0000000180121c10 f   libvcruntime:undname.obj
 0001:00120c98       ?getString@DNameStatusNode@@UEBAPEADPEAD0@Z 0000000180121c98 f i libvcruntime:undname.obj
 0001:00120ce0       ?getString@charNode@@UEBAPEADPEAD0@Z 0000000180121ce0 f i libvcruntime:undname.obj
 0001:00120cf4       ?getString@pDNameNode@@UEBAPEADPEAD0@Z 0000000180121cf4 f i libvcruntime:undname.obj
 0001:00120d24       ?getString@pairNode@@UEBAPEADPEAD0@Z 0000000180121d24 f i libvcruntime:undname.obj
 0001:00120d70       ?getString@pcharNode@@UEBAPEADPEAD0@Z 0000000180121d70 f i libvcruntime:undname.obj
 0001:00120da8       ?getStringEncoding@UnDecorator@@CA?AVDName@@W4PrefixKind@@H@Z 0000000180121da8 f   libvcruntime:undname.obj
 0001:00120e8c       ?getStringObject@UnDecorator@@CA?AVDName@@XZ 0000000180121e8c f   libvcruntime:undname.obj
 0001:00120ef4       ?getSymbolName@UnDecorator@@CA?AVDName@@XZ 0000000180121ef4 f i libvcruntime:undname.obj
 0001:00120f40       ?getTemplateArgumentList@UnDecorator@@CA?AVDName@@XZ 0000000180121f40 f   libvcruntime:undname.obj
 0001:001211b4       ?getTemplateName@UnDecorator@@CA?AVDName@@_N@Z 00000001801221b4 f   libvcruntime:undname.obj
 0001:00121448       ?getTemplateNonTypeArgument@UnDecorator@@CA?AVDName@@XZ 0000000180122448 f   libvcruntime:undname.obj
 0001:001218c4       ?getTemplateTypeArgument@UnDecorator@@CA?AVDName@@XZ 00000001801228c4 f   libvcruntime:undname.obj
 0001:00121a2c       ?getThrowTypes@UnDecorator@@CA?AVDName@@XZ 0000000180122a2c f   libvcruntime:undname.obj
 0001:00121a50       ?getTypeEncoding@UnDecorator@@CAHXZ 0000000180122a50 f i libvcruntime:undname.obj
 0001:00121dc4       ?getUndecoratedName@UnDecorator@@QEAAPEADPEADH@Z 0000000180122dc4 f i libvcruntime:undname.obj
 0001:00121f18       ?getVCallThunkType@UnDecorator@@CA?AVDName@@XZ 0000000180122f18 f i libvcruntime:undname.obj
 0001:00121f90       ?getValue@UnDecorator@@CA?AV?$optional@_K@std@@XZ 0000000180122f90 f   libvcruntime:undname.obj
 0001:00122004       ?getValueObject@UnDecorator@@CA?AVDName@@XZ 0000000180123004 f   libvcruntime:undname.obj
 0001:00122154       ?getVdispMapType@UnDecorator@@CA?AVDName@@AEBV2@@Z 0000000180123154 f i libvcruntime:undname.obj
 0001:001221d0       ?getVfTableType@UnDecorator@@CA?AVDName@@AEBV2@@Z 00000001801231d0 f i libvcruntime:undname.obj
 0001:001223d8       ?getZName@UnDecorator@@CA?AVDName@@_N0@Z 00000001801233d8 f   libvcruntime:undname.obj
 0001:001226c0       ?length@DNameStatusNode@@UEBAHXZ 00000001801236c0 f i libvcruntime:undname.obj
 0001:001226c0       ?raw_length@DNameStatusNode@@UEBAHXZ 00000001801236c0 f i libvcruntime:undname.obj
 0001:001226c4       ?length@pDNameNode@@UEBAHXZ 00000001801236c4 f i libvcruntime:undname.obj
 0001:001226ec       ?length@pairNode@@UEBAHXZ  00000001801236ec f i libvcruntime:undname.obj
 0001:00122734       ?parseDecoratedName@UnDecorator@@CA?AVDName@@XZ 0000000180123734 f   libvcruntime:undname.obj
 0001:00122848       ?raw_length@pDNameNode@@UEBAHXZ 0000000180123848 f i libvcruntime:undname.obj
 0001:0012284c       __unDName                  000000018012384c f   libvcruntime:undname.obj
 0001:00122874       __unDNameEx                0000000180123874 f   libvcruntime:undname.obj
 0001:001229a8       sprintf_s                  00000001801239a8 f i libvcruntime:undname.obj
 0001:00122a10       _NLG_Notify                0000000180123a10 f   libvcruntime:notify.obj
 0001:00122a30       __NLG_Dispatch2            0000000180123a30 f   libvcruntime:notify.obj
 0001:00122a40       __NLG_Return2              0000000180123a40 f   libvcruntime:notify.obj
 0001:00122a44       __except_validate_context_record 0000000180123a44 f   libvcruntime:jbcxrval.obj
 0001:00122a7c       __vcrt_freefls             0000000180123a7c f   libvcruntime:per_thread_data.obj
 0001:00122a9c       __vcrt_freeptd             0000000180123a9c f   libvcruntime:per_thread_data.obj
 0001:00122aec       __vcrt_getptd              0000000180123aec f   libvcruntime:per_thread_data.obj
 0001:00122b08       __vcrt_getptd_noexit       0000000180123b08 f   libvcruntime:per_thread_data.obj
 0001:00122bc8       __vcrt_initialize_ptd      0000000180123bc8 f   libvcruntime:per_thread_data.obj
 0001:00122c10       __vcrt_uninitialize_ptd    0000000180123c10 f   libvcruntime:per_thread_data.obj
 0001:00122c34       __vcrt_initialize_locks    0000000180123c34 f   libvcruntime:locks.obj
 0001:00122c68       __vcrt_lock                0000000180123c68 f   libvcruntime:locks.obj
 0001:00122c84       __vcrt_uninitialize_locks  0000000180123c84 f   libvcruntime:locks.obj
 0001:00122cbc       __vcrt_unlock              0000000180123cbc f   libvcruntime:locks.obj
 0001:00122cd8       ??$_CallSETranslator@V__FrameHandler3@@@@YAHPEAUEHExceptionRecord@@PEA_KPEAU_CONTEXT@@PEAU_xDISPATCHER_CONTEXT@@PEBU_s_FuncInfo@@K1H@Z 0000000180123cd8 f i libvcruntime:risctrnsctrl.obj
 0001:00122d2c       ??$_CallSETranslator@V__FrameHandler4@@@@YAHPEAUEHExceptionRecord@@PEA_KPEAU_CONTEXT@@PEAU_xDISPATCHER_CONTEXT@@PEAUFuncInfo4@FH4@@K1H@Z 0000000180123d2c f i libvcruntime:risctrnsctrl.obj
 0001:00122d80       ?CatchTryBlock@__FrameHandler3@@SAPEBU_s_TryBlockMapEntry@@PEBU_s_FuncInfo@@H@Z 0000000180123d80 f   libvcruntime:risctrnsctrl.obj
 0001:00122dd4       ?DecompFuncInfo@FH4@@YA_JPEAEAEAUFuncInfo4@1@_KH_N@Z 0000000180123dd4 f i libvcruntime:risctrnsctrl.obj
 0001:00122ef8       ?ExecutionInCatch@__FrameHandler3@@SA_NPEAU_xDISPATCHER_CONTEXT@@PEBU_s_FuncInfo@@@Z 0000000180123ef8 f   libvcruntime:risctrnsctrl.obj
 0001:00122f24       ?ExecutionInCatch@__FrameHandler4@@SA_NPEAU_xDISPATCHER_CONTEXT@@PEAUFuncInfo4@FH4@@@Z 0000000180123f24 f   libvcruntime:risctrnsctrl.obj
 0001:00122f2c       ?FrameUnwindToEmptyState@__FrameHandler3@@SAXPEA_KPEAU_xDISPATCHER_CONTEXT@@PEBU_s_FuncInfo@@@Z 0000000180123f2c f   libvcruntime:risctrnsctrl.obj
 0001:00122f90       ?FrameUnwindToEmptyState@__FrameHandler4@@SAXPEA_KPEAU_xDISPATCHER_CONTEXT@@PEAUFuncInfo4@FH4@@@Z 0000000180123f90 f   libvcruntime:risctrnsctrl.obj
 0001:00122fc4       ?GetEstablisherFrame@__FrameHandler3@@SAPEA_KPEA_KPEAU_xDISPATCHER_CONTEXT@@PEBU_s_FuncInfo@@0@Z 0000000180123fc4 f   libvcruntime:risctrnsctrl.obj
 0001:00123090       ?GetEstablisherFrame@__FrameHandler4@@SAPEA_KPEA_KPEAU_xDISPATCHER_CONTEXT@@PEAUFuncInfo4@FH4@@0@Z 0000000180124090 f   libvcruntime:risctrnsctrl.obj
 0001:001230b4       ?GetRangeOfTrysToCheck@__FrameHandler3@@SA?AU?$pair@Viterator@TryBlockMap@__FrameHandler3@@V123@@std@@AEAVTryBlockMap@1@HPEAU_xDISPATCHER_CONTEXT@@PEBU_s_FuncInfo@@H@Z 00000001801240b4 f   libvcruntime:risctrnsctrl.obj
 0001:001231f4       ?GetRangeOfTrysToCheck@__FrameHandler4@@SA?AU?$pair@Viterator@TryBlockMap4@FH4@@V123@@std@@AEAVTryBlockMap4@FH4@@HPEAU_xDISPATCHER_CONTEXT@@PEAUFuncInfo4@5@H@Z 00000001801241f4 f   libvcruntime:risctrnsctrl.obj
 0001:0012335c       ?UnwindNestedFrames@__FrameHandler3@@SAXPEA_KPEAUEHExceptionRecord@@PEAU_CONTEXT@@0PEAXPEBU_s_FuncInfo@@HHPEBU_s_HandlerType@@PEAU_xDISPATCHER_CONTEXT@@E@Z 000000018012435c f   libvcruntime:risctrnsctrl.obj
 0001:00123460       ?UnwindNestedFrames@__FrameHandler4@@SAXPEA_KPEAUEHExceptionRecord@@PEAU_CONTEXT@@0PEAXPEAUFuncInfo4@FH4@@HHPEAUHandlerType4@5@PEAU_xDISPATCHER_CONTEXT@@E@Z 0000000180124460 f   libvcruntime:risctrnsctrl.obj
 0001:00123580       ?setBuffer@TryBlockMap4@FH4@@QEAAXViterator@12@@Z 0000000180124580 f i libvcruntime:risctrnsctrl.obj
 0001:00123740       _CreateFrameInfo           0000000180124740 f   libvcruntime:risctrnsctrl.obj
 0001:0012377c       _FindAndUnlinkFrame        000000018012477c f   libvcruntime:risctrnsctrl.obj
 0001:001237d0       _GetImageBase              00000001801247d0 f   libvcruntime:risctrnsctrl.obj
 0001:001237e4       _GetThrowImageBase         00000001801247e4 f   libvcruntime:risctrnsctrl.obj
 0001:001237f8       _SetImageBase              00000001801247f8 f   libvcruntime:risctrnsctrl.obj
 0001:00123810       _SetThrowImageBase         0000000180124810 f   libvcruntime:risctrnsctrl.obj
 0001:00123828       __CxxFrameHandler3         0000000180124828 f   libvcruntime:risctrnsctrl.obj
 0001:001238b0       __CxxFrameHandler4         00000001801248b0 f   libvcruntime:risctrnsctrl.obj
 0001:00123abc       __vcrt_FlsAlloc            0000000180124abc f   libvcruntime:winapi_downlevel.obj
 0001:00123b04       __vcrt_FlsFree             0000000180124b04 f   libvcruntime:winapi_downlevel.obj
 0001:00123b4c       __vcrt_FlsGetValue         0000000180124b4c f   libvcruntime:winapi_downlevel.obj
 0001:00123b94       __vcrt_FlsSetValue         0000000180124b94 f   libvcruntime:winapi_downlevel.obj
 0001:00123be8       __vcrt_InitializeCriticalSectionEx 0000000180124be8 f   libvcruntime:winapi_downlevel.obj
 0001:00123c4c       ?GetCurrentState@__FrameHandler3@@SAHPEA_KPEAU_xDISPATCHER_CONTEXT@@PEBU_s_FuncInfo@@@Z 0000000180124c4c f   libvcruntime:ehstate.obj
 0001:00123c74       ?GetUnwindTryBlock@__FrameHandler3@@SAHPEA_KPEAU_xDISPATCHER_CONTEXT@@PEBU_s_FuncInfo@@@Z 0000000180124c74 f   libvcruntime:ehstate.obj
 0001:00123ca0       ?SetState@__FrameHandler3@@SAXPEA_KPEBU_s_FuncInfo@@H@Z 0000000180124ca0 f   libvcruntime:ehstate.obj
 0001:00123cac       ?SetUnwindTryBlock@__FrameHandler3@@SAXPEA_KPEAU_xDISPATCHER_CONTEXT@@PEBU_s_FuncInfo@@H@Z 0000000180124cac f   libvcruntime:ehstate.obj
 0001:00123ce8       ?StateFromControlPc@__FrameHandler3@@SAHPEBU_s_FuncInfo@@PEAU_xDISPATCHER_CONTEXT@@@Z 0000000180124ce8 f   libvcruntime:ehstate.obj
 0001:00123cf0       ?StateFromControlPc@__FrameHandler4@@SAHPEAUFuncInfo4@FH4@@PEAU_xDISPATCHER_CONTEXT@@@Z 0000000180124cf0 f   libvcruntime:ehstate.obj
 0001:00123cf8       ?StateFromIp@__FrameHandler3@@SAHPEBU_s_FuncInfo@@PEAU_xDISPATCHER_CONTEXT@@_K@Z 0000000180124cf8 f   libvcruntime:ehstate.obj
 0001:00123d60       ?StateFromIp@__FrameHandler4@@SAHPEAUFuncInfo4@FH4@@PEAU_xDISPATCHER_CONTEXT@@_K@Z 0000000180124d60 f   libvcruntime:ehstate.obj
 0001:00125480       ??$TypeMatchHelper@V__FrameHandler3@@@@YAHPEBU_s_HandlerType@@PEBU_s_CatchableType@@PEBU_s_ThrowInfo@@@Z 0000000180126480 f i libvcruntime:frame.obj
 0001:001255c0       ??$TypeMatchHelper@V__FrameHandler4@@@@YAHPEAUHandlerType4@FH4@@PEBU_s_CatchableType@@PEBU_s_ThrowInfo@@@Z 00000001801265c0 f i libvcruntime:frame.obj
 0001:00125704       ??$__InternalCxxFrameHandler@V__FrameHandler3@@@@YA?AW4_EXCEPTION_DISPOSITION@@PEAUEHExceptionRecord@@PEA_KPEAU_CONTEXT@@PEAU_xDISPATCHER_CONTEXT@@PEBU_s_FuncInfo@@H1E@Z 0000000180126704 f i libvcruntime:frame.obj
 0001:0012593c       ??$__InternalCxxFrameHandler@V__FrameHandler4@@@@YA?AW4_EXCEPTION_DISPOSITION@@PEAUEHExceptionRecord@@PEA_KPEAU_CONTEXT@@PEAU_xDISPATCHER_CONTEXT@@PEAUFuncInfo4@FH4@@H1E@Z 000000018012693c f i libvcruntime:frame.obj
 0001:00125bd0       ??0HandlerMap4@FH4@@QEAA@PEBUTryBlockMapEntry4@1@_KH@Z 0000000180126bd0 f i libvcruntime:frame.obj
 0001:00125c4c       ??0TryBlockMap4@FH4@@QEAA@PEBUFuncInfo4@1@_K@Z 0000000180126c4c f i libvcruntime:frame.obj
 0001:00125d24       ??0bad_exception@std@@QEAA@AEBV01@@Z 0000000180126d24 f i libvcruntime:frame.obj
 0001:00125d60       ??0bad_exception@std@@QEAA@XZ 0000000180126d60 f i libvcruntime:frame.obj
 0001:00125d80       ??0exception@std@@QEAA@AEBV01@@Z 0000000180126d80 f i libvcruntime:frame.obj
 0001:00125db4       ??1bad_exception@std@@UEAA@XZ 0000000180126db4 f i libvcruntime:frame.obj
 0001:00125dc8       ??_Gbad_exception@std@@UEAAPEAXI@Z 0000000180126dc8 f i libvcruntime:frame.obj
 0001:00125dc8       ??_Ebad_exception@std@@UEAAPEAXI@Z 0000000180126dc8 f i libvcruntime:frame.obj
 0001:00125dc8       ??_Gexception@std@@UEAAPEAXI@Z 0000000180126dc8 f i libvcruntime:frame.obj
 0001:00125dc8       ??_Eexception@std@@UEAAPEAXI@Z 0000000180126dc8 f i libvcruntime:frame.obj
 0001:00125e0c       ?CxxCallCatchBlock@__FrameHandler3@@SAPEAXPEAU_EXCEPTION_RECORD@@@Z 0000000180126e0c f   libvcruntime:frame.obj
 0001:00125ff8       ?CxxCallCatchBlock@__FrameHandler4@@SAPEAXPEAU_EXCEPTION_RECORD@@@Z 0000000180126ff8 f   libvcruntime:frame.obj
 0001:00126248       ?DecompHandler@HandlerMap4@FH4@@AEAAXXZ 0000000180127248 f i libvcruntime:frame.obj
 0001:00126488       ?FrameUnwindToState@__FrameHandler3@@SAXPEA_KPEAU_xDISPATCHER_CONTEXT@@PEBU_s_FuncInfo@@H@Z 0000000180127488 f   libvcruntime:frame.obj
 0001:00126614       ?FrameUnwindToState@__FrameHandler4@@SAXPEA_KPEAU_xDISPATCHER_CONTEXT@@PEAUFuncInfo4@FH4@@H@Z 0000000180127614 f   libvcruntime:frame.obj
 0001:001268fc       ?GetHandlerSearchState@__FrameHandler3@@SAHPEA_KPEAU_xDISPATCHER_CONTEXT@@PEBU_s_FuncInfo@@@Z 00000001801278fc f i libvcruntime:frame.obj
 0001:00126b0c       ?ReadEntry@UWMap4@FH4@@AEAAXPEAPEAE@Z 0000000180127b0c f i libvcruntime:frame.obj
 0001:00126bac       ?_CallMemberFunction1@@YAXQEAX00@Z 0000000180127bac f i libvcruntime:frame.obj
 0001:00126bb8       ?_CallMemberFunction2@@YAXQEAX00H@Z 0000000180127bb8 f i libvcruntime:frame.obj
 0001:00126bc8       ?getStartStop@UWMap4@FH4@@QEAAXHHAEAViterator@12@0@Z 0000000180127bc8 f i libvcruntime:frame.obj
 0001:00126c98       ?getStateFromIterators@UWMap4@FH4@@SAHAEBViterator@12@H0H0@Z 0000000180127c98 f i libvcruntime:frame.obj
 0001:00126d60       ?what@exception@std@@UEBAPEBDXZ 0000000180127d60 f i libvcruntime:frame.obj
 0001:00126d90       _CallSettingFrame          0000000180127d90 f   libvcruntime:handlers.obj
 0001:00126de0       _CallSettingFrame_LookupContinuationIndex 0000000180127de0 f   libvcruntime:handlers.obj
 0001:00126e10       _CallSettingFrame_NotifyContinuationAddr 0000000180127e10 f   libvcruntime:handlers.obj
 0001:00126e40       _CallSettingFrameEncoded   0000000180127e40 f   libvcruntime:handlers.obj
 0001:00126e88       __std_exception_copy       0000000180127e88 f   libvcruntime:std_exception.obj
 0001:00126f18       __std_exception_destroy    0000000180127f18 f   libvcruntime:std_exception.obj
 0001:00126f40       _CxxThrowException         0000000180127f40 f   libvcruntime:throw.obj
 0001:00126fe0       cosf                       0000000180127fe0 f   libucrt:cosf.obj
 0001:001274e0       sinf                       00000001801284e0 f   libucrt:sinf.obj
 0001:00127be0       tanf                       0000000180128be0 f   libucrt:tanf.obj
 0001:00128270       strcmp                     0000000180129270 f   libucrt:strcmp.obj
 0001:001282d8       _fpclass                   00000001801292d8 f   libucrt:ieeemisc.obj
 0001:00128360       acosf                      0000000180129360 f   libucrt:acosf.obj
 0001:0012858c       free                       000000018012958c f   libucrt:free.obj
 0001:001285a0       _initterm                  00000001801295a0 f   libucrt:initterm.obj
 0001:001285e4       _initterm_e                00000001801295e4 f   libucrt:initterm.obj
 0001:0012862c       _seh_filter_dll            000000018012962c f   libucrt:exception_filter.obj
 0001:00128640       _seh_filter_exe            0000000180129640 f   libucrt:exception_filter.obj
 0001:00128a64       __acrt_initialize_thread_local_exit_callback 0000000180129a64 f   libucrt:exit.obj
 0001:00128a6c       _cexit                     0000000180129a6c f   libucrt:exit.obj
 0001:00128a7c       _exit                      0000000180129a7c f   libucrt:exit.obj
 0001:00128a88       _is_c_termination_complete 0000000180129a88 f   libucrt:exit.obj
 0001:00128c50       __acrt_allocate_buffer_for_argv 0000000180129c50 f   libucrt:argv_parsing.obj
 0001:00128cb0       _configure_narrow_argv     0000000180129cb0 f   libucrt:argv_parsing.obj
 0001:00129038       __dcrt_uninitialize_environments_nolock 000000018012a038 f   libucrt:environment_initialization.obj
 0001:0012907c       _initialize_narrow_environment 000000018012a07c f   libucrt:environment_initialization.obj
 0001:001291e0       _execute_onexit_table      000000018012a1e0 f   libucrt:onexit.obj
 0001:00129224       _initialize_onexit_table   000000018012a224 f   libucrt:onexit.obj
 0001:00129284       __acrt_uninitialize_command_line 000000018012a284 f   libucrt:argv_data.obj
 0001:0012937c       __acrt_initialize          000000018012a37c f   libucrt:initialization.obj
 0001:00129390       __acrt_thread_attach       000000018012a390 f   libucrt:initialization.obj
 0001:001293a4       __acrt_thread_detach       000000018012a3a4 f   libucrt:initialization.obj
 0001:001293b4       __acrt_uninitialize        000000018012a3b4 f   libucrt:initialization.obj
 0001:001293ec       __acrt_uninitialize_critical 000000018012a3ec f   libucrt:initialization.obj
 0001:001293fc       terminate                  000000018012a3fc f   libucrt:terminate.obj
 0001:00129428       abort                      000000018012a428 f   libucrt:abort.obj
 0001:00129480       malloc                     000000018012a480 f   libucrt:malloc.obj
 0001:00129488       strcpy_s                   000000018012a488 f   libucrt:strcpy_s.obj
 0001:00129698       ??$ensure_buffer_is_big_enough@D@formatting_buffer@__crt_stdio_output@@QEAA_N_KAEAV__crt_cached_ptd_host@@@Z 000000018012a698 f i libucrt:output.obj
 0001:00129740       ??$parse_integer@KV?$c_string_character_source@D@__crt_strtox@@$0A@@__crt_strtox@@YAKAEAV__crt_cached_ptd_host@@V?$c_string_character_source@D@0@H_N@Z 000000018012a740 f i libucrt:output.obj
 0001:001299f0       ??$type_case_integer@$07@?$output_processor@DV?$string_output_adapter@D@__crt_stdio_output@@V?$format_validation_base@DV?$string_output_adapter@D@__crt_stdio_output@@@2@@__crt_stdio_output@@AEAA_N_N@Z 000000018012a9f0 f i libucrt:output.obj
 0001:00129bd8       ??$type_case_integer@$09@?$output_processor@DV?$string_output_adapter@D@__crt_stdio_output@@V?$format_validation_base@DV?$string_output_adapter@D@__crt_stdio_output@@@2@@__crt_stdio_output@@AEAA_N_N@Z 000000018012abd8 f i libucrt:output.obj
 0001:00129dc0       ??$type_case_integer@$0BA@@?$output_processor@DV?$string_output_adapter@D@__crt_stdio_output@@V?$format_validation_base@DV?$string_output_adapter@D@__crt_stdio_output@@@2@@__crt_stdio_output@@AEAA_N_N@Z 000000018012adc0 f i libucrt:output.obj
 0001:00129fa8       ??$type_case_integer_parse_into_buffer@I$07@?$output_processor@DV?$string_output_adapter@D@__crt_stdio_output@@V?$format_validation_base@DV?$string_output_adapter@D@__crt_stdio_output@@@2@@__crt_stdio_output@@AEAAXI_N@Z 000000018012afa8 f i libucrt:output.obj
 0001:0012a024       ??$type_case_integer_parse_into_buffer@I$09@?$output_processor@DV?$string_output_adapter@D@__crt_stdio_output@@V?$format_validation_base@DV?$string_output_adapter@D@__crt_stdio_output@@@2@@__crt_stdio_output@@AEAAXI_N@Z 000000018012b024 f i libucrt:output.obj
 0001:0012a0cc       ??$type_case_integer_parse_into_buffer@I$0BA@@?$output_processor@DV?$string_output_adapter@D@__crt_stdio_output@@V?$format_validation_base@DV?$string_output_adapter@D@__crt_stdio_output@@@2@@__crt_stdio_output@@AEAAXI_N@Z 000000018012b0cc f i libucrt:output.obj
 0001:0012a158       ??$type_case_integer_parse_into_buffer@_K$07@?$output_processor@DV?$string_output_adapter@D@__crt_stdio_output@@V?$format_validation_base@DV?$string_output_adapter@D@__crt_stdio_output@@@2@@__crt_stdio_output@@AEAAX_K_N@Z 000000018012b158 f i libucrt:output.obj
 0001:0012a1d4       ??$type_case_integer_parse_into_buffer@_K$09@?$output_processor@DV?$string_output_adapter@D@__crt_stdio_output@@V?$format_validation_base@DV?$string_output_adapter@D@__crt_stdio_output@@@2@@__crt_stdio_output@@AEAAX_K_N@Z 000000018012b1d4 f i libucrt:output.obj
 0001:0012a280       ??$type_case_integer_parse_into_buffer@_K$0BA@@?$output_processor@DV?$string_output_adapter@D@__crt_stdio_output@@V?$format_validation_base@DV?$string_output_adapter@D@__crt_stdio_output@@@2@@__crt_stdio_output@@AEAAX_K_N@Z 000000018012b280 f i libucrt:output.obj
 0001:0012a30c       ?crop_zeroes@__crt_stdio_output@@YAXPEADQEAU__crt_locale_pointers@@@Z 000000018012b30c f i libucrt:output.obj
 0001:0012a380       ?get_raw_ptd@__crt_cached_ptd_host@@QEAAPEAU__acrt_ptd@@XZ 000000018012b380 f i libucrt:output.obj
 0001:0012a3e8       ?parse_int_from_format_string@?$output_processor@DV?$string_output_adapter@D@__crt_stdio_output@@V?$format_validation_base@DV?$string_output_adapter@D@__crt_stdio_output@@@2@@__crt_stdio_output@@AEAA_NQEAH@Z 000000018012b3e8 f i libucrt:output.obj
 0001:0012a478       ?process@?$output_processor@DV?$string_output_adapter@D@__crt_stdio_output@@V?$format_validation_base@DV?$string_output_adapter@D@__crt_stdio_output@@@2@@__crt_stdio_output@@QEAAHXZ 000000018012b478 f i libucrt:output.obj
 0001:0012a808       ?state_case_size@?$output_processor@DV?$string_output_adapter@D@__crt_stdio_output@@V?$format_validation_base@DV?$string_output_adapter@D@__crt_stdio_output@@@2@@__crt_stdio_output@@AEAA_NXZ 000000018012b808 f i libucrt:output.obj
 0001:0012a98c       ?state_case_type@?$output_processor@DV?$string_output_adapter@D@__crt_stdio_output@@V?$format_validation_base@DV?$string_output_adapter@D@__crt_stdio_output@@@2@@__crt_stdio_output@@AEAA_NXZ 000000018012b98c f i libucrt:output.obj
 0001:0012ad58       ?type_case_Z@?$output_processor@DV?$string_output_adapter@D@__crt_stdio_output@@V?$format_validation_base@DV?$string_output_adapter@D@__crt_stdio_output@@@2@@__crt_stdio_output@@AEAA_NXZ 000000018012bd58 f i libucrt:output.obj
 0001:0012add0       ?type_case_a@?$output_processor@DV?$string_output_adapter@D@__crt_stdio_output@@V?$format_validation_base@DV?$string_output_adapter@D@__crt_stdio_output@@@2@@__crt_stdio_output@@AEAA_NXZ 000000018012bdd0 f i libucrt:output.obj
 0001:0012b01c       ?type_case_c_tchar@?$output_processor@DV?$string_output_adapter@D@__crt_stdio_output@@V?$format_validation_base@DV?$string_output_adapter@D@__crt_stdio_output@@@2@@__crt_stdio_output@@AEAA_ND@Z 000000018012c01c f i libucrt:output.obj
 0001:0012b0e0       ?type_case_n@?$output_processor@DV?$string_output_adapter@D@__crt_stdio_output@@V?$format_validation_base@DV?$string_output_adapter@D@__crt_stdio_output@@@2@@__crt_stdio_output@@AEAA_NXZ 000000018012c0e0 f i libucrt:output.obj
 0001:0012b194       ?type_case_s@?$output_processor@DV?$string_output_adapter@D@__crt_stdio_output@@V?$format_validation_base@DV?$string_output_adapter@D@__crt_stdio_output@@@2@@__crt_stdio_output@@AEAA_NXZ 000000018012c194 f i libucrt:output.obj
 0001:0012b230       ?update_locale_slow@__crt_cached_ptd_host@@AEAAXXZ 000000018012c230 f i libucrt:output.obj
 0001:0012b2a8       ?write_string@?$string_output_adapter@D@__crt_stdio_output@@QEBAXQEBDHQEAHAEAV__crt_cached_ptd_host@@@Z 000000018012c2a8 f i libucrt:output.obj
 0001:0012b34c       __stdio_common_vsprintf_s  000000018012c34c f   libucrt:output.obj
 0001:0012b460       ??$parse_integer@KV?$c_string_character_source@D@__crt_strtox@@$00@__crt_strtox@@YAKAEAV__crt_cached_ptd_host@@V?$c_string_character_source@D@0@H_N@Z 000000018012c460 f i libucrt:atox.obj
 0001:0012b740       _ischartype_l              000000018012c740 f i libucrt:atox.obj
 0001:0012b7b8       atol                       000000018012c7b8 f   libucrt:atox.obj
 0001:0012b880       strncmp                    000000018012c880 f   libucrt:strncmp.obj
 0001:0012b900       calloc                     000000018012c900 f   libucrt:calloc.obj
 0001:0012b908       wcsncmp                    000000018012c908 f   libucrt:wcsncmp.obj
 0001:0012b940       __remainder_piby2d2f_forAsm 000000018012c940 f   libucrt:remainder_piby2f_forasm.obj
 0001:0012ba90       __remainder_piby2_fma3     000000018012ca90 f   libucrt:remainder_piby2_forfma3.obj
 0001:0012bc80       __remainder_piby2_fma3_bdl 000000018012cc80 f   libucrt:remainder_piby2_forfma3.obj
 0001:0012bcf8       _cosf_special              000000018012ccf8 f   libucrt:sincos_special.obj
 0001:0012bd98       _sinf_special              000000018012cd98 f   libucrt:sincos_special.obj
 0001:0012bdac       _tanf_special              000000018012cdac f   libucrt:sincos_special.obj
 0001:0012bdc0       _clrfp                     000000018012cdc0 f   libucrt:fpctrl.obj
 0001:0012bde0       _ctrlfp                    000000018012cde0 f   libucrt:fpctrl.obj
 0001:0012be5c       _set_statfp                000000018012ce5c f   libucrt:fpctrl.obj
 0001:0012be7c       _statfp                    000000018012ce7c f   libucrt:fpctrl.obj
 0001:0012be90       __acrt_initialize_fma3     000000018012ce90 f   libucrt:fma3_available.obj
 0001:0012bf00       __remainder_piby2d2f_forC  000000018012cf00 f   libucrt:remainder_piby2f_forc.obj
 0001:0012c1b0       _handle_error              000000018012d1b0 f   libucrt:libm_error.obj
 0001:0012c2d8       _handle_errorf             000000018012d2d8 f   libucrt:libm_error.obj
 0001:0012c40c       _handle_nan                000000018012d40c f   libucrt:libm_error.obj
 0001:0012c428       _handle_nanf               000000018012d428 f   libucrt:libm_error.obj
 0001:0012c438       _free_base                 000000018012d438 f   libucrt:free_base.obj
 0001:0012c7ec       __acrt_freeptd             000000018012d7ec f   libucrt:per_thread_data.obj
 0001:0012c830       __acrt_getptd              000000018012d830 f   libucrt:per_thread_data.obj
 0001:0012c904       __acrt_getptd_head         000000018012d904 f   libucrt:per_thread_data.obj
 0001:0012c9a8       __acrt_getptd_noexit       000000018012d9a8 f   libucrt:per_thread_data.obj
 0001:0012ca70       __acrt_getptd_noexit_explicit 000000018012da70 f   libucrt:per_thread_data.obj
 0001:0012cb30       __acrt_initialize_ptd      000000018012db30 f   libucrt:per_thread_data.obj
 0001:0012cb6c       __acrt_uninitialize_ptd    000000018012db6c f   libucrt:per_thread_data.obj
 0001:0012cb90       __acrt_initialize_locks    000000018012db90 f   libucrt:locks.obj
 0001:0012cbd8       __acrt_lock                000000018012dbd8 f   libucrt:locks.obj
 0001:0012cbf4       __acrt_uninitialize_locks  000000018012dbf4 f   libucrt:locks.obj
 0001:0012cc2c       __acrt_unlock              000000018012dc2c f   libucrt:locks.obj
 0001:0012cc48       __acrt_get_process_end_policy 000000018012dc48 f   libucrt:win_policies.obj
 0001:0012cc84       ?get_raw_ptd_noexit@__crt_cached_ptd_host@@QEAAPEAU__acrt_ptd@@XZ 000000018012dc84 f i libucrt:invalid_parameter.obj
 0001:0012ccf0       ?value@?$dual_state_global@P6AXPEB_W00I_K@Z@__crt_state_management@@QEAAAEAP6AXPEB_W00I_K@ZAEAV__crt_cached_ptd_host@@@Z 000000018012dcf0 f i libucrt:invalid_parameter.obj
 0001:0012cd3c       __acrt_call_reportfault    000000018012dd3c f   libucrt:invalid_parameter.obj
 0001:0012ce98       __acrt_initialize_invalid_parameter_handler 000000018012de98 f   libucrt:invalid_parameter.obj
 0001:0012cea0       _invalid_parameter         000000018012dea0 f   libucrt:invalid_parameter.obj
 0001:0012cf3c       _invalid_parameter_internal 000000018012df3c f   libucrt:invalid_parameter.obj
 0001:0012d00c       _invalid_parameter_noinfo  000000018012e00c f   libucrt:invalid_parameter.obj
 0001:0012d02c       _invoke_watson             000000018012e02c f   libucrt:invalid_parameter.obj
 0001:0012d074       __acrt_errno_from_os_error 000000018012e074 f   libucrt:errno.obj
 0001:0012d0bc       __acrt_errno_map_os_error  000000018012e0bc f   libucrt:errno.obj
 0001:0012d104       __acrt_errno_map_os_error_ptd 000000018012e104 f   libucrt:errno.obj
 0001:0012d128       __doserrno                 000000018012e128 f   libucrt:errno.obj
 0001:0012d148       _errno                     000000018012e148 f   libucrt:errno.obj
 0001:0012d168       _calloc_base               000000018012e168 f   libucrt:calloc_base.obj
 0001:0012d1f4       ??$__acrt_convert_wcs_mbs_cp@D_WV<lambda_7c9dea7b4ca7285d2cdb541a38da6275>@@U__crt_win32_buffer_internal_dynamic_resizing@@@@YAHQEBDAEAV?$__crt_win32_buffer@_WU__crt_win32_buffer_internal_dynamic_resizing@@@@AEBV<lambda_7c9dea7b4ca7285d2cdb541a38da6275>@@I@Z 000000018012e1f4 f i libucrt:argv_wildcards.obj
 0001:0012d370       ??$__acrt_convert_wcs_mbs_cp@_WDV<lambda_d8593a27d1aa8c02be35c86a17d324c4>@@U__crt_win32_buffer_internal_dynamic_resizing@@@@YAHQEB_WAEAV?$__crt_win32_buffer@DU__crt_win32_buffer_internal_dynamic_resizing@@@@AEBV<lambda_d8593a27d1aa8c02be35c86a17d324c4>@@I@Z 000000018012e370 f i libucrt:argv_wildcards.obj
 0001:0012dc18       ??0_LocaleUpdate@@QEAA@QEAU__crt_locale_pointers@@@Z 000000018012ec18 f i libucrt:argv_wildcards.obj
 0001:0012dcb4       __acrt_expand_narrow_argv_wildcards 000000018012ecb4 f   libucrt:argv_wildcards.obj
 0001:0012dcbc       ??$__acrt_convert_wcs_mbs_cp@_WDV<lambda_f788ae46380686e8b737efdd8c720d07>@@U__crt_win32_buffer_no_resizing@@@@YAHQEB_WAEAV?$__crt_win32_buffer@DU__crt_win32_buffer_no_resizing@@@@AEBV<lambda_f788ae46380686e8b737efdd8c720d07>@@I@Z 000000018012ecbc f i libucrt:getmodulefilenamea.obj
 0001:0012ddd8       __acrt_GetModuleFileNameA  000000018012edd8 f   libucrt:getmodulefilenamea.obj
 0001:0012e6f4       __acrt_initialize_multibyte 000000018012f6f4 f   libucrt:mbctype.obj
 0001:0012e754       __acrt_update_thread_multibyte_data 000000018012f754 f   libucrt:mbctype.obj
 0001:0012e770       _setmbcp_nolock            000000018012f770 f   libucrt:mbctype.obj
 0001:0012eaa4       _ismbblead                 000000018012faa4 f   libucrt:ismbbyte.obj
 0001:0012eab8       __acrt_initialize_command_line 000000018012fab8 f   libucrt:argv_data.obj
 0001:0012eae0       __acrt_MultiByteToWideChar 000000018012fae0 f   libucrt:multibytetowidechar.obj
 0001:0012eb3c       __acrt_WideCharToMultiByte 000000018012fb3c f   libucrt:widechartomultibyte.obj
 0001:0012ebec       __dcrt_get_narrow_environment_from_os 000000018012fbec f   libucrt:get_environment_from_os.obj
 0001:0012ecfc       _recalloc_base             000000018012fcfc f   libucrt:recalloc.obj
 0001:0012ef54       __acrt_AppPolicyGetProcessTerminationMethodInternal 000000018012ff54 f   libucrt:winapi_thunks.obj
 0001:0012efac       __acrt_AreFileApisANSI     000000018012ffac f   libucrt:winapi_thunks.obj
 0001:0012eff0       __acrt_FlsAlloc            000000018012fff0 f   libucrt:winapi_thunks.obj
 0001:0012eff8       __acrt_FlsFree             000000018012fff8 f   libucrt:winapi_thunks.obj
 0001:0012f000       __acrt_FlsGetValue         0000000180130000 f   libucrt:winapi_thunks.obj
 0001:0012f008       __acrt_FlsSetValue         0000000180130008 f   libucrt:winapi_thunks.obj
 0001:0012f010       __acrt_InitializeCriticalSectionEx 0000000180130010 f   libucrt:winapi_thunks.obj
 0001:0012f080       __acrt_LCMapStringEx       0000000180130080 f   libucrt:winapi_thunks.obj
 0001:0012f16c       __acrt_LocaleNameToLCID    000000018013016c f   libucrt:winapi_thunks.obj
 0001:0012f1cc       __acrt_initialize_winapi_thunks 00000001801301cc f   libucrt:winapi_thunks.obj
 0001:0012f1f0       __acrt_uninitialize_winapi_thunks 00000001801301f0 f   libucrt:winapi_thunks.obj
 0001:0012f234       __acrt_initialize_heap     0000000180130234 f   libucrt:heap_handle.obj
 0001:0012f250       __acrt_uninitialize_heap   0000000180130250 f   libucrt:heap_handle.obj
 0001:0012f454       __acrt_initialize_lowio    0000000180130454 f   libucrt:ioinit.obj
 0001:0012f490       __acrt_uninitialize_lowio  0000000180130490 f   libucrt:ioinit.obj
 0001:0012f4d0       __acrt_execute_initializers 00000001801304d0 f   libucrt:shared_initialization.obj
 0001:0012f564       __acrt_execute_uninitializers 0000000180130564 f   libucrt:shared_initialization.obj
 0001:0012f5ac       __acrt_initialize_new_handler 00000001801305ac f   libucrt:new_handler.obj
 0001:0012f5b4       _callnewh                  00000001801305b4 f   libucrt:new_handler.obj
 0001:0012f5f0       _query_new_handler         00000001801305f0 f   libucrt:new_handler.obj
 0001:0012f66c       __acrt_get_sigabrt_handler 000000018013066c f   libucrt:signal.obj
 0001:0012f69c       __acrt_initialize_signal_handlers 000000018013069c f   libucrt:signal.obj
 0001:0012f6bc       raise                      00000001801306bc f   libucrt:signal.obj
 0001:0012f93c       __acrt_has_user_matherr    000000018013093c f   libucrt:matherr.obj
 0001:0012f95c       __acrt_initialize_user_matherr 000000018013095c f   libucrt:matherr.obj
 0001:0012f964       __acrt_invoke_user_matherr 0000000180130964 f   libucrt:matherr.obj
 0001:0012fb78       __acrt_stdio_flush_nolock  0000000180130b78 f   libucrt:fflush.obj
 0001:0012fc04       _fflush_nolock             0000000180130c04 f   libucrt:fflush.obj
 0001:0012fcd8       _flushall                  0000000180130cd8 f   libucrt:fflush.obj
 0001:0012fce0       __acrt_initialize_stdio    0000000180130ce0 f   libucrt:_file.obj
 0001:0012fe00       __acrt_uninitialize_stdio  0000000180130e00 f   libucrt:_file.obj
 0001:0012fe5c       _lock_file                 0000000180130e5c f   libucrt:_file.obj
 0001:0012fe68       _unlock_file               0000000180130e68 f   libucrt:_file.obj
 0001:0012fe74       _malloc_base               0000000180130e74 f   libucrt:malloc_base.obj
 0001:0012fed4       strnlen                    0000000180130ed4 f   libucrt:strnlen.obj
 0001:00130024       wcsnlen                    0000000180131024 f   libucrt:strnlen.obj
 0001:001301fc       __acrt_update_locale_info  00000001801311fc f   libucrt:locale_update.obj
 0001:00130230       __acrt_update_locale_info_explicit 0000000180131230 f   libucrt:locale_update.obj
 0001:00130268       __acrt_update_multibyte_info 0000000180131268 f   libucrt:locale_update.obj
 0001:0013029c       __acrt_update_multibyte_info_explicit 000000018013129c f   libucrt:locale_update.obj
 0001:00130e04       __acrt_fp_format           0000000180131e04 f   libucrt:cvt.obj
 0001:001310ec       _wctomb_internal           00000001801320ec f   libucrt:wctomb.obj
 0001:0013129c       _mbtowc_internal           000000018013229c f   libucrt:mbtowc.obj
 0001:00131414       _fileno                    0000000180132414 f   libucrt:fileno.obj
 0001:0013143c       _get_printf_count_output   000000018013243c f   libucrt:printf_count_output.obj
 0001:001314c4       __acrt_set_locale_changed  00000001801324c4 f   libucrt:wsetlocale.obj
 0001:001314d0       __acrt_uninitialize_locale 00000001801324d0 f   libucrt:wsetlocale.obj
 0001:00131500       __pctype_func              0000000180132500 f   libucrt:ctype.obj
 0001:00131530       _isctype_l                 0000000180132530 f   libucrt:isctype.obj
 0001:00131650       _get_fpsr                  0000000180132650 f   libucrt:fpsr.obj
 0001:00131660       _set_fpsr                  0000000180132660 f   libucrt:fpsr.obj
 0001:0013166a       _fclrf                     000000018013266a f   libucrt:fpsr.obj
 0001:0013167e       _frnd                      000000018013267e f   libucrt:fpsr.obj
 0001:001316a0       _raise_exc                 00000001801326a0 f   libucrt:fpexcept.obj
 0001:001316c8       _raise_exc_ex              00000001801326c8 f   libucrt:fpexcept.obj
 0001:001319d8       _raise_excf                00000001801329d8 f   libucrt:fpexcept.obj
 0001:00131a04       _set_errno_from_matherr    0000000180132a04 f   libucrt:fpexcept.obj
 0001:00131a34       __acrt_add_locale_ref      0000000180132a34 f   libucrt:locale_refcounting.obj
 0001:00131ac0       __acrt_free_locale         0000000180132ac0 f   libucrt:locale_refcounting.obj
 0001:00131c38       __acrt_locale_add_lc_time_reference 0000000180132c38 f   libucrt:locale_refcounting.obj
 0001:00131c60       __acrt_locale_free_lc_time_if_unreferenced 0000000180132c60 f   libucrt:locale_refcounting.obj
 0001:00131c98       __acrt_locale_release_lc_time_reference 0000000180132c98 f   libucrt:locale_refcounting.obj
 0001:00131cc0       __acrt_release_locale_ref  0000000180132cc0 f   libucrt:locale_refcounting.obj
 0001:00131d68       __acrt_update_thread_locale_data 0000000180132d68 f   libucrt:locale_refcounting.obj
 0001:00131dd8       _updatetlocinfoEx_nolock   0000000180132dd8 f   libucrt:locale_refcounting.obj
 0001:00131e40       _query_new_mode            0000000180132e40 f   libucrt:new_mode.obj
 0001:00131e50       qsort                      0000000180132e50 f   libucrt:qsort.obj
 0001:00132260       strncpy_s                  0000000180133260 f   libucrt:strncpy_s.obj
 0001:001323f0       strpbrk                    00000001801333f0 f   libucrt:strpbrk.obj
 0001:001327b8       _mbsdec                    00000001801337b8 f   libucrt:mbsdec.obj
 0001:001327c0       _mbsdec_l                  00000001801337c0 f   libucrt:mbsdec.obj
 0001:00132854       __acrt_GetStringTypeA      0000000180133854 f   libucrt:getstringtypea.obj
 0001:00132d10       __acrt_LCMapStringA        0000000180133d10 f   libucrt:lcmapstringa.obj
 0001:00132dc0       _msize_base                0000000180133dc0 f   libucrt:msize.obj
 0001:00132dfc       _realloc_base              0000000180133dfc f   libucrt:realloc_base.obj
 0001:00132e78       __acrt_DownlevelLocaleNameToLCID 0000000180133e78 f   libucrt:lcidtoname_downlevel.obj
 0001:00132f20       __acrt_lowio_create_handle_array 0000000180133f20 f   libucrt:osfinfo.obj
 0001:00132fc8       __acrt_lowio_destroy_handle_array 0000000180133fc8 f   libucrt:osfinfo.obj
 0001:00133018       __acrt_lowio_ensure_fh_exists 0000000180134018 f   libucrt:osfinfo.obj
 0001:001330c0       __acrt_lowio_lock_fh       00000001801340c0 f   libucrt:osfinfo.obj
 0001:001330e8       __acrt_lowio_unlock_fh     00000001801340e8 f   libucrt:osfinfo.obj
 0001:00133110       _free_osfhnd               0000000180134110 f   libucrt:osfinfo.obj
 0001:001331cc       _get_osfhandle             00000001801341cc f   libucrt:osfinfo.obj
 0001:001332d0       _commit                    00000001801342d0 f   libucrt:commit.obj
 0001:00133b80       _write_internal            0000000180134b80 f   libucrt:write.obj
 0001:00133ca8       _write_nolock              0000000180134ca8 f   libucrt:write.obj
 0001:00133fb8       _fcloseall                 0000000180134fb8 f   libucrt:closeall.obj
 0001:0013406c       __acrt_stdio_free_buffer_nolock 000000018013506c f   libucrt:_freebuf.obj
 0001:001340ac       _isatty                    00000001801350ac f   libucrt:isatty.obj
 0001:0013410c       __acrt_fp_strflt_to_string 000000018013510c f   libucrt:_fptostr.obj
 0001:00134290       ?divide@__crt_strtox@@YA_KAEAUbig_integer@1@AEBU21@@Z 0000000180135290 f i libucrt:cfout.obj
 0001:0013471c       __acrt_fltout              000000018013571c f   libucrt:cfout.obj
 0001:001359e4       fegetround                 00000001801369e4 f   libucrt:fegetround.obj
 0001:001359f8       ?__c32rtomb_utf8@__crt_mbstring@@YA_KPEAD_UPEAU_Mbstatet@@AEAV__crt_cached_ptd_host@@@Z 00000001801369f8 f   libucrt:c32rtomb.obj
 0001:00135a9c       ?__mbrtowc_utf8@__crt_mbstring@@YA_KPEA_WPEBD_KPEAU_Mbstatet@@AEAV__crt_cached_ptd_host@@@Z 0000000180136a9c f   libucrt:mbrtowc.obj
 0001:00135ae0       ?__mbsrtowcs_utf8@__crt_mbstring@@YA_KPEA_WPEAPEBD_KPEAU_Mbstatet@@AEAV__crt_cached_ptd_host@@@Z 0000000180136ae0 f   libucrt:mbrtowc.obj
 0001:00135c84       __acrt_locale_free_monetary 0000000180136c84 f   libucrt:initmon.obj
 0001:00135d90       __acrt_locale_free_numeric 0000000180136d90 f   libucrt:initnum.obj
 0001:00135e30       __acrt_locale_free_time    0000000180136e30 f   libucrt:inittime.obj
 0001:00135f38       __strncnt                  0000000180136f38 f   libucrt:strncnt.obj
 0001:00135f50       __ascii_wcsnicmp           0000000180136f50 f   libucrt:wcsnicmp.obj
 0001:00135f9c       _query_app_type            0000000180136f9c f   libucrt:report_runtime_error.obj
 0001:00136050       _lseeki64_nolock_internal  0000000180137050 f   libucrt:lseek.obj
 0001:00136058       _putwch_nolock             0000000180137058 f   libucrt:putwch.obj
 0001:001361b4       fclose                     00000001801371b4 f   libucrt:fclose.obj
 0001:0013624c       _controlfp_s               000000018013724c f   libucrt:contrlfp.obj
 0001:001362b0       fegetenv                   00000001801372b0 f   libucrt:fegetenv.obj
 0001:001362d0       fesetenv                   00000001801372d0 f   libucrt:fesetenv.obj
 0001:0013631c       feholdexcept               000000018013731c f   libucrt:feholdexcept.obj
 0001:0013636c       ceil                       000000018013736c f   libucrt:ceil.obj
 0001:00136430       log10                      0000000180137430 f   libucrt:log10.obj
 0001:001369dc       __acrt_fenv_get_common_round_control 00000001801379dc f   libucrt:_fenvutils.obj
 0001:001369e8       __acrt_fenv_get_control    00000001801379e8 f   libucrt:_fenvutils.obj
 0001:00136acc       __acrt_fenv_get_status     0000000180137acc f   libucrt:_fenvutils.obj
 0001:00136b24       __acrt_fenv_set_control    0000000180137b24 f   libucrt:_fenvutils.obj
 0001:00136c60       __acrt_fenv_set_status     0000000180137c60 f   libucrt:_fenvutils.obj
 0001:00136cd4       ?reset_and_return@__crt_mbstring@@YA_K_KPEAU_Mbstatet@@@Z 0000000180137cd4 f   libucrt:common_utf8.obj
 0001:00136cdc       ?return_illegal_sequence@__crt_mbstring@@YA_KPEAU_Mbstatet@@AEAV__crt_cached_ptd_host@@@Z 0000000180137cdc f   libucrt:common_utf8.obj
 0001:00136cf0       ?__mbrtoc32_utf8@__crt_mbstring@@YA_KPEA_UPEBD_KPEAU_Mbstatet@@AEAV__crt_cached_ptd_host@@@Z 0000000180137cf0 f   libucrt:mbrtoc32.obj
 0001:00136ecc       __dcrt_lowio_ensure_console_output_initialized 0000000180137ecc f   libucrt:initcon.obj
 0001:00136f20       __dcrt_terminate_console_output 0000000180137f20 f   libucrt:initcon.obj
 0001:00136f3c       __dcrt_write_console       0000000180137f3c f   libucrt:initcon.obj
 0001:00137074       _close_internal            0000000180138074 f   libucrt:close.obj
 0001:00137138       _close_nolock_internal     0000000180138138 f   libucrt:close.obj
 0001:00137208       ?__acrt_stdio_free_stream@@YAXV__crt_stdio_stream@@@Z 0000000180138208 f   libucrt:stream.obj
 0001:00137224       _clearfp                   0000000180138224 f   libucrt:ieee.obj
 0001:00137294       _control87                 0000000180138294 f   libucrt:ieee.obj
 0001:00137560       _log10_special             0000000180138560 f   libucrt:log_special.obj
 0001:00137616       IsProcessorFeaturePresent  0000000180138616 f   kernel32:KERNEL32.dll
 0001:00137620       _FindPESection             0000000180138620 f   LIBCMT:pesect.obj
 0001:00137670       _IsNonwritableInCurrentImage 0000000180138670 f   LIBCMT:pesect.obj
 0001:001376c0       _ValidateImageBase         00000001801386c0 f   LIBCMT:pesect.obj
 0001:001376f0       __GSHandlerCheck           00000001801386f0 f   LIBCMT:gshandler.obj
 0001:00137710       __GSHandlerCheckCommon     0000000180138710 f   LIBCMT:gshandler.obj
 0001:00137780       __security_check_cookie    0000000180138780 f   LIBCMT:amdsecgs.obj
 0001:001377a4       __GSHandlerCheck_SEH       00000001801387a4 f   LIBCMT:gshandlerseh.obj
 0001:0013782c       __raise_securityfailure    000000018013882c f   LIBCMT:gs_report.obj
 0001:00137860       __report_gsfailure         0000000180138860 f   LIBCMT:gs_report.obj
 0001:00137934       __report_rangecheckfailure 0000000180138934 f   LIBCMT:gs_report.obj
 0001:00137948       __report_securityfailure   0000000180138948 f   LIBCMT:gs_report.obj
 0001:00137ac8       __GSHandlerCheck_EH        0000000180138ac8 f   LIBCMT:gshandlereh.obj
 0001:00137b48       __C_specific_handler_noexcept 0000000180138b48 f   libvcruntime:chandler_noexcept.obj
 0001:00137b94       strrchr                    0000000180138b94 f   libvcruntime:strrchr.obj
 0001:00137ce0       memcmp                     0000000180138ce0 f   libvcruntime:memcmp.obj
 0001:00137dc0       _guard_dispatch_icall_nop  0000000180138dc0 f   LIBCMT:guard_dispatch.obj
 0001:00137de0       _guard_xfg_dispatch_icall_nop 0000000180138de0 f   LIBCMT:guard_xfg_dispatch.obj
 0002:00000000       __imp_FreeLibrary          000000018013a000     kernel32:KERNEL32.dll
 0002:00000008       __imp_GetProcAddress       000000018013a008     kernel32:KERNEL32.dll
 0002:00000010       __imp_LoadLibraryA         000000018013a010     kernel32:KERNEL32.dll
 0002:00000018       __imp_WriteConsoleW        000000018013a018     kernel32:KERNEL32.dll
 0002:00000020       __imp_RaiseException       000000018013a020     kernel32:KERNEL32.dll
 0002:00000028       __imp_GetLastError         000000018013a028     kernel32:KERNEL32.dll
 0002:00000030       __imp_GetSystemInfo        000000018013a030     kernel32:KERNEL32.dll
 0002:00000038       __imp_VirtualProtect       000000018013a038     kernel32:KERNEL32.dll
 0002:00000040       __imp_VirtualQuery         000000018013a040     kernel32:KERNEL32.dll
 0002:00000048       __imp_GetModuleHandleW     000000018013a048     kernel32:KERNEL32.dll
 0002:00000050       __imp_LoadLibraryExA       000000018013a050     kernel32:KERNEL32.dll
 0002:00000058       __imp_InitializeSListHead  000000018013a058     kernel32:KERNEL32.dll
 0002:00000060       __imp_QueryPerformanceCounter 000000018013a060     kernel32:KERNEL32.dll
 0002:00000068       __imp_GetCurrentProcessId  000000018013a068     kernel32:KERNEL32.dll
 0002:00000070       __imp_GetCurrentThreadId   000000018013a070     kernel32:KERNEL32.dll
 0002:00000078       __imp_GetSystemTimeAsFileTime 000000018013a078     kernel32:KERNEL32.dll
 0002:00000080       __imp_RtlCaptureContext    000000018013a080     kernel32:KERNEL32.dll
 0002:00000088       __imp_RtlLookupFunctionEntry 000000018013a088     kernel32:KERNEL32.dll
 0002:00000090       __imp_RtlVirtualUnwind     000000018013a090     kernel32:KERNEL32.dll
 0002:00000098       __imp_IsDebuggerPresent    000000018013a098     kernel32:KERNEL32.dll
 0002:000000a0       __imp_UnhandledExceptionFilter 000000018013a0a0     kernel32:KERNEL32.dll
 0002:000000a8       __imp_SetUnhandledExceptionFilter 000000018013a0a8     kernel32:KERNEL32.dll
 0002:000000b0       __imp_GetStartupInfoW      000000018013a0b0     kernel32:KERNEL32.dll
 0002:000000b8       __imp_IsProcessorFeaturePresent 000000018013a0b8     kernel32:KERNEL32.dll
 0002:000000c0       __imp_InterlockedPushEntrySList 000000018013a0c0     kernel32:KERNEL32.dll
 0002:000000c8       __imp_InterlockedFlushSList 000000018013a0c8     kernel32:KERNEL32.dll
 0002:000000d0       __imp_RtlUnwindEx          000000018013a0d0     kernel32:KERNEL32.dll
 0002:000000d8       __imp_SetLastError         000000018013a0d8     kernel32:KERNEL32.dll
 0002:000000e0       __imp_EnterCriticalSection 000000018013a0e0     kernel32:KERNEL32.dll
 0002:000000e8       __imp_LeaveCriticalSection 000000018013a0e8     kernel32:KERNEL32.dll
 0002:000000f0       __imp_DeleteCriticalSection 000000018013a0f0     kernel32:KERNEL32.dll
 0002:000000f8       __imp_InitializeCriticalSectionAndSpinCount 000000018013a0f8     kernel32:KERNEL32.dll
 0002:00000100       __imp_TlsAlloc             000000018013a100     kernel32:KERNEL32.dll
 0002:00000108       __imp_TlsGetValue          000000018013a108     kernel32:KERNEL32.dll
 0002:00000110       __imp_TlsSetValue          000000018013a110     kernel32:KERNEL32.dll
 0002:00000118       __imp_TlsFree              000000018013a118     kernel32:KERNEL32.dll
 0002:00000120       __imp_LoadLibraryExW       000000018013a120     kernel32:KERNEL32.dll
 0002:00000128       __imp_EncodePointer        000000018013a128     kernel32:KERNEL32.dll
 0002:00000130       __imp_RtlPcToFileHeader    000000018013a130     kernel32:KERNEL32.dll
 0002:00000138       __imp_GetCurrentProcess    000000018013a138     kernel32:KERNEL32.dll
 0002:00000140       __imp_ExitProcess          000000018013a140     kernel32:KERNEL32.dll
 0002:00000148       __imp_TerminateProcess     000000018013a148     kernel32:KERNEL32.dll
 0002:00000150       __imp_GetModuleHandleExW   000000018013a150     kernel32:KERNEL32.dll
 0002:00000158       __imp_GetModuleFileNameW   000000018013a158     kernel32:KERNEL32.dll
 0002:00000160       __imp_HeapFree             000000018013a160     kernel32:KERNEL32.dll
 0002:00000168       __imp_HeapAlloc            000000018013a168     kernel32:KERNEL32.dll
 0002:00000170       __imp_FindClose            000000018013a170     kernel32:KERNEL32.dll
 0002:00000178       __imp_FindFirstFileExW     000000018013a178     kernel32:KERNEL32.dll
 0002:00000180       __imp_FindNextFileW        000000018013a180     kernel32:KERNEL32.dll
 0002:00000188       __imp_IsValidCodePage      000000018013a188     kernel32:KERNEL32.dll
 0002:00000190       __imp_GetACP               000000018013a190     kernel32:KERNEL32.dll
 0002:00000198       __imp_GetOEMCP             000000018013a198     kernel32:KERNEL32.dll
 0002:000001a0       __imp_GetCPInfo            000000018013a1a0     kernel32:KERNEL32.dll
 0002:000001a8       __imp_GetCommandLineA      000000018013a1a8     kernel32:KERNEL32.dll
 0002:000001b0       __imp_GetCommandLineW      000000018013a1b0     kernel32:KERNEL32.dll
 0002:000001b8       __imp_MultiByteToWideChar  000000018013a1b8     kernel32:KERNEL32.dll
 0002:000001c0       __imp_WideCharToMultiByte  000000018013a1c0     kernel32:KERNEL32.dll
 0002:000001c8       __imp_GetEnvironmentStringsW 000000018013a1c8     kernel32:KERNEL32.dll
 0002:000001d0       __imp_FreeEnvironmentStringsW 000000018013a1d0     kernel32:KERNEL32.dll
 0002:000001d8       __imp_FlsAlloc             000000018013a1d8     kernel32:KERNEL32.dll
 0002:000001e0       __imp_FlsGetValue          000000018013a1e0     kernel32:KERNEL32.dll
 0002:000001e8       __imp_FlsSetValue          000000018013a1e8     kernel32:KERNEL32.dll
 0002:000001f0       __imp_FlsFree              000000018013a1f0     kernel32:KERNEL32.dll
 0002:000001f8       __imp_LCMapStringW         000000018013a1f8     kernel32:KERNEL32.dll
 0002:00000200       __imp_GetProcessHeap       000000018013a200     kernel32:KERNEL32.dll
 0002:00000208       __imp_GetStdHandle         000000018013a208     kernel32:KERNEL32.dll
 0002:00000210       __imp_GetFileType          000000018013a210     kernel32:KERNEL32.dll
 0002:00000218       __imp_GetStringTypeW       000000018013a218     kernel32:KERNEL32.dll
 0002:00000220       __imp_HeapSize             000000018013a220     kernel32:KERNEL32.dll
 0002:00000228       __imp_HeapReAlloc          000000018013a228     kernel32:KERNEL32.dll
 0002:00000230       __imp_SetStdHandle         000000018013a230     kernel32:KERNEL32.dll
 0002:00000238       __imp_FlushFileBuffers     000000018013a238     kernel32:KERNEL32.dll
 0002:00000240       __imp_WriteFile            000000018013a240     kernel32:KERNEL32.dll
 0002:00000248       __imp_GetConsoleOutputCP   000000018013a248     kernel32:KERNEL32.dll
 0002:00000250       __imp_GetConsoleMode       000000018013a250     kernel32:KERNEL32.dll
 0002:00000258       __imp_SetFilePointerEx     000000018013a258     kernel32:KERNEL32.dll
 0002:00000260       __imp_CreateFileW          000000018013a260     kernel32:KERNEL32.dll
 0002:00000268       __imp_CloseHandle          000000018013a268     kernel32:KERNEL32.dll
 0002:00000270       \177KERNEL32_NULL_THUNK_DATA 000000018013a270     kernel32:KERNEL32.dll
 0002:00000278       __guard_check_icall_fptr   000000018013a278     LIBCMT:guard_support.obj
 0002:00000280       __guard_xfg_check_icall_fptr 000000018013a280     LIBCMT:guard_support.obj
 0002:00000288       __guard_dispatch_icall_fptr 000000018013a288     LIBCMT:guard_support.obj
 0002:00000290       __guard_xfg_dispatch_icall_fptr 000000018013a290     LIBCMT:guard_support.obj
 0002:00000298       __guard_xfg_table_dispatch_icall_fptr 000000018013a298     LIBCMT:guard_support.obj
 0002:000002a0       __xc_a                     000000018013a2a0     LIBCMT:initializers.obj
 0002:000016d0       __xc_z                     000000018013b6d0     LIBCMT:initializers.obj
 0002:000016d8       __xi_a                     000000018013b6d8     LIBCMT:initializers.obj
 0002:000016e0       __acrt_tran_fma3_initializer 000000018013b6e0     libucrt:fma3_initializer.obj
 0002:000016e8       __acrt_multibyte_initializer 000000018013b6e8     libucrt:multibyte_initializer.obj
 0002:000016f0       __acrt_stdio_initializer   000000018013b6f0     libucrt:stdio_initializer.obj
 0002:000016f8       __xi_z                     000000018013b6f8     LIBCMT:initializers.obj
 0002:00001700       __xp_a                     000000018013b700     LIBCMT:initializers.obj
 0002:00001708       __acrt_locale_terminator   000000018013b708     libucrt:locale_initializer.obj
 0002:00001710       __dcrt_console_output_terminator 000000018013b710     libucrt:console_output_initializer.obj
 0002:00001718       __acrt_stdio_terminator    000000018013b718     libucrt:stdio_initializer.obj
 0002:00001720       __xp_z                     000000018013b720     LIBCMT:initializers.obj
 0002:00001728       __xt_a                     000000018013b728     LIBCMT:initializers.obj
 0002:00001730       __xt_z                     000000018013b730     LIBCMT:initializers.obj
 0002:00001740       ??_7PxCollection@physx@@6B@ 000000018013b740     CmCollection.obj
 0002:000017c0       ??_C@_0BA@DLCJDKDM@NonTrackedAlloc@ 000000018013b7c0     CmCollection.obj
 0002:000017d0       ??_7Collection@Cm@physx@@6B@ 000000018013b7d0     CmCollection.obj
 0002:00001850       ??_C@_0GE@GBACBMOC@PxCollection?3?3add?5called?5for?5an@ 000000018013b850     CmCollection.obj
 0002:000018b8       ??_C@_0DJ@EBLHBPMG@D?3?2Github?2PhysX?2physx?2source?2co@ 000000018013b8b8     CmCollection.obj
 0002:00001900       ??_C@_0EM@OMMGDOMK@PxCollection?3?3add?5called?5with?5a@ 000000018013b900     CmCollection.obj
 0002:00001950       ??_C@_0EC@DPCGGMAB@D?3?2Github?2PhysX?2physx?2source?2fo@ 000000018013b950     CmCollection.obj
 0002:00001998       ??_C@_0BM@OIFKLHDN@?$DMallocation?5names?5disabled?$DO@ 000000018013b998     CmCollection.obj
 0002:000019b8       ??_C@_08MDGMHCHN@PtrTable@ 000000018013b9b8     CmPtrTable.obj
 0002:000019c4       ??_C@_04GKJNKENE@void@     000000018013b9c4     CmPtrTable.obj
 0002:000019d0       ??_C@_07DFEBJDHE@mSingle@  000000018013b9d0     CmPtrTable.obj
 0002:000019d8       ??_C@_05NLHHBMOH@PxU16@    000000018013b9d8     CmPtrTable.obj
 0002:000019e0       ??_C@_06EPKHJPIM@mCount@   000000018013b9e0     CmPtrTable.obj
 0002:000019e8       ??_C@_04DDKJGDCM@bool@     000000018013b9e8     CmPtrTable.obj
 0002:000019f0       ??_C@_0M@DAGELID@mOwnsMemory@ 000000018013b9f0     CmPtrTable.obj
 0002:00001a00       ??_C@_0M@MMPOMMLP@mBufferUsed@ 000000018013ba00     CmPtrTable.obj
 0002:00001a10       ??_7RadixSort@Cm@physx@@6B@ 000000018013ba10     CmRadixSort.obj
 0002:00001a20       __xmm@00000001000000010000000100000001 000000018013ba20     CmRadixSort.obj
 0002:00001a30       __xmm@00000003000000020000000100000000 000000018013ba30     CmRadixSort.obj
 0002:00001a40       ??_7RadixSortBuffered@Cm@physx@@6B@ 000000018013ba40     CmRadixSortBuffered.obj
 0002:00001a50       ??_C@_0EA@KIPGKNOP@D?3?2Github?2PhysX?2physx?2source?2co@ 000000018013ba50     CmRadixSortBuffered.obj
 0002:00001a90       ?sBufferSize@DebugText@Cm@physx@@2HB 000000018013ba90     CmRenderOutput.obj
 0002:00001a98       ??_C@_0DK@MJHOGEE@D?3?2Github?2PhysX?2physx?2source?2fo@ 000000018013ba98     CmRenderOutput.obj
 0002:00001ad4       __real@3e19999a            000000018013bad4     CmRenderOutput.obj
 0002:00001ad8       __real@3e800000            000000018013bad8     CmRenderOutput.obj
 0002:00001adc       __real@3f3504f3            000000018013badc     CmRenderOutput.obj
 0002:00001ae0       __real@3f800000            000000018013bae0     CmRenderOutput.obj
 0002:00001ae4       __real@3fddb3d7            000000018013bae4     CmRenderOutput.obj
 0002:00001ae8       __real@40c90fdb            000000018013bae8     CmRenderOutput.obj
 0002:00001af0       __xmm@7fffffff7fffffff7fffffff7fffffff 000000018013baf0     CmRenderOutput.obj
 0002:00001b00       __xmm@80000000800000008000000080000000 000000018013bb00     CmRenderOutput.obj
 0002:00001b10       __real@3d4ccccd            000000018013bb10     CmVisualization.obj
 0002:00001b14       __real@3e490fdb            000000018013bb14     CmVisualization.obj
 0002:00001b18       __real@3e99999a            000000018013bb18     CmVisualization.obj
 0002:00001b1c       __real@3f000000            000000018013bb1c     CmVisualization.obj
 0002:00001b20       __real@3fc00000            000000018013bb20     CmVisualization.obj
 0002:00001b24       __real@c0000000            000000018013bb24     CmVisualization.obj
 0002:00001b30       __xmm@3f800000000000000000000000000000 000000018013bb30     CmVisualization.obj
 0002:00001b40       ??_C@_0BB@CPDDPFKD@GetUpdatedModule@ 000000018013bb40     CmWindowsModuleUpdateLoader.obj
 0002:00001b58       ??_C@_0BA@EGLNOO@PhysXFoundation@ 000000018013bb58     CmWindowsDelayLoadHook.obj
 0002:00001b68       ??_C@_0M@ILKNCJKN@PhysXCommon@ 000000018013bb68     CmWindowsDelayLoadHook.obj
 0002:00001ba0       ??_C@_06EJKDJEDO@PxBase@   000000018013bba0     GuBounds.obj
 0002:00001ba8       ??_C@_0N@CDGINLLF@PxConvexMesh@ 000000018013bba8     GuBounds.obj
 0002:00001bb8       ??_C@_0O@PBAKPCEC@PxHeightField@ 000000018013bbb8     GuBounds.obj
 0002:00001bc8       ??_7PxBase@physx@@6B@      000000018013bbc8     GuBounds.obj
 0002:00001bf0       ??_C@_0DG@DFOCGHP@Gu?3?3GeometryUnion?3?3computeBound@ 000000018013bbf0     GuBounds.obj
 0002:00001c28       ??_C@_0DI@MGDMKKPE@D?3?2Github?2PhysX?2physx?2source?2ge@ 000000018013bc28     GuBounds.obj
 0002:00001c60       __real@358637bd            000000018013bc60     GuBounds.obj
 0002:00001c64       __real@3f400000            000000018013bc64     GuBounds.obj
 0002:00001c68       __real@3f7fffef            000000018013bc68     GuBounds.obj
 0002:00001c6c       __real@3f8147ae            000000018013bc6c     GuBounds.obj
 0002:00001c70       __real@7e7fffff            000000018013bc70     GuBounds.obj
 0002:00001c74       __real@7f7fffff            000000018013bc74     GuBounds.obj
 0002:00001c78       __real@fe7fffff            000000018013bc78     GuBounds.obj
 0002:00001c80       __xmm@000000003a83126f3a83126f3a83126f 000000018013bc80     GuBounds.obj
 0002:00001c90       __xmm@00000000ba83126fba83126fba83126f 000000018013bc90     GuBounds.obj
 0002:00001ca0       __xmm@3a83126f3a83126f3a83126f3a83126f 000000018013bca0     GuBounds.obj
 0002:00001cb0       __xmm@3f0000003f0000003f0000003f000000 000000018013bcb0     GuBounds.obj
 0002:00001cc0       __xmm@3f8147ae3f8147ae3f8147ae3f8147ae 000000018013bcc0     GuBounds.obj
 0002:00001cd0       __xmm@ba83126fba83126fba83126fba83126f 000000018013bcd0     GuBounds.obj
 0002:00001d00       __real@3f7ff972            000000018013bd00     GuBox.obj
 0002:00001d30       ??_7?$EntityReport@I@Gu@physx@@6B@ 000000018013bd30     GuCCTSweepTests.obj
 0002:00001d50       __real@3b03126f            000000018013bd50     GuCCTSweepTests.obj
 0002:00001d54       __real@40000000            000000018013bd54     GuCCTSweepTests.obj
 0002:00001d80       __real@38d1b717            000000018013bd80     GuGeometryQuery.obj
 0002:00001d84       __real@49742400            000000018013bd84     GuGeometryQuery.obj
 0002:00001d88       __real@bf800000            000000018013bd88     GuGeometryQuery.obj
 0002:00001db0       ??_C@_0DN@OFBCIBOG@D?3?2Github?2PhysX?2physx?2source?2ge@ 000000018013bdb0     GuGeometryUnion.obj
 0002:00001e30       ??_7GuMeshFactory@physx@@6B@ 000000018013be30     GuMeshFactory.obj
 0002:00001e38       ??_7MeshDataBase@Gu@physx@@6B@ 000000018013be38     GuMeshFactory.obj
 0002:00001e40       ??_C@_0DN@ODFHMOEM@D?3?2Github?2PhysX?2physx?2source?2ge@ 000000018013be40     GuMeshFactory.obj
 0002:00001e80       ??_7TriangleMeshData@Gu@physx@@6B@ 000000018013be80     GuMeshFactory.obj
 0002:00001e88       ??_7RTreeTriangleData@Gu@physx@@6B@ 000000018013be88     GuMeshFactory.obj
 0002:00001e90       ??_7BV4TriangleData@Gu@physx@@6B@ 000000018013be90     GuMeshFactory.obj
 0002:00001e98       ??_C@_0DN@NIBMAML@D?3?2Github?2PhysX?2physx?2source?2ge@ 000000018013be98     GuMeshFactory.obj
 0002:00001ee0       ??_C@_0GP@NHELMDAL@Loading?5triangle?5mesh?5failed?3?5D@ 000000018013bee0     GuMeshFactory.obj
 0002:00001f50       ??_C@_0BP@CDOKDACA@RTree?5binary?5image?5load?5error?4@ 000000018013bf50     GuMeshFactory.obj
 0002:00001f70       ??_C@_0BN@MJPNIELF@BV4?5binary?5image?5load?5error?4@ 000000018013bf70     GuMeshFactory.obj
 0002:00001f90       ??_C@_0BO@JDPABAOF@BV32?5binary?5image?5load?5error?4@ 000000018013bf90     GuMeshFactory.obj
 0002:00001fb0       ??_C@_0DK@FPKOPDN@D?3?2Github?2PhysX?2physx?2source?2fo@ 000000018013bfb0     GuMeshFactory.obj
 0002:00002010       ??_C@_0P@GGNFNHKF@PxTriangleMesh@ 000000018013c010     GuMetaData.obj
 0002:00002020       ??_C@_07GFCEJNGM@Valency@  000000018013c020     GuMetaData.obj
 0002:00002028       ??_C@_07NHGKEEIN@mOffset@  000000018013c028     GuMetaData.obj
 0002:00002030       ??_C@_0BB@BAGHBMNJ@BigConvexRawData@ 000000018013c030     GuMetaData.obj
 0002:00002048       ??_C@_07PBDEJAAC@mSubdiv@  000000018013c048     GuMetaData.obj
 0002:00002050       ??_C@_0L@HNPACPGH@mNbSamples@ 000000018013c050     GuMetaData.obj
 0002:0000205c       ??_C@_04NCKNBPPK@PxU8@     000000018013c05c     GuMetaData.obj
 0002:00002068       ??_C@_08DEPEKJNI@mSamples@ 000000018013c068     GuMetaData.obj
 0002:00002074       ??_C@_05LMJPANIN@PxU32@    000000018013c074     GuMetaData.obj
 0002:00002080       ??_C@_08IJDNJBMI@mNbVerts@ 000000018013c080     GuMetaData.obj
 0002:00002090       ??_C@_0M@MMKMIJAF@mNbAdjVerts@ 000000018013c090     GuMetaData.obj
 0002:000020a0       ??_C@_0L@EOKMNILC@mValencies@ 000000018013c0a0     GuMetaData.obj
 0002:000020b0       ??_C@_0P@DLGEAMHJ@mAdjacentVerts@ 000000018013c0b0     GuMetaData.obj
 0002:000020c0       ??_C@_0O@PFOPBKAM@BigConvexData@ 000000018013c0c0     GuMetaData.obj
 0002:000020d0       ??_C@_05PLKALGFN@mData@    000000018013c0d0     GuMetaData.obj
 0002:000020d8       ??_C@_08PEMCLHEM@mVBuffer@ 000000018013c0d8     GuMetaData.obj
 0002:000020e8       ??_C@_09FBMAGD@Alignment@  000000018013c0e8     GuMetaData.obj
 0002:000020f8       ??_C@_0BE@KFHIBEEA@InternalObjectsData@ 000000018013c0f8     GuMetaData.obj
 0002:0000210c       ??_C@_06GIEBFILM@PxReal@   000000018013c10c     GuMetaData.obj
 0002:00002118       ??_C@_07NKGFFIBH@mRadius@  000000018013c118     GuMetaData.obj
 0002:00002120       ??_C@_08EHFCACAE@mExtents@ 000000018013c120     GuMetaData.obj
 0002:00002130       ??_C@_0BA@LFMGGCBK@HullPolygonData@ 000000018013c130     GuMetaData.obj
 0002:00002140       ??_C@_06BOHHGLB@mPlane@    000000018013c140     GuMetaData.obj
 0002:00002148       ??_C@_06EHMLHGLN@mVRef8@   000000018013c148     GuMetaData.obj
 0002:00002150       ??_C@_09BAHHHINI@mMinIndex@ 000000018013c150     GuMetaData.obj
 0002:00002160       ??_C@_0P@GBLBPIPB@ConvexHullData@ 000000018013c160     GuMetaData.obj
 0002:00002170       ??_C@_09JDCJAPKD@PxBounds3@ 000000018013c170     GuMetaData.obj
 0002:0000217c       ??_C@_05NDNHIFA@mAABB@     000000018013c17c     GuMetaData.obj
 0002:00002184       ??_C@_06KDGGGLIJ@PxVec3@   000000018013c184     GuMetaData.obj
 0002:00002190       ??_C@_0O@LNOGEMJI@mCenterOfMass@ 000000018013c190     GuMetaData.obj
 0002:000021a0       ??_C@_09CNMCBBKH@mPolygons@ 000000018013c1a0     GuMetaData.obj
 0002:000021b0       ??_C@_0BC@KKPDCFJC@mBigConvexRawData@ 000000018013c1b0     GuMetaData.obj
 0002:000021c8       ??_C@_08ELDMKGKH@mNbEdges@ 000000018013c1c8     GuMetaData.obj
 0002:000021d8       ??_C@_0BA@CGLOHBAC@mNbHullVertices@ 000000018013c1d8     GuMetaData.obj
 0002:000021e8       ??_C@_0M@HGFFLLDM@mNbPolygons@ 000000018013c1e8     GuMetaData.obj
 0002:000021f8       ??_C@_09BHJEMDGO@mInternal@ 000000018013c1f8     GuMetaData.obj
 0002:00002208       ??_C@_0L@GMFHOMKA@ConvexMesh@ 000000018013c208     GuMetaData.obj
 0002:00002218       ??_C@_0N@KECKKFLK@RefCountable@ 000000018013c218     GuMetaData.obj
 0002:00002228       ??_C@_09ILEBDLJH@mHullData@ 000000018013c228     GuMetaData.obj
 0002:00002234       ??_C@_03DKDIKGNC@mNb@      000000018013c234     GuMetaData.obj
 0002:00002238       ??_C@_0P@ENLHFHMD@mBigConvexData@ 000000018013c238     GuMetaData.obj
 0002:00002248       ??_C@_05ILALLCHK@mMass@    000000018013c248     GuMetaData.obj
 0002:00002250       ??_C@_07DBPDADGB@PxMat33@  000000018013c250     GuMetaData.obj
 0002:00002258       ??_C@_08FNBHNDBI@mInertia@ 000000018013c258     GuMetaData.obj
 0002:00002268       ??_C@_0O@FCKNKLMJ@GuMeshFactory@ 000000018013c268     GuMetaData.obj
 0002:00002278       ??_C@_0N@EGBCLMAK@mMeshFactory@ 000000018013c278     GuMetaData.obj
 0002:00002288       ??_C@_0BE@CJJAMAMK@PxHeightFieldSample@ 000000018013c288     GuMetaData.obj
 0002:0000229c       ??_C@_05MBLIPEMA@PxI16@    000000018013c29c     GuMetaData.obj
 0002:000022a4       ??_C@_06LNLHEAAG@height@   000000018013c2a4     GuMetaData.obj
 0002:000022b0       ??_C@_0N@HHDGHJN@PxBitAndByte@ 000000018013c2b0     GuMetaData.obj
 0002:000022c0       ??_C@_0P@MBBMLBO@materialIndex0@ 000000018013c2c0     GuMetaData.obj
 0002:000022d0       ??_C@_0P@BFAKPKFP@materialIndex1@ 000000018013c2d0     GuMetaData.obj
 0002:000022e0       ??_C@_0BD@EBLPJEOE@PxHeightFieldFlags@ 000000018013c2e0     GuMetaData.obj
 0002:000022f8       ??_C@_0BK@FNNCFFCN@PxHeightFieldFormat?3?3Enum@ 000000018013c2f8     GuMetaData.obj
 0002:00002318       ??_C@_0BA@CLNFMAAA@HeightFieldData@ 000000018013c318     GuMetaData.obj
 0002:00002328       ??_C@_04IMCGAIPI@rows@     000000018013c328     GuMetaData.obj
 0002:00002330       ??_C@_07HIFEPIJN@columns@  000000018013c330     GuMetaData.obj
 0002:00002338       ??_C@_08MOAGOABI@rowLimit@ 000000018013c338     GuMetaData.obj
 0002:00002348       ??_C@_08BAGEHOBO@colLimit@ 000000018013c348     GuMetaData.obj
 0002:00002358       ??_C@_09LKDBLADF@nbColumns@ 000000018013c358     GuMetaData.obj
 0002:00002368       ??_C@_07ODIFGGLK@samples@  000000018013c368     GuMetaData.obj
 0002:00002370       ??_C@_0BE@POHEGOJG@convexEdgeThreshold@ 000000018013c370     GuMetaData.obj
 0002:00002384       ??_C@_05GECEPKB@flags@     000000018013c384     GuMetaData.obj
 0002:0000238c       ??_C@_06DLEPGFEF@format@   000000018013c38c     GuMetaData.obj
 0002:00002398       ??_C@_0BF@MOGDNMPL@PxMaterialTableIndex@ 000000018013c398     GuMetaData.obj
 0002:000023b0       ??_C@_0M@JMJICJJO@HeightField@ 000000018013c3b0     GuMetaData.obj
 0002:000023c0       ??_C@_0O@ENGHMLJP@mSampleStride@ 000000018013c3c0     GuMetaData.obj
 0002:000023d0       ??_C@_0L@EBEEMFFB@mMinHeight@ 000000018013c3d0     GuMetaData.obj
 0002:000023e0       ??_C@_0L@EAEIFPOF@mMaxHeight@ 000000018013c3e0     GuMetaData.obj
 0002:000023f0       ??_C@_0N@FEFJOKKE@mModifyCount@ 000000018013c3f0     GuMetaData.obj
 0002:00002400       ??_C@_09PHDKHCK@RTreePage@ 000000018013c400     GuMetaData.obj
 0002:0000240c       ??_C@_04LLPOBGED@minx@     000000018013c40c     GuMetaData.obj
 0002:00002414       ??_C@_04KCOFCHAC@miny@     000000018013c414     GuMetaData.obj
 0002:0000241c       ??_C@_04IJMIHEMB@minz@     000000018013c41c     GuMetaData.obj
 0002:00002424       ??_C@_04GGOBOBGO@maxx@     000000018013c424     GuMetaData.obj
 0002:0000242c       ??_C@_04HPPKNACP@maxy@     000000018013c42c     GuMetaData.obj
 0002:00002434       ??_C@_04FENHIDOM@maxz@     000000018013c434     GuMetaData.obj
 0002:0000243c       ??_C@_04HHDFEJON@ptrs@     000000018013c43c     GuMetaData.obj
 0002:00002444       ??_C@_05FFEIGAJF@RTree@    000000018013c444     GuMetaData.obj
 0002:0000244c       ??_C@_06OMCHPNEO@PxVec4@   000000018013c44c     GuMetaData.obj
 0002:00002458       ??_C@_0L@NBIFEFLN@mBoundsMin@ 000000018013c458     GuMetaData.obj
 0002:00002468       ??_C@_0L@MDAOKBNC@mBoundsMax@ 000000018013c468     GuMetaData.obj
 0002:00002478       ??_C@_0N@NJEHLCOF@mInvDiagonal@ 000000018013c478     GuMetaData.obj
 0002:00002488       ??_C@_0BA@BEFIGPFG@mDiagonalScaler@ 000000018013c488     GuMetaData.obj
 0002:00002498       ??_C@_09DICGGKGO@mPageSize@ 000000018013c498     GuMetaData.obj
 0002:000024a8       ??_C@_0O@BOFFCNOL@mNumRootPages@ 000000018013c4a8     GuMetaData.obj
 0002:000024b8       ??_C@_0L@JKLGBKAE@mNumLevels@ 000000018013c4b8     GuMetaData.obj
 0002:000024c8       ??_C@_0M@PHDOHJGK@mTotalNodes@ 000000018013c4c8     GuMetaData.obj
 0002:000024d8       ??_C@_0M@GDGHALAO@mTotalPages@ 000000018013c4d8     GuMetaData.obj
 0002:000024e4       ??_C@_06MHCBBJGP@mFlags@   000000018013c4e4     GuMetaData.obj
 0002:000024ec       ??_C@_06MMNBLHOK@mPages@   000000018013c4ec     GuMetaData.obj
 0002:000024f8       ??_C@_0L@LEOGNOEC@SourceMesh@ 000000018013c4f8     GuMetaData.obj
 0002:00002504       ??_C@_06JFCLJMNN@mVerts@   000000018013c504     GuMetaData.obj
 0002:00002510       ??_C@_07MPIKOOAP@mNbTris@  000000018013c510     GuMetaData.obj
 0002:00002518       ??_C@_0N@FBMOMEHF@mTriangles32@ 000000018013c518     GuMetaData.obj
 0002:00002528       ??_C@_0N@DGCGNFBP@mTriangles16@ 000000018013c528     GuMetaData.obj
 0002:00002538       ??_C@_06DHAAKLFK@mRemap@   000000018013c538     GuMetaData.obj
 0002:00002540       ??_C@_0O@NLNHFNO@QuantizedAABB@ 000000018013c540     GuMetaData.obj
 0002:00002550       ??_C@_0BC@OOGBEMHH@mData?$FL0?$FN?4mExtents@ 000000018013c550     GuMetaData.obj
 0002:00002568       ??_C@_0BB@OCEDKIEF@mData?$FL0?$FN?4mCenter@ 000000018013c568     GuMetaData.obj
 0002:00002580       ??_C@_0BC@HFMEAABI@mData?$FL1?$FN?4mExtents@ 000000018013c580     GuMetaData.obj
 0002:00002598       ??_C@_0BB@CDMNHHIF@mData?$FL1?$FN?4mCenter@ 000000018013c598     GuMetaData.obj
 0002:000025b0       ??_C@_0BC@CFKNCOI@mData?$FL2?$FN?4mExtents@ 000000018013c5b0     GuMetaData.obj
 0002:000025c8       ??_C@_0BB@LKCPBBIE@mData?$FL2?$FN?4mCenter@ 000000018013c5c8     GuMetaData.obj
 0002:000025e0       ??_C@_0O@MJJKKPFN@BVDataPackedQ@ 000000018013c5e0     GuMetaData.obj
 0002:000025f0       ??_C@_0M@PNCEBOG@LocalBounds@ 000000018013c5f0     GuMetaData.obj
 0002:00002600       ??_C@_07GNKDIIKJ@mCenter@  000000018013c600     GuMetaData.obj
 0002:00002608       ??_C@_05KNFBNCOH@float@    000000018013c608     GuMetaData.obj
 0002:00002610       ??_C@_0BC@LADJKHPL@mExtentsMagnitude@ 000000018013c610     GuMetaData.obj
 0002:00002628       ??_C@_07HELIOLAF@BV4Tree@  000000018013c628     GuMetaData.obj
 0002:00002630       ??_C@_0P@EMMDNPMH@mMeshInterface@ 000000018013c630     GuMetaData.obj
 0002:00002640       ??_C@_0N@DCKMHLCL@mLocalBounds@ 000000018013c640     GuMetaData.obj
 0002:00002650       ??_C@_08EEJOMIJL@mNbNodes@ 000000018013c650     GuMetaData.obj
 0002:00002660       ??_C@_09FGKNPI@mInitData@  000000018013c660     GuMetaData.obj
 0002:00002670       ??_C@_0BC@CLDEHKCO@mCenterOrMinCoeff@ 000000018013c670     GuMetaData.obj
 0002:00002688       ??_C@_0BD@LAOLBNJ@mExtentsOrMaxCoeff@ 000000018013c688     GuMetaData.obj
 0002:000026a0       ??_C@_0P@JEECKKBL@mUserAllocated@ 000000018013c6a0     GuMetaData.obj
 0002:000026b0       ??_C@_0L@GLIMNECG@mQuantized@ 000000018013c6b0     GuMetaData.obj
 0002:000026c0       ??_C@_08BNDBAGDH@mPadding@ 000000018013c6c0     GuMetaData.obj
 0002:000026d0       ??_C@_0N@OJNNNLIB@TriangleMesh@ 000000018013c6d0     GuMetaData.obj
 0002:000026e0       ??_C@_0M@OGEDMEAL@mNbVertices@ 000000018013c6e0     GuMetaData.obj
 0002:000026f0       ??_C@_0N@MGGDNHNI@mNbTriangles@ 000000018013c6f0     GuMetaData.obj
 0002:00002700       ??_C@_09LNNEGOJA@mVertices@ 000000018013c700     GuMetaData.obj
 0002:00002710       ??_C@_0L@KBOFAKLO@mTriangles@ 000000018013c710     GuMetaData.obj
 0002:00002720       ??_C@_0P@MHDFIHLD@mExtraTrigData@ 000000018013c720     GuMetaData.obj
 0002:00002730       ??_C@_0N@MGIKKCI@mGeomEpsilon@ 000000018013c730     GuMetaData.obj
 0002:00002740       ??_C@_0BB@IFLOOCNA@mMaterialIndices@ 000000018013c740     GuMetaData.obj
 0002:00002758       ??_C@_0L@OPJMBFMI@mFaceRemap@ 000000018013c758     GuMetaData.obj
 0002:00002768       ??_C@_0N@BIOECAPM@mAdjacencies@ 000000018013c768     GuMetaData.obj
 0002:00002778       ??_C@_0BA@OCOIGPII@mGRB_triIndices@ 000000018013c778     GuMetaData.obj
 0002:00002788       ??_C@_0BE@JPINNDAH@mGRB_triAdjacencies@ 000000018013c788     GuMetaData.obj
 0002:000027a0       ??_C@_0P@EDFJJHEF@mGRB_faceRemap@ 000000018013c7a0     GuMetaData.obj
 0002:000027b0       ??_C@_0O@CKMBAIFN@mGRB_BV32Tree@ 000000018013c7b0     GuMetaData.obj
 0002:000027c0       ??_C@_0BC@IFGECKF@RTreeTriangleMesh@ 000000018013c7c0     GuMetaData.obj
 0002:000027d4       ??_C@_06JDIHDDGN@mRTree@   000000018013c7d4     GuMetaData.obj
 0002:000027e0       ??_C@_0BA@LNNFPOKA@BV4TriangleMesh@ 000000018013c7e0     GuMetaData.obj
 0002:000027f0       ??_C@_08FKLPEGDB@mBV4Tree@ 000000018013c7f0     GuMetaData.obj
 0002:00002800       ??_C@_0BG@EAPGHGEI@MaterialIndicesStruct@ 000000018013c800     GuMetaData.obj
 0002:00002818       ??_C@_07OKCKIPNN@indices@  000000018013c818     GuMetaData.obj
 0002:00002820       ??_C@_0L@KCBHBGBP@numIndices@ 000000018013c820     GuMetaData.obj
 0002:0000282c       ??_C@_03PNAAIPML@pad@      000000018013c82c     GuMetaData.obj
 0002:00002830       ??_C@_05MOMFAHOB@pad64@    000000018013c830     GuMetaData.obj
 0002:00002838       ??_C@_0BK@GNJGHDGO@PxConvexMeshGeometryFlags@ 000000018013c838     GuMetaData.obj
 0002:00002858       ??_C@_0BJ@LIOOOKID@ShadowConvexMeshGeometry@ 000000018013c858     GuMetaData.obj
 0002:00002878       ??_C@_0BF@PJFPGDNP@PxGeometryType?3?3Enum@ 000000018013c878     GuMetaData.obj
 0002:00002890       ??_C@_05GNIIDDHH@mType@    000000018013c890     GuMetaData.obj
 0002:00002898       ??_C@_0M@JFNDEGCE@PxMeshScale@ 000000018013c898     GuMetaData.obj
 0002:000028a4       ??_C@_05MHMEBBGO@scale@    000000018013c8a4     GuMetaData.obj
 0002:000028b0       ??_C@_0L@OKMLGDHH@convexMesh@ 000000018013c8b0     GuMetaData.obj
 0002:000028c0       ??_C@_09PLMNFMJI@meshFlags@ 000000018013c8c0     GuMetaData.obj
 0002:000028d0       ??_C@_0BB@EINMAHMD@paddingFromFlags@ 000000018013c8d0     GuMetaData.obj
 0002:000028e8       ??_C@_08CICKEKCM@hullData@ 000000018013c8e8     GuMetaData.obj
 0002:000028f8       ??_C@_0O@EOELHBFF@gpuCompatible@ 000000018013c8f8     GuMetaData.obj
 0002:00002908       ??_C@_0BE@FFPGAPHN@PxMeshGeometryFlags@ 000000018013c908     GuMetaData.obj
 0002:00002920       ??_C@_0BL@KABFLNEB@ShadowTriangleMeshGeometry@ 000000018013c920     GuMetaData.obj
 0002:00002940       ??_C@_0N@FKKDJAHE@triangleMesh@ 000000018013c940     GuMetaData.obj
 0002:00002950       ??_C@_08BEABJAHJ@meshData@ 000000018013c950     GuMetaData.obj
 0002:00002960       ??_C@_0BA@NGIONHFJ@materialIndices@ 000000018013c960     GuMetaData.obj
 0002:00002970       ??_C@_09JGGNEAGH@materials@ 000000018013c970     GuMetaData.obj
 0002:00002980       ??_C@_0BK@OIFEOHNJ@ShadowHeightFieldGeometry@ 000000018013c980     GuMetaData.obj
 0002:000029a0       ??_C@_0M@IEKJPCGG@heightField@ 000000018013c9a0     GuMetaData.obj
 0002:000029b0       ??_C@_0M@LHLNPPJ@heightScale@ 000000018013c9b0     GuMetaData.obj
 0002:000029c0       ??_C@_08GJPCBGLE@rowScale@ 000000018013c9c0     GuMetaData.obj
 0002:000029d0       ??_C@_0M@HHBHEPCE@columnScale@ 000000018013c9d0     GuMetaData.obj
 0002:000029e0       ??_C@_0BB@PMIIHDKK@heightFieldFlags@ 000000018013c9e0     GuMetaData.obj
 0002:000029f8       ??_C@_0BA@DMOKLLHN@heightFieldData@ 000000018013c9f8     GuMetaData.obj
 0002:00002a08       ??_C@_0BE@IKADPPC@ShadowPlaneGeometry@ 000000018013ca08     GuMetaData.obj
 0002:00002a20       ??_C@_0BF@PIKLLBGN@ShadowSphereGeometry@ 000000018013ca20     GuMetaData.obj
 0002:00002a38       ??_C@_06KGHINEPG@radius@   000000018013ca38     GuMetaData.obj
 0002:00002a40       ??_C@_0BG@OBHJHKMO@ShadowCapsuleGeometry@ 000000018013ca40     GuMetaData.obj
 0002:00002a58       ??_C@_0L@PMAANELH@halfHeight@ 000000018013ca58     GuMetaData.obj
 0002:00002a68       ??_C@_0BC@DMJNHLLO@ShadowBoxGeometry@ 000000018013ca68     GuMetaData.obj
 0002:00002a80       ??_C@_0M@CMAEPJOI@halfExtents@ 000000018013ca80     GuMetaData.obj
 0002:00002a90       ??_C@_0BH@PKALDLFA@PxConvexMeshGeometryLL@ 000000018013ca90     GuMetaData.obj
 0002:00002aa8       ??_C@_0BJ@GAFBNAAE@PxTriangleMeshGeometryLL@ 000000018013caa8     GuMetaData.obj
 0002:00002ac8       ??_C@_0BI@IIFLCNOC@PxHeightFieldGeometryLL@ 000000018013cac8     GuMetaData.obj
 0002:00002ae0       ??_C@_0BA@NAHKMBFO@PxPlaneGeometry@ 000000018013cae0     GuMetaData.obj
 0002:00002af0       ??_C@_0BB@CHBDIEFA@PxSphereGeometry@ 000000018013caf0     GuMetaData.obj
 0002:00002b08       ??_C@_0BC@LJMOIOOK@PxCapsuleGeometry@ 000000018013cb08     GuMetaData.obj
 0002:00002b20       ??_C@_0O@OEDJDNFP@PxBoxGeometry@ 000000018013cb20     GuMetaData.obj
 0002:00002b30       ??_C@_0BC@ICOOCLFG@Gu?3?3GeometryUnion@ 000000018013cb30     GuMetaData.obj
 0002:00002b48       ??_7?$SupportLocalImpl@VConvexHullV@Gu@physx@@@Gu@physx@@6B@ 000000018013cb48     GuMTD.obj
 0002:00002b68       ??_7?$SupportLocalImpl@VConvexHullNoScaleV@Gu@physx@@@Gu@physx@@6B@ 000000018013cb68     GuMTD.obj
 0002:00002b88       ??_7?$SupportLocalImpl@VBoxV@Gu@physx@@@Gu@physx@@6B@ 000000018013cb88     GuMTD.obj
 0002:00002ba8       ??_7SupportLocal@Gu@physx@@6B@ 000000018013cba8     GuMTD.obj
 0002:00002bf0       ?absMask@?1??FAbs@aos@shdfnd@physx@@YA?AT__m128@@T5@@Z@4QBIB 000000018013cbf0     GuMTD.obj
 0002:00002c00       ??_7GjkConvexBase@Gu@physx@@6B@ 000000018013cc00     GuMTD.obj
 0002:00002c30       ??_7?$LocalConvex@VCapsuleV@Gu@physx@@@Gu@physx@@6B@ 000000018013cc30     GuMTD.obj
 0002:00002c60       ??_7?$LocalConvex@VConvexHullV@Gu@physx@@@Gu@physx@@6B@ 000000018013cc60     GuMTD.obj
 0002:00002c90       __real@2edbe6ff            000000018013cc90     GuMTD.obj
 0002:00002c94       __real@3ccccccd            000000018013cc94     GuMTD.obj
 0002:00002c98       __real@3dcccccd            000000018013cc98     GuMTD.obj
 0002:00002c9c       __real@ff7fffff            000000018013cc9c     GuMTD.obj
 0002:00002ca0       __xmm@0000000000000000000000003f800000 000000018013cca0     GuMTD.obj
 0002:00002cb0       __xmm@00000000000000003f80000000000000 000000018013ccb0     GuMTD.obj
 0002:00002cc0       __xmm@000000003f8000000000000000000000 000000018013ccc0     GuMTD.obj
 0002:00002cd0       __xmm@000000003f8000003f8000003f800000 000000018013ccd0     GuMTD.obj
 0002:00002ce0       __xmm@00000000ffffffffffffffffffffffff 000000018013cce0     GuMTD.obj
 0002:00002cf0       __xmm@34000000340000003400000034000000 000000018013ccf0     GuMTD.obj
 0002:00002d00       __xmm@358637bd358637bd358637bd358637bd 000000018013cd00     GuMTD.obj
 0002:00002d10       __xmm@3dcccccd3dcccccd3dcccccd3dcccccd 000000018013cd10     GuMTD.obj
 0002:00002d20       __xmm@3e4ccccd3e4ccccd3e4ccccd3e4ccccd 000000018013cd20     GuMTD.obj
 0002:00002d30       __xmm@3f7ff1413f7ff1413f7ff1413f7ff141 000000018013cd30     GuMTD.obj
 0002:00002d40       __xmm@3f7ff2e53f7ff2e53f7ff2e53f7ff2e5 000000018013cd40     GuMTD.obj
 0002:00002d50       __xmm@3f8000003f8000003f8000003f800000 000000018013cd50     GuMTD.obj
 0002:00002d60       __xmm@7f7fffff7f7fffff7f7fffff7f7fffff 000000018013cd60     GuMTD.obj
 0002:00002d70       __xmm@bf000000bf000000bf000000bf000000 000000018013cd70     GuMTD.obj
 0002:00002d80       ??_7?$RelativeConvex@VBoxV@Gu@physx@@@Gu@physx@@6B@ 000000018013cd80     GuOverlapTests.obj
 0002:00002db0       ??_7?$RelativeConvex@VConvexHullV@Gu@physx@@@Gu@physx@@6B@ 000000018013cdb0     GuOverlapTests.obj
 0002:00002de0       ??_C@_0EC@MLIJOGHA@Height?5Field?5Overlap?5test?5calle@ 000000018013cde0     GuOverlapTests.obj
 0002:00002e28       ??_C@_0DO@HBKOEMEG@D?3?2Github?2PhysX?2physx?2source?2ge@ 000000018013ce28     GuOverlapTests.obj
 0002:00002ec0       ??_C@_0EC@GJLDADPE@Height?5Field?5Raycast?5test?5calle@ 000000018013cec0     GuRaycastTests.obj
 0002:00002f08       ??_C@_0DO@ICGDDLOM@D?3?2Github?2PhysX?2physx?2source?2ge@ 000000018013cf08     GuRaycastTests.obj
 0002:00002f48       __real@1e3ce508            000000018013cf48     GuRaycastTests.obj
 0002:00002f4c       __real@28800000            000000018013cf4c     GuRaycastTests.obj
 0002:00002f50       __real@33d6bf95            000000018013cf50     GuRaycastTests.obj
 0002:00002f54       __real@3727c5ac            000000018013cf54     GuRaycastTests.obj
 0002:00002f58       __real@3f0147ae            000000018013cf58     GuRaycastTests.obj
 0002:00002f5c       __real@3f7ffffe            000000018013cf5c     GuRaycastTests.obj
 0002:00002f60       __real@3f800347            000000018013cf60     GuRaycastTests.obj
 0002:00002f64       __real@41200000            000000018013cf64     GuRaycastTests.obj
 0002:00002f68       __real@80000000            000000018013cf68     GuRaycastTests.obj
 0002:00002f6c       __real@b3d6bf95            000000018013cf6c     GuRaycastTests.obj
 0002:00002f70       __real@b8d1b717            000000018013cf70     GuRaycastTests.obj
 0002:00002f74       __real@c1200000            000000018013cf74     GuRaycastTests.obj
 0002:00002fb0       ??_7?$MeshHitCallback@UPxRaycastHit@physx@@@Gu@physx@@6B@ 000000018013cfb0     GuSweepMTD.obj
 0002:00002fc0       ??_7MeshMTDGenerationCallback@@6B@ 000000018013cfc0     GuSweepMTD.obj
 0002:00002fd0       ??_7MidPhaseQueryLocalReport@@6B@ 000000018013cfd0     GuSweepMTD.obj
 0002:00002fe0       __real@3f933333            000000018013cfe0     GuSweepMTD.obj
 0002:00002ff0       __xmm@00000000000000003f8000003f800000 000000018013cff0     GuSweepMTD.obj
 0002:00003000       __xmm@3e19999a3e19999a3e19999a3e19999a 000000018013d000     GuSweepMTD.obj
 0002:00003010       __xmm@3e8000003e8000003e8000003e800000 000000018013d010     GuSweepMTD.obj
 0002:00003040       __real@3c23d70a            000000018013d040     GuSweepSharedTests.obj
 0002:00003044       __real@42c80000            000000018013d044     GuSweepSharedTests.obj
 0002:00003050       __xmm@ffffffffffffffffffffffffffffffff 000000018013d050     GuSweepSharedTests.obj
 0002:00003080       ??_C@_0EA@GNDJNJGB@Height?5Field?5Sweep?5test?5called?5@ 000000018013d080     GuSweepTests.obj
 0002:000030c0       ??_C@_0DM@HMFNKOJH@D?3?2Github?2PhysX?2physx?2source?2ge@ 000000018013d0c0     GuSweepTests.obj
 0002:00003100       ??_7?$LocalConvex@VBoxV@Gu@physx@@@Gu@physx@@6B@ 000000018013d100     GuSweepTests.obj
 0002:00003130       ??_7?$LocalConvex@VTriangleV@Gu@physx@@@Gu@physx@@6B@ 000000018013d130     GuSweepTests.obj
 0002:00003160       __xmm@00000002000000020000000200000002 000000018013d160     GuSweepTests.obj
 0002:00003170       __xmm@3eaaaa9f3eaaaa9f3eaaaa9f3eaaaa9f 000000018013d170     GuSweepTests.obj
 0002:000031a0       ??_C@_0DP@JOHPKOFI@D?3?2Github?2PhysX?2physx?2source?2ge@ 000000018013d1a0     GuAABBTreeBuild.obj
 0002:00003200       ??_7PxBVHStructure@physx@@6B@ 000000018013d200     GuBVHStructure.obj
 0002:00003250       ??_C@_0P@CDPKBIIF@PxBVHStructure@ 000000018013d250     GuBVHStructure.obj
 0002:00003260       ??_7RefCountable@Cm@physx@@6B@ 000000018013d260     GuBVHStructure.obj
 0002:00003270       ??_7BVHStructure@Gu@physx@@6BPxBVHStructure@2@@ 000000018013d270     GuBVHStructure.obj
 0002:000032c0       ??_7BVHStructure@Gu@physx@@6BRefCountable@Cm@2@@ 000000018013d2c0     GuBVHStructure.obj
 0002:000032d0       ??_C@_0DO@PFPOLFKE@D?3?2Github?2PhysX?2physx?2source?2ge@ 000000018013d2d0     GuBVHStructure.obj
 0002:00003310       ??_C@_0DF@GMOKOMPK@Gu?3?3BVHStructure?3?3release?3?5doub@ 000000018013d310     GuBVHStructure.obj
 0002:000033b0       __real@00000000            000000018013d3b0     GuCCDSweepConvexMesh.obj
 0002:000033b4       __real@3c343958            000000018013d3b4     GuCCDSweepConvexMesh.obj
 0002:000033b8       __real@3ca3d70a            000000018013d3b8     GuCCDSweepConvexMesh.obj
 0002:000033bc       __real@3f0ccccd            000000018013d3bc     GuCCDSweepConvexMesh.obj
 0002:000033c0       __real@3f8ccccd            000000018013d3c0     GuCCDSweepConvexMesh.obj
 0002:000033c4       __real@b58637bd            000000018013d3c4     GuCCDSweepConvexMesh.obj
 0002:000033d0       __xmm@000000000000000000000000fe7fffff 000000018013d3d0     GuCCDSweepConvexMesh.obj
 0002:000033e0       __xmm@fe7ffffffe7fffff7e7fffff7e7fffff 000000018013d3e0     GuCCDSweepConvexMesh.obj
 0002:00003410       ??_7?$RelativeConvex@VCapsuleV@Gu@physx@@@Gu@physx@@6B@ 000000018013d410     GuCCDSweepPrimitives.obj
 0002:00003440       ??_7?$RelativeConvex@VTriangleV@Gu@physx@@@Gu@physx@@6B@ 000000018013d440     GuCCDSweepPrimitives.obj
 0002:00003470       __real@3ba3d70a            000000018013d470     GuCCDSweepPrimitives.obj
 0002:00003474       __real@501502f9            000000018013d474     GuCCDSweepPrimitives.obj
 0002:00003580       __real@3f7fbe77            000000018013d580     GuContactBoxBox.obj
 0002:000035d0       __real@3a83126f            000000018013d5d0     GuContactCapsuleCapsule.obj
 0002:000035d4       __real@3f7ff2e5            000000018013d5d4     GuContactCapsuleCapsule.obj
 0002:000035d8       __real@40800000            000000018013d5d8     GuContactCapsuleCapsule.obj
 0002:00003660       __real@358637be            000000018013d660     GuContactCapsuleMesh.obj
 0002:00003664       __real@3eaaaaab            000000018013d664     GuContactCapsuleMesh.obj
 0002:00003668       __real@3f8020c5            000000018013d668     GuContactCapsuleMesh.obj
 0002:0000366c       __real@ba83126f            000000018013d66c     GuContactCapsuleMesh.obj
 0002:000036c0       ??_7ConvexMeshContactGenerationCallback@@6B@ 000000018013d6c0     GuContactConvexMesh.obj
 0002:00003740       __real@3ec90fdb            000000018013d740     GuContactPolygonPolygon.obj
 0002:00003744       __real@3f490fdb            000000018013d744     GuContactPolygonPolygon.obj
 0002:00003748       __real@3f96cbe4            000000018013d748     GuContactPolygonPolygon.obj
 0002:0000374c       __real@3fc90fdb            000000018013d74c     GuContactPolygonPolygon.obj
 0002:00003750       __real@3ffb53d2            000000018013d750     GuContactPolygonPolygon.obj
 0002:00003754       __real@4016cbe4            000000018013d754     GuContactPolygonPolygon.obj
 0002:00003758       __real@402feddf            000000018013d758     GuContactPolygonPolygon.obj
 0002:00003760       __xmm@ff7fffffff7fffffff7fffffff7fffff 000000018013d760     GuContactPolygonPolygon.obj
 0002:00003810       ??_C@_0DJ@IFIKHOBI@D?3?2Github?2PhysX?2physx?2source?2fo@ 000000018013d810     GuContactSphereMesh.obj
 0002:00003890       __real@bf000000            000000018013d890     GuContactSphereSphere.obj
 0002:000038a0       ??_C@_0EG@FDMHPDGC@D?3?2Github?2PhysX?2physx?2source?2ge@ 000000018013d8a0     GuBigConvexData.obj
 0002:00003910       ??_7PxConvexMesh@physx@@6B@ 000000018013d910     GuConvexMesh.obj
 0002:00003988       ??_7ConvexMesh@Gu@physx@@6BPxConvexMesh@2@@ 000000018013d988     GuConvexMesh.obj
 0002:00003a10       ??_7ConvexMesh@Gu@physx@@6BRefCountable@Cm@2@@ 000000018013da10     GuConvexMesh.obj
 0002:00003a20       ??_C@_0ED@JNDBJGCE@D?3?2Github?2PhysX?2physx?2source?2ge@ 000000018013da20     GuConvexMesh.obj
 0002:00003a68       ??_C@_0DM@NEJKOFIP@Loading?5convex?5mesh?5failed?3?5Dep@ 000000018013da68     GuConvexMesh.obj
 0002:00003aa8       ??_C@_0DD@GDAMDLJL@Gu?3?3ConvexMesh?3?3release?3?5double@ 000000018013daa8     GuConvexMesh.obj
 0002:00003b00       __xmm@000000000000000000000000ffffffff 000000018013db00     GuConvexSupportTable.obj
 0002:00003b10       __xmm@0000000000000000ffffffff00000000 000000018013db10     GuConvexSupportTable.obj
 0002:00003b20       __xmm@0000000000000000ffffffffffffffff 000000018013db20     GuConvexSupportTable.obj
 0002:00003b30       __xmm@00000000ffffffff0000000000000000 000000018013db30     GuConvexSupportTable.obj
 0002:00003b40       __xmm@00000000ffffffff00000000ffffffff 000000018013db40     GuConvexSupportTable.obj
 0002:00003b50       __xmm@00000000ffffffffffffffff00000000 000000018013db50     GuConvexSupportTable.obj
 0002:00003c00       __real@2b8cbccc            000000018013dc00     GuDistanceSegmentTriangle.obj
 0002:00003c10       __xmm@3f8000013f8000013f8000013f800001 000000018013dc10     GuDistanceSegmentTriangle.obj
 0002:00003c20       __xmm@b4000000b4000000b4000000b4000000 000000018013dc20     GuDistanceSegmentTriangle.obj
 0002:00003c80       __xmm@38d1b71738d1b71738d1b71738d1b717 000000018013dc80     GuGJKSimplex.obj
 0002:00003c90       __xmm@b58637bdb58637bdb58637bdb58637bd 000000018013dc90     GuGJKSimplex.obj
 0002:00003cc0       ??_7PxHeightField@physx@@6B@ 000000018013dcc0     GuHeightField.obj
 0002:00003d60       ??_7HeightField@Gu@physx@@6BPxHeightField@2@@ 000000018013dd60     GuHeightField.obj
 0002:00003e10       ??_7HeightField@Gu@physx@@6BRefCountable@Cm@2@@ 000000018013de10     GuHeightField.obj
 0002:00003e20       ??_C@_0DL@DNGFPCEG@Gu?3?3HeightField?3?3onRefCountZero@ 000000018013de20     GuHeightField.obj
 0002:00003e60       ??_C@_0EA@JIPHIAGB@D?3?2Github?2PhysX?2physx?2source?2ge@ 000000018013de60     GuHeightField.obj
 0002:00003ea0       ??_C@_0CI@DMKEKGNK@Gu?3?3HeightField?3?3load?3?5PX_ALLOC@ 000000018013dea0     GuHeightField.obj
 0002:00003ec8       ??_C@_0DD@DFPGDNCD@D?3?2Github?2PhysX?2physx?2source?2co@ 000000018013dec8     GuHeightField.obj
 0002:00003f20       __real@3a03126f            000000018013df20     GuHeightFieldUtil.obj
 0002:00003f24       __real@3f19999a            000000018013df24     GuHeightFieldUtil.obj
 0002:00003f90       ??_7HeightFieldTraceSegmentReport@@6B@ 000000018013df90     GuSweepsHF.obj
 0002:00003fa0       ??_7CapsuleTraceSegmentReport@@6B@ 000000018013dfa0     GuSweepsHF.obj
 0002:00003fb0       ??_7ConvexTraceSegmentReport@@6B@ 000000018013dfb0     GuSweepsHF.obj
 0002:00003fc0       ??_7BoxTraceSegmentReport@@6B@ 000000018013dfc0     GuSweepsHF.obj
 0002:00003fd0       __real@aedbe6ff            000000018013dfd0     GuSweepsHF.obj
 0002:00004000       __real@3089705f            000000018013e000     GuIntersectionRayBox.obj
 0002:00004004       __real@34000000            000000018013e004     GuIntersectionRayBox.obj
 0002:00004008       __real@b4000000            000000018013e008     GuIntersectionRayBox.obj
 0002:00004010       __xmm@000000003089705f3089705f3089705f 000000018013e010     GuIntersectionRayBox.obj
 0002:00004020       __xmm@00000000bf800000bf800000bf800000 000000018013e020     GuIntersectionRayBox.obj
 0002:00004070       ??_C@_0DK@KNNEKIFF@D?3?2Github?2PhysX?2physx?2source?2ge@ 000000018013e070     GuBV4.obj
 0002:000040d0       ??_C@_0DP@IBEHLIME@D?3?2Github?2PhysX?2physx?2source?2ge@ 000000018013e0d0     GuBV4Build.obj
 0002:00004110       __real@38000100            000000018013e110     GuBV4Build.obj
 0002:00004114       __real@3e93cd3a            000000018013e114     GuBV4Build.obj
 0002:00004118       __real@46fffe00            000000018013e118     GuBV4Build.obj
 0002:0000411c       __real@be93cd3a            000000018013e11c     GuBV4Build.obj
 0002:00004140       __xmm@0000ffff0000ffff0000ffff0000ffff 000000018013e140     GuBV4_AABBSweep.obj
 0002:00004150       __xmm@3089705f3089705f3089705f3089705f 000000018013e150     GuBV4_AABBSweep.obj
 0002:00004160       __xmm@33d6bf9533d6bf9533d6bf9533d6bf95 000000018013e160     GuBV4_AABBSweep.obj
 0002:00004170       __xmm@40000000400000004000000040000000 000000018013e170     GuBV4_AABBSweep.obj
 0002:00004280       __xmm@00000000000000007f7fffff00000000 000000018013e280     GuMidphaseBV4.obj
 0002:000042f0       ??_C@_0FD@EHCCILIF@Adjacency?5information?5not?5creat@ 000000018013e2f0     GuMeshQuery.obj
 0002:00004350       ??_C@_0EA@JLBPHIAK@D?3?2Github?2PhysX?2physx?2source?2ge@ 000000018013e350     GuMeshQuery.obj
 0002:00004390       __real@4cbebc20            000000018013e390     GuMeshQuery.obj
 0002:000043c0       ??_7Callback@RTree@Gu@physx@@6B@ 000000018013e3c0     GuMidphaseRTree.obj
 0002:000043d8       ??_7CallbackRaycast@RTree@Gu@physx@@6B@ 000000018013e3d8     GuMidphaseRTree.obj
 0002:000043d8       ??_7CallbackRefit@RTree@Gu@physx@@6B@ 000000018013e3d8     GuTriangleMeshRTree.obj
 0002:000043e8       ??_7?$RayRTreeCallback@$00$0A@@@6BCallbackRaycast@RTree@Gu@physx@@@ 000000018013e3e8     GuMidphaseRTree.obj
 0002:000043e8       ??_7?$RayRTreeCallback@$0A@$0A@@@6BCallbackRaycast@RTree@Gu@physx@@@ 000000018013e3e8     GuMidphaseRTree.obj
 0002:000043f8       ??_7?$RayRTreeCallback@$00$0A@@@6BCallback@RTree@Gu@physx@@@ 000000018013e3f8     GuMidphaseRTree.obj
 0002:000043f8       ??_7?$RayRTreeCallback@$0A@$0A@@@6BCallback@RTree@Gu@physx@@@ 000000018013e3f8     GuMidphaseRTree.obj
 0002:00004410       ??_7RayMeshColliderCallback@@6B@ 000000018013e410     GuMidphaseRTree.obj
 0002:00004420       ??_7?$RayRTreeCallback@$0A@$00@@6BCallbackRaycast@RTree@Gu@physx@@@ 000000018013e420     GuMidphaseRTree.obj
 0002:00004430       ??_7?$RayRTreeCallback@$0A@$00@@6BCallback@RTree@Gu@physx@@@ 000000018013e430     GuMidphaseRTree.obj
 0002:00004448       ??_7?$RayRTreeCallback@$00$00@@6BCallbackRaycast@RTree@Gu@physx@@@ 000000018013e448     GuMidphaseRTree.obj
 0002:00004458       ??_7?$RayRTreeCallback@$00$00@@6BCallback@RTree@Gu@physx@@@ 000000018013e458     GuMidphaseRTree.obj
 0002:000044d0       __xmm@000000007f7fffff0000000000000000 000000018013e4d0     GuMidphaseRTree.obj
 0002:00004540       ??_7ConvexVsMeshOverlapCallback@@6B@ 000000018013e540     GuOverlapTestsMesh.obj
 0002:00004550       ?MN@RTreePage@Gu@physx@@2MB 000000018013e550     GuRTree.obj
 0002:00004554       ?MX@RTreePage@Gu@physx@@2MB 000000018013e554     GuRTree.obj
 0002:00004580       ??_C@_0DM@NHHPBHPI@D?3?2Github?2PhysX?2physx?2source?2ge@ 000000018013e580     GuRTree.obj
 0002:00004630       ??_7SweepShapeMeshHitCallback@Gu@physx@@6B@ 000000018013e630     GuSweepsMesh.obj
 0002:00004640       ??_7SweepCapsuleMeshHitCallback@Gu@physx@@6B@ 000000018013e640     GuSweepsMesh.obj
 0002:00004650       ??_7SweepBoxMeshHitCallback@Gu@physx@@6B@ 000000018013e650     GuSweepsMesh.obj
 0002:00004660       ??_7SweepConvexMeshHitCallback@Gu@physx@@6B@ 000000018013e660     GuSweepsMesh.obj
 0002:00004690       ??_7PxTriangleMesh@physx@@6B@ 000000018013e690     GuTriangleMesh.obj
 0002:00004718       ??_7TriangleMesh@Gu@physx@@6BPxTriangleMesh@2@@ 000000018013e718     GuTriangleMesh.obj
 0002:000047b8       ??_7TriangleMesh@Gu@physx@@6BRefCountable@Cm@2@@ 000000018013e7b8     GuTriangleMesh.obj
 0002:000047c8       ??_C@_0DF@DNLKAHAL@Gu?3?3TriangleMesh?3?3release?3?5doub@ 000000018013e7c8     GuTriangleMesh.obj
 0002:00004800       ??_C@_0ED@KDGBDJMF@D?3?2Github?2PhysX?2physx?2source?2ge@ 000000018013e800     GuTriangleMesh.obj
 0002:00004850       ??_C@_0GH@IGKFPLIJ@PxTriangleMesh?3?3getVerticesForM@ 000000018013e850     GuTriangleMesh.obj
 0002:000048c0       ??_C@_0FF@LHAOBIMM@PxTriangleMesh?3?3refitBVH?$CI?$CJ?5is?5o@ 000000018013e8c0     GuTriangleMesh.obj
 0002:00004940       ??_C@_0BE@CNJKIINO@PxBVH34TriangleMesh@ 000000018013e940     GuTriangleMeshBV4.obj
 0002:00004958       ??_7BV4TriangleMesh@Gu@physx@@6BPxTriangleMesh@2@@ 000000018013e958     GuTriangleMeshBV4.obj
 0002:000049f8       ??_7BV4TriangleMesh@Gu@physx@@6BRefCountable@Cm@2@@ 000000018013e9f8     GuTriangleMeshBV4.obj
 0002:00004a30       ??_C@_0BE@EIFHCCBO@PxBVH33TriangleMesh@ 000000018013ea30     GuTriangleMeshRTree.obj
 0002:00004a48       ??_7RTreeTriangleMesh@Gu@physx@@6BPxTriangleMesh@2@@ 000000018013ea48     GuTriangleMeshRTree.obj
 0002:00004ae8       ??_7RTreeTriangleMesh@Gu@physx@@6BRefCountable@Cm@2@@ 000000018013eae8     GuTriangleMeshRTree.obj
 0002:00004af8       ??_7?$RefitCallback@G@physx@@6B@ 000000018013eaf8     GuTriangleMeshRTree.obj
 0002:00004b08       ??_7?$RefitCallback@I@physx@@6B@ 000000018013eb08     GuTriangleMeshRTree.obj
 0002:00004b20       __xmm@38383838383838383838383838383838 000000018013eb20     GuTriangleMeshRTree.obj
 0002:00004b30       ??_C@_0DL@GHOPJAMC@D?3?2Github?2PhysX?2physx?2source?2ge@ 000000018013eb30     GuBV32.obj
 0002:00004b90       ??_C@_0EA@MONFKGDP@D?3?2Github?2PhysX?2physx?2source?2ge@ 000000018013eb90     GuBV32Build.obj
 0002:00004bf0       __xmm@00000000358637bd358637bd358637bd 000000018013ebf0     GuPCMContactBoxBox.obj
 0002:00004c00       __xmm@3d4ccccd3d4ccccd3d4ccccd3d4ccccd 000000018013ec00     GuPCMContactBoxBox.obj
 0002:00004c10       __xmm@3f4ccccd3f4ccccd3f4ccccd3f4ccccd 000000018013ec10     GuPCMContactBoxBox.obj
 0002:00004c20       __xmm@ffffffff00000000ffffffffffffffff 000000018013ec20     GuPCMContactBoxBox.obj
 0002:00004c50       ??_7?$LocalConvex@VConvexHullNoScaleV@Gu@physx@@@Gu@physx@@6B@ 000000018013ec50     GuPCMContactBoxConvex.obj
 0002:00004c80       __xmm@3f3504f33f3504f33f3504f33f3504f3 000000018013ec80     GuPCMContactBoxConvex.obj
 0002:00004cd0       __xmm@ffffffffffffffffffffffff00000000 000000018013ecd0     GuPCMContactCapsuleCapsule.obj
 0002:00004d00       __xmm@3fa000003fa000003fa000003fa00000 000000018013ed00     GuPCMContactCapsuleConvex.obj
 0002:00004d30       ??_7PCMCapsuleVsHeightfieldContactGenerationCallback@physx@@6B@ 000000018013ed30     GuPCMContactCapsuleHeightField.obj
 0002:00004d40       __real@3f7f3b64            000000018013ed40     GuPCMContactCapsuleHeightField.obj
 0002:00004d50       __xmm@3f7ef9db3f7ef9db3f7ef9db3f7ef9db 000000018013ed50     GuPCMContactCapsuleHeightField.obj
 0002:00004d90       ??_7PCMCapsuleVsMeshContactGenerationCallback@physx@@6B@ 000000018013ed90     GuPCMContactCapsuleMesh.obj
 0002:00004dc0       ??_7?$SupportLocalImpl@VTriangleV@Gu@physx@@@Gu@physx@@6B@ 000000018013edc0     GuPCMContactConvexCommon.obj
 0002:00004de0       ??_C@_0EC@NNBLJPAA@D?3?2Github?2PhysX?2physx?2source?2fo@ 000000018013ede0     GuPCMContactConvexCommon.obj
 0002:00004e30       __xmm@3cf5c2803cf5c2803cf5c2803cf5c280 000000018013ee30     GuPCMContactConvexCommon.obj
 0002:00004e40       __xmm@3f7851ec3f7851ec3f7851ec3f7851ec 000000018013ee40     GuPCMContactConvexCommon.obj
 0002:00004e50       __xmm@3f7ff9723f7ff9723f7ff9723f7ff972 000000018013ee50     GuPCMContactConvexCommon.obj
 0002:00004e60       __xmm@3f7fffef3f7fffef3f7fffef3f7fffef 000000018013ee60     GuPCMContactConvexCommon.obj
 0002:00004e90       ??_7?$RelativeConvex@VConvexHullNoScaleV@Gu@physx@@@Gu@physx@@6B@ 000000018013ee90     GuPCMContactConvexConvex.obj
 0002:00004ee0       ??_7PCMConvexVsHeightfieldContactGenerationCallback@physx@@6B@ 000000018013eee0     GuPCMContactConvexHeightField.obj
 0002:00004ef0       __xmm@3f19999a3f19999a3f19999a3f19999a 000000018013eef0     GuPCMContactConvexHeightField.obj
 0002:00004f30       ??_7PCMConvexVsMeshContactGenerationCallback@physx@@6B@ 000000018013ef30     GuPCMContactConvexMesh.obj
 0002:00004f60       __xmm@3f34fdf43f34fdf43f34fdf43f34fdf4 000000018013ef60     GuPCMContactGenBoxConvex.obj
 0002:00004f90       __xmm@3f80a3d73f80a3d73f80a3d73f80a3d7 000000018013ef90     GuPCMContactGenSphereCapsule.obj
 0002:00004fa0       __xmm@bba3d70abba3d70abba3d70abba3d70a 000000018013efa0     GuPCMContactGenSphereCapsule.obj
 0002:00004ff0       __real@3b23d70b            000000018013eff0     GuPCMContactPlaneCapsule.obj
 0002:00005000       __xmm@3ca3d70a3ca3d70a3ca3d70a3ca3d70a 000000018013f000     GuPCMContactPlaneCapsule.obj
 0002:000050b0       ??_7PCMSphereVsHeightfieldContactGenerationCallback@physx@@6B@ 000000018013f0b0     GuPCMContactSphereHeightField.obj
 0002:000050f0       ??_7PCMSphereVsMeshContactGenerationCallback@physx@@6B@ 000000018013f0f0     GuPCMContactSphereMesh.obj
 0002:00005140       __xmm@3727c5ac3727c5ac3727c5ac3727c5ac 000000018013f140     GuPCMContactSphereSphere.obj
 0002:00005170       ?gPCMBoxPolygonData@Gu@physx@@3QBEB 000000018013f170     GuPCMShapeConvex.obj
 0002:000051b0       ?invalidateThresholds@Gu@physx@@3QBMB 000000018013f1b0     GuPersistentContactManifold.obj
 0002:000051c8       ?invalidateQuatThresholds@Gu@physx@@3QBMB 000000018013f1c8     GuPersistentContactManifold.obj
 0002:000051e0       ?invalidateThresholds2@Gu@physx@@3QBMB 000000018013f1e0     GuPersistentContactManifold.obj
 0002:000051f0       ?invalidateQuatThresholds2@Gu@physx@@3QBMB 000000018013f1f0     GuPersistentContactManifold.obj
 0002:00005220       __xmm@ffffffffffffffff00000000ffffffff 000000018013f220     GuPersistentContactManifold.obj
 0002:00005270       __real@b727c5ac            000000018013f270     GuSweepBoxSphere.obj
 0002:000052e0       ??_C@_0EH@PJLNMNAB@D?3?2Github?2PhysX?2physx?2source?2ge@ 000000018013f2e0     GuSweepCapsuleBox.obj
 0002:00005350       __real@3f7fff58            000000018013f350     GuSweepCapsuleTriangle.obj
 0002:000053a0       __sz_PhysXFoundation_64_dll 000000018013f3a0     PhysXFoundation_64:PhysXFoundation_64.dll
 0002:000053b8       ??_C@_1BK@DBDEIDLH@?$AAK?$AAE?$AAR?$AAN?$AAE?$AAL?$AA3?$AA2?$AA?4?$AAD?$AAL?$AAL@ 000000018013f3b8     Delayimp:delayhlp.obj
 0002:000053d8       ??_C@_0BI@OMNLIJDB@AcquireSRWLockExclusive@ 000000018013f3d8     Delayimp:delayhlp.obj
 0002:000053f0       ??_C@_0BI@HMIEPCNJ@ReleaseSRWLockExclusive@ 000000018013f3f0     Delayimp:delayhlp.obj
 0002:00005408       __pfnDliFailureHook2       000000018013f408     Delayimp:delayhk1.obj
 0002:00005418       ??_7type_info@@6B@         000000018013f418     LIBCMT:std_type_info_static.obj
 0002:00005480       _pRawDllMain               000000018013f480     LIBCMT:dll_dllmain.obj
 0002:00005480       _pDefaultRawDllMain        000000018013f480     LIBCMT:dll_dllmain.obj
 0002:00005490       _load_config_used          000000018013f490     LIBCMT:loadcfg.obj
 0002:000055c8       _pDestructExceptionObject  000000018013f5c8     libvcruntime:ehhelpers.obj
 0002:00005cd0       ??_C@_08EHJDFFNH@__based?$CI@ 000000018013fcd0     libvcruntime:undname.obj
 0002:00005ce0       ??_C@_07KOLFKCDI@__cdecl@  000000018013fce0     libvcruntime:undname.obj
 0002:00005ce8       ??_C@_08GHMPAG@__pascal@   000000018013fce8     libvcruntime:undname.obj
 0002:00005cf8       ??_C@_09IFJBGAPI@__stdcall@ 000000018013fcf8     libvcruntime:undname.obj
 0002:00005d08       ??_C@_0L@NPHFGOKO@__thiscall@ 000000018013fd08     libvcruntime:undname.obj
 0002:00005d18       ??_C@_0L@JMKHOMEK@__fastcall@ 000000018013fd18     libvcruntime:undname.obj
 0002:00005d28       ??_C@_0N@BCKKPABJ@__vectorcall@ 000000018013fd28     libvcruntime:undname.obj
 0002:00005d38       ??_C@_09HIJEGCPM@__clrcall@ 000000018013fd38     libvcruntime:undname.obj
 0002:00005d44       ??_C@_06GHPCKEAG@__eabi@   000000018013fd44     libvcruntime:undname.obj
 0002:00005d50       ??_C@_09IOPIDJLG@__swift_1@ 000000018013fd50     libvcruntime:undname.obj
 0002:00005d60       ??_C@_09KFNFGKHF@__swift_2@ 000000018013fd60     libvcruntime:undname.obj
 0002:00005d70       ??_C@_07JOMMBBKO@__ptr64@  000000018013fd70     libvcruntime:undname.obj
 0002:00005d78       ??_C@_0L@PILCLIHE@__restrict@ 000000018013fd78     libvcruntime:undname.obj
 0002:00005d88       ??_C@_0M@GFIIJFMG@__unaligned@ 000000018013fd88     libvcruntime:undname.obj
 0002:00005d98       ??_C@_09DHDLOLLB@restrict?$CI@ 000000018013fd98     libvcruntime:undname.obj
 0002:00005da2       ??_C@_00CNPNBAHC@@         000000018013fda2     libvcruntime:undname.obj
 0002:00005da4       ??_C@_04NIHEBCM@?5new@     000000018013fda4     libvcruntime:undname.obj
 0002:00005db0       ??_C@_07FPCDHGMM@?5delete@ 000000018013fdb0     libvcruntime:undname.obj
 0002:00005db8       ??_C@_01NEMOKFLO@?$DN@     000000018013fdb8     libvcruntime:undname.obj
 0002:00005dbc       ??_C@_02GPIOPFAK@?$DO?$DO@ 000000018013fdbc     libvcruntime:undname.obj
 0002:00005dc0       ??_C@_02FODMEDOG@?$DM?$DM@ 000000018013fdc0     libvcruntime:undname.obj
 0002:00005dc4       ??_C@_01DCLJPIOD@?$CB@     000000018013fdc4     libvcruntime:undname.obj
 0002:00005dc8       ??_C@_02EGOFBIJA@?$DN?$DN@ 000000018013fdc8     libvcruntime:undname.obj
 0002:00005dcc       ??_C@_02FDNJECIE@?$CB?$DN@ 000000018013fdcc     libvcruntime:undname.obj
 0002:00005dd0       ??_C@_02GPECMEKF@?$FL?$FN@ 000000018013fdd0     libvcruntime:undname.obj
 0002:00005dd8       ??_C@_08LHJFAFGD@operator@ 000000018013fdd8     libvcruntime:undname.obj
 0002:00005de4       ??_C@_02HBOOOICD@?9?$DO@   000000018013fde4     libvcruntime:undname.obj
 0002:00005de8       ??_C@_01NBENCBCI@?$CK@     000000018013fde8     libvcruntime:undname.obj
 0002:00005dec       ??_C@_02ECNGHCIF@?$CL?$CL@ 000000018013fdec     libvcruntime:undname.obj
 0002:00005df0       ??_C@_02BAABKJLB@?9?9@     000000018013fdf0     libvcruntime:undname.obj
 0002:00005df4       ??_C@_01JOAMLHOP@?9@       000000018013fdf4     libvcruntime:undname.obj
 0002:00005df8       ??_C@_01MIFGBAGJ@?$CL@     000000018013fdf8     libvcruntime:undname.obj
 0002:00005dfc       ??_C@_01HNPIGOCE@?$CG@     000000018013fdfc     libvcruntime:undname.obj
 0002:00005e00       ??_C@_03MNHNFDLC@?9?$DO?$CK@ 000000018013fe00     libvcruntime:undname.obj
 0002:00005e04       ??_C@_01KMDKNFGN@?1@       000000018013fe04     libvcruntime:undname.obj
 0002:00005e08       ??_C@_01FGNFDNOH@?$CF@     000000018013fe08     libvcruntime:undname.obj
 0002:00005e0c       ??_C@_01MNNFJEPP@?$DM@     000000018013fe0c     libvcruntime:undname.obj
 0002:00005e10       ??_C@_02EHCHHCKH@?$DM?$DN@ 000000018013fe10     libvcruntime:undname.obj
 0002:00005e14       ??_C@_01PPODPGHN@?$DO@     000000018013fe14     libvcruntime:undname.obj
 0002:00005e18       ??_C@_02EEKDKGMJ@?$DO?$DN@ 000000018013fe18     libvcruntime:undname.obj
 0002:00005e1c       ??_C@_01IHBHIGKO@?0@       000000018013fe1c     libvcruntime:undname.obj
 0002:00005e20       ??_C@_02HCKGKOFO@?$CI?$CJ@ 000000018013fe20     libvcruntime:undname.obj
 0002:00005e24       ??_C@_01PJKLJHI@?$HO@      000000018013fe24     libvcruntime:undname.obj
 0002:00005e28       ??_C@_01JKBOJNNK@?$FO@     000000018013fe28     libvcruntime:undname.obj
 0002:00005e2c       ??_C@_01DNKMNLPK@?$HM@     000000018013fe2c     libvcruntime:undname.obj
 0002:00005e30       ??_C@_02PPKAJPJL@?$CG?$CG@ 000000018013fe30     libvcruntime:undname.obj
 0002:00005e34       ??_C@_02NONPIBCD@?$HM?$HM@ 000000018013fe34     libvcruntime:undname.obj
 0002:00005e38       ??_C@_02FPIMKNGF@?$CK?$DN@ 000000018013fe38     libvcruntime:undname.obj
 0002:00005e3c       ??_C@_02FOEOMHFC@?$CL?$DN@ 000000018013fe3c     libvcruntime:undname.obj
 0002:00005e40       ??_C@_02FKMDLLOA@?9?$DN@   000000018013fe40     libvcruntime:undname.obj
 0002:00005e44       ??_C@_02FJEHGPIO@?1?$DN@   000000018013fe44     libvcruntime:undname.obj
 0002:00005e48       ??_C@_02FENAOKFI@?$CF?$DN@ 000000018013fe48     libvcruntime:undname.obj
 0002:00005e4c       ??_C@_03IKFCCPFF@?$DO?$DO?$DN@ 000000018013fe4c     libvcruntime:undname.obj
 0002:00005e50       ??_C@_03CDNPDDLA@?$DM?$DM?$DN@ 000000018013fe50     libvcruntime:undname.obj
 0002:00005e54       ??_C@_02FGJGFEAB@?$CG?$DN@ 000000018013fe54     libvcruntime:undname.obj
 0002:00005e58       ??_C@_02DHLNPPGH@?$HM?$DN@ 000000018013fe58     libvcruntime:undname.obj
 0002:00005e5c       ??_C@_02MHEGNOJ@?$FO?$DN@  000000018013fe5c     libvcruntime:undname.obj
 0002:00005e60       ??_C@_09IFPLHPGF@?$GAvftable?8@ 000000018013fe60     libvcruntime:undname.obj
 0002:00005e70       ??_C@_09BLBHBJP@?$GAvbtable?8@ 000000018013fe70     libvcruntime:undname.obj
 0002:00005e80       ??_C@_07FEEIOKP@?$GAvcall?8@ 000000018013fe80     libvcruntime:undname.obj
 0002:00005e88       ??_C@_08LLFFHHDJ@?$GAtypeof?8@ 000000018013fe88     libvcruntime:undname.obj
 0002:00005e98       ??_C@_0BF@KDPPACIK@?$GAlocal?5static?5guard?8@ 000000018013fe98     libvcruntime:undname.obj
 0002:00005eb0       ??_C@_08OBABFOLI@?$GAstring?8@ 000000018013feb0     libvcruntime:undname.obj
 0002:00005ec0       ??_C@_0BD@JDLKDPAB@?$GAvbase?5destructor?8@ 000000018013fec0     libvcruntime:undname.obj
 0002:00005ed8       ??_C@_0BN@DEGPLNFK@?$GAvector?5deleting?5destructor?8@ 000000018013fed8     libvcruntime:undname.obj
 0002:00005ef8       ??_C@_0BO@OBMKPJIG@?$GAdefault?5constructor?5closure?8@ 000000018013fef8     libvcruntime:undname.obj
 0002:00005f18       ??_C@_0BN@IMDCHIKM@?$GAscalar?5deleting?5destructor?8@ 000000018013ff18     libvcruntime:undname.obj
 0002:00005f38       ??_C@_0BO@PFGOCPJJ@?$GAvector?5constructor?5iterator?8@ 000000018013ff38     libvcruntime:undname.obj
 0002:00005f58       ??_C@_0BN@LFPFMEDL@?$GAvector?5destructor?5iterator?8@ 000000018013ff58     libvcruntime:undname.obj
 0002:00005f78       ??_C@_0CE@IKBNEHA@?$GAvector?5vbase?5constructor?5itera@ 000000018013ff78     libvcruntime:undname.obj
 0002:00005fa0       ??_C@_0BL@NILFHHPC@?$GAvirtual?5displacement?5map?8@ 000000018013ffa0     libvcruntime:undname.obj
 0002:00005fc0       ??_C@_0CB@JONCMFFK@?$GAeh?5vector?5constructor?5iterator@ 000000018013ffc0     libvcruntime:undname.obj
 0002:00005fe8       ??_C@_0CA@GCEOPDGL@?$GAeh?5vector?5destructor?5iterator?8@ 000000018013ffe8     libvcruntime:undname.obj
 0002:00006008       ??_C@_0CH@OOJPLCPH@?$GAeh?5vector?5vbase?5constructor?5it@ 0000000180140008     libvcruntime:undname.obj
 0002:00006030       ??_C@_0BL@LLKPOHJI@?$GAcopy?5constructor?5closure?8@ 0000000180140030     libvcruntime:undname.obj
 0002:00006050       ??_C@_0BA@KBCDOMBN@?$GAudt?5returning?8@ 0000000180140050     libvcruntime:undname.obj
 0002:00006060       ??_C@_03KLGMFNMG@?$GAEH@   0000000180140060     libvcruntime:undname.obj
 0002:00006064       ??_C@_05KHLCHHI@?$GARTTI@  0000000180140064     libvcruntime:undname.obj
 0002:00006070       ??_C@_0BA@KKLDJDLB@?$GAlocal?5vftable?8@ 0000000180140070     libvcruntime:undname.obj
 0002:00006080       ??_C@_0CE@IIHCMGGL@?$GAlocal?5vftable?5constructor?5clos@ 0000000180140080     libvcruntime:undname.obj
 0002:000060a4       ??_C@_06FHBGPFGH@?5new?$FL?$FN@ 00000001801400a4     libvcruntime:undname.obj
 0002:000060b0       ??_C@_09LBNFPBCA@?5delete?$FL?$FN@ 00000001801400b0     libvcruntime:undname.obj
 0002:000060c0       ??_C@_0P@HJKNJFNN@?$GAomni?5callsig?8@ 00000001801400c0     libvcruntime:undname.obj
 0002:000060d0       ??_C@_0BL@CNOONJFP@?$GAplacement?5delete?5closure?8@ 00000001801400d0     libvcruntime:undname.obj
 0002:000060f0       ??_C@_0BN@CKNJLHMB@?$GAplacement?5delete?$FL?$FN?5closure?8@ 00000001801400f0     libvcruntime:undname.obj
 0002:00006110       ??_C@_0CG@CFDHKGGD@?$GAmanaged?5vector?5constructor?5ite@ 0000000180140110     libvcruntime:undname.obj
 0002:00006138       ??_C@_0CF@IMGKMJNO@?$GAmanaged?5vector?5destructor?5iter@ 0000000180140138     libvcruntime:undname.obj
 0002:00006160       ??_C@_0CG@HLDDJMAG@?$GAeh?5vector?5copy?5constructor?5ite@ 0000000180140160     libvcruntime:undname.obj
 0002:00006188       ??_C@_0CM@FCBBDIGB@?$GAeh?5vector?5vbase?5copy?5construct@ 0000000180140188     libvcruntime:undname.obj
 0002:000061b8       ??_C@_0BL@CLIPGLGB@?$GAdynamic?5initializer?5for?5?8@ 00000001801401b8     libvcruntime:undname.obj
 0002:000061d8       ??_C@_0CB@PDBIFEP@?$GAdynamic?5atexit?5destructor?5for?5@ 00000001801401d8     libvcruntime:undname.obj
 0002:00006200       ??_C@_0CD@CGAJBKEJ@?$GAvector?5copy?5constructor?5iterat@ 0000000180140200     libvcruntime:undname.obj
 0002:00006228       ??_C@_0CJ@GJELGAMM@?$GAvector?5vbase?5copy?5constructor?5@ 0000000180140228     libvcruntime:undname.obj
 0002:00006258       ??_C@_0CL@FGIJHLCE@?$GAmanaged?5vector?5copy?5constructo@ 0000000180140258     libvcruntime:undname.obj
 0002:00006288       ??_C@_0BM@PMGGMLDN@?$GAlocal?5static?5thread?5guard?8@ 0000000180140288     libvcruntime:undname.obj
 0002:000062a8       ??_C@_0N@BDNMDMOL@operator?5?$CC?$CC?5@ 00000001801402a8     libvcruntime:undname.obj
 0002:000062b8       ??_C@_0BC@GGEBGALA@operator?5co_await@ 00000001801402b8     libvcruntime:undname.obj
 0002:000062d0       ??_C@_0M@GAAIMMOH@operator?$DM?$DN?$DO@ 00000001801402d0     libvcruntime:undname.obj
 0002:000062e0       ??_C@_0BC@DAFEJGAK@?5Type?5Descriptor?8@ 00000001801402e0     libvcruntime:undname.obj
 0002:000062f8       ??_C@_0BM@LDKODKLH@?5Base?5Class?5Descriptor?5at?5?$CI@ 00000001801402f8     libvcruntime:undname.obj
 0002:00006318       ??_C@_0BD@LGICGFMM@?5Base?5Class?5Array?8@ 0000000180140318     libvcruntime:undname.obj
 0002:00006330       ??_C@_0BN@MECKDCOJ@?5Class?5Hierarchy?5Descriptor?8@ 0000000180140330     libvcruntime:undname.obj
 0002:00006350       ??_C@_0BK@CFCOFLF@?5Complete?5Object?5Locator?8@ 0000000180140350     libvcruntime:undname.obj
 0002:00006370       ??_C@_0BG@JNJLAMPM@?$GAanonymous?5namespace?8@ 0000000180140370     libvcruntime:undname.obj
 0002:00006388       ??_C@_04HEJADOOB@CV?3?5@   0000000180140388     libvcruntime:undname.obj
 0002:00006390       ??_C@_02MOLJINC@?3?3@      0000000180140390     libvcruntime:undname.obj
 0002:00006398       ??_C@_0BE@JAEOCHPE@template?9parameter?9@ 0000000180140398     libvcruntime:undname.obj
 0002:000063b0       ??_C@_0BF@LNLGBBNL@?$GAtemplate?9parameter?9@ 00000001801403b0     libvcruntime:undname.obj
 0002:000063c8       ??_C@_0O@KHGCOMHP@generic?9type?9@ 00000001801403c8     libvcruntime:undname.obj
 0002:000063d8       ??_C@_0P@ODDENDLM@?$GAgeneric?9type?9@ 00000001801403d8     libvcruntime:undname.obj
 0002:000063e8       ??_C@_02OHHJMEON@?8?8@     00000001801403e8     libvcruntime:undname.obj
 0002:000063f0       ??_C@_0BN@IBLMMFAP@?$GAnon?9type?9template?9parameter@ 00000001801403f0     libvcruntime:undname.obj
 0002:00006410       ??_C@_03DLDNIBIK@?$CFlf@   0000000180140410     libvcruntime:undname.obj
 0002:00006414       ??_C@_04OFALKAJ@?$DP?$DP_C@ 0000000180140414     libvcruntime:undname.obj
 0002:0000641c       ??_C@_03KHICJKCI@?4?4?4@   000000018014041c     libvcruntime:undname.obj
 0002:00006420       ??_C@_04HIBGFPH@NULL@      0000000180140420     libvcruntime:undname.obj
 0002:00006428       ??_C@_02DPKJAMEF@?$CFd@    0000000180140428     libvcruntime:undname.obj
 0002:00006430       ??_C@_0BK@IHCCFNEL@?$GAtemplate?9type?9parameter?9@ 0000000180140430     libvcruntime:undname.obj
 0002:00006450       ??_C@_0BK@OFCNNNKO@?$GAgeneric?9class?9parameter?9@ 0000000180140450     libvcruntime:undname.obj
 0002:00006470       ??_C@_0BL@NGJBLFIL@?$GAgeneric?9method?9parameter?9@ 0000000180140470     libvcruntime:undname.obj
 0002:00006490       ??_C@_0BE@EODMJLIF@?$GAtemplate?9parameter@ 0000000180140490     libvcruntime:undname.obj
 0002:000064a4       ??_C@_03OPGICMGF@?$HN?8?5@ 00000001801404a4     libvcruntime:undname.obj
 0002:000064a8       ??_C@_02IGFCGPIL@?$HN?8@   00000001801404a8     libvcruntime:undname.obj
 0002:000064b0       ??_C@_0N@CBHHHENL@?$GAvtordispex?$HL@ 00000001801404b0     libvcruntime:undname.obj
 0002:000064c0       ??_C@_0L@GHPFDFH@?$GAvtordisp?$HL@ 00000001801404c0     libvcruntime:undname.obj
 0002:000064d0       ??_C@_0L@HNGCOGAE@?$GAadjustor?$HL@ 00000001801404d0     libvcruntime:undname.obj
 0002:000064e0       ??_C@_0CB@KJDOOODE@?$GAlocal?5static?5destructor?5helper@ 00000001801404e0     libvcruntime:undname.obj
 0002:00006508       ??_C@_0DB@ILEFOCIJ@?$GAtemplate?5static?5data?5member?5co@ 0000000180140508     libvcruntime:undname.obj
 0002:00006540       ??_C@_0DA@HGFJFBBE@?$GAtemplate?5static?5data?5member?5de@ 0000000180140540     libvcruntime:undname.obj
 0002:00006570       ??_C@_07PGOEDBHP@static?5@ 0000000180140570     libvcruntime:undname.obj
 0002:00006578       ??_C@_08NIEOINHE@virtual?5@ 0000000180140578     libvcruntime:undname.obj
 0002:00006588       ??_C@_09LAPHOOG@private?3?5@ 0000000180140588     libvcruntime:undname.obj
 0002:00006598       ??_C@_0M@GAIFPFIP@protected?3?5@ 0000000180140598     libvcruntime:undname.obj
 0002:000065a8       ??_C@_08GPDDCMKI@public?3?5@ 00000001801405a8     libvcruntime:undname.obj
 0002:000065b8       ??_C@_08KJLFOPNE@?$FLthunk?$FN?3@ 00000001801405b8     libvcruntime:undname.obj
 0002:000065c8       ??_C@_0M@DHNBOJMP@extern?5?$CCC?$CC?5@ 00000001801405c8     libvcruntime:undname.obj
 0002:000065d4       ??_C@_02KCKGHPCA@?$CJ?5@   00000001801405d4     libvcruntime:undname.obj
 0002:000065d8       ??_C@_05CIHEBHNO@char?5@   00000001801405d8     libvcruntime:undname.obj
 0002:000065e0       ??_C@_06EHJMALKF@short?5@  00000001801405e0     libvcruntime:undname.obj
 0002:000065e8       ??_C@_04LAHKHJMA@int?5@    00000001801405e8     libvcruntime:undname.obj
 0002:000065f0       ??_C@_05CJIMAING@long?5@   00000001801405f0     libvcruntime:undname.obj
 0002:000065f8       ??_C@_09EBBEKKIH@unsigned?5@ 00000001801405f8     libvcruntime:undname.obj
 0002:00006604       ??_C@_05BEFAKPML@void?5@   0000000180140604     libvcruntime:undname.obj
 0002:00006610       ??_C@_09GAIEOBLP@volatile?5@ 0000000180140610     libvcruntime:undname.obj
 0002:00006620       ??_C@_08PABEKFH@volatile@  0000000180140620     libvcruntime:undname.obj
 0002:00006630       ??_C@_0BA@LKIJLKPP@std?3?3nullptr_t?5@ 0000000180140630     libvcruntime:undname.obj
 0002:00006640       ??_C@_0P@GCOCNKDM@std?3?3nullptr_t@ 0000000180140640     libvcruntime:undname.obj
 0002:00006650       ??_C@_0L@EGPHHEKN@?$DMellipsis?$DO@ 0000000180140650     libvcruntime:undname.obj
 0002:0000665c       ??_C@_04EENFHACM@?0?4?4?4@ 000000018014065c     libvcruntime:undname.obj
 0002:00006668       ??_C@_0M@ELJOJFFH@?0?$DMellipsis?$DO@ 0000000180140668     libvcruntime:undname.obj
 0002:00006678       ??_C@_09DNHFEOJI@?5noexcept@ 0000000180140678     libvcruntime:undname.obj
 0002:00006684       ??_C@_03PBJBJNON@cpu@      0000000180140684     libvcruntime:undname.obj
 0002:00006688       ??_C@_03DCBBJBAA@amp@      0000000180140688     libvcruntime:undname.obj
 0002:0000668c       ??_C@_02KEGNLNML@?0?5@     000000018014068c     libvcruntime:undname.obj
 0002:00006690       ??_C@_04ENMBGAPA@char@     0000000180140690     libvcruntime:undname.obj
 0002:00006698       ??_C@_05BFKKPKCG@short@    0000000180140698     libvcruntime:undname.obj
 0002:000066a0       ??_C@_03JBIPMCLC@int@      00000001801406a0     libvcruntime:undname.obj
 0002:000066a4       ??_C@_04GOKPGOLB@long@     00000001801406a4     libvcruntime:undname.obj
 0002:000066ac       ??_C@_06BNJCAIGJ@double@   00000001801406ac     libvcruntime:undname.obj
 0002:000066b4       ??_C@_06EBGKOKIG@__int8@   00000001801406b4     libvcruntime:undname.obj
 0002:000066c0       ??_C@_07ICFHOGAF@__int16@  00000001801406c0     libvcruntime:undname.obj
 0002:000066c8       ??_C@_07OFLPPHGP@__int32@  00000001801406c8     libvcruntime:undname.obj
 0002:000066d0       ??_C@_07LFCOJCAC@__int64@  00000001801406d0     libvcruntime:undname.obj
 0002:000066d8       ??_C@_08GAHOLHEO@__int128@ 00000001801406d8     libvcruntime:undname.obj
 0002:000066e8       ??_C@_09EEKGDCPH@?$DMunknown?$DO@ 00000001801406e8     libvcruntime:undname.obj
 0002:000066f8       ??_C@_07CFHGOPCN@char8_t@  00000001801406f8     libvcruntime:undname.obj
 0002:00006700       ??_C@_08HBIPOFJB@char16_t@ 0000000180140700     libvcruntime:undname.obj
 0002:00006710       ??_C@_08IECNCBKG@char32_t@ 0000000180140710     libvcruntime:undname.obj
 0002:00006720       ??_C@_07CLGGIAMF@wchar_t@  0000000180140720     libvcruntime:undname.obj
 0002:00006728       ??_C@_06GCICPBLB@__w64?5@  0000000180140728     libvcruntime:undname.obj
 0002:00006730       ??_C@_07NFANNNEC@UNKNOWN@  0000000180140730     libvcruntime:undname.obj
 0002:00006738       ??_C@_07EDHNAJHC@signed?5@ 0000000180140738     libvcruntime:undname.obj
 0002:00006740       ??_C@_05BNCCCJPP@const@    0000000180140740     libvcruntime:undname.obj
 0002:00006748       ??_C@_09EFNPDFFP@?5volatile@ 0000000180140748     libvcruntime:undname.obj
 0002:00006758       ??_C@_0P@GCIFDJCJ@?$GAunknown?5ecsu?8@ 0000000180140758     libvcruntime:undname.obj
 0002:00006768       ??_C@_06MOJHIBMG@union?5@  0000000180140768     libvcruntime:undname.obj
 0002:00006770       ??_C@_07DIBCDNGL@struct?5@ 0000000180140770     libvcruntime:undname.obj
 0002:00006778       ??_C@_06LJBABKPM@class?5@  0000000180140778     libvcruntime:undname.obj
 0002:00006780       ??_C@_08KOFANOFK@coclass?5@ 0000000180140780     libvcruntime:undname.obj
 0002:00006790       ??_C@_0N@DLIEFKNA@cointerface?5@ 0000000180140790     libvcruntime:undname.obj
 0002:000067a0       ??_C@_05LJGMCFOG@enum?5@   00000001801407a0     libvcruntime:undname.obj
 0002:000067a8       ??_C@_06LIJLOJAG@const?5@  00000001801407a8     libvcruntime:undname.obj
 0002:000067b0       ??_C@_02KJPKDIBN@?$CG?5@   00000001801407b0     libvcruntime:undname.obj
 0002:000067b4       ??_C@_03PCKGMOPB@?$CG?$CG?5@ 00000001801407b4     libvcruntime:undname.obj
 0002:000067b8       ??_C@_0M@EALIELKG@cli?3?3array?$DM@ 00000001801407b8     libvcruntime:undname.obj
 0002:000067c8       ??_C@_0O@GKABPPIF@cli?3?3pin_ptr?$DM@ 00000001801407c8     libvcruntime:undname.obj
 0002:000067d8       ??_C@_02GOGNNPBN@?$CJ?$FL@ 00000001801407d8     libvcruntime:undname.obj
 0002:000067dc       ??_C@_06EEGAIFAK@?$HLflat?$HN@ 00000001801407dc     libvcruntime:undname.obj
 0002:000067e4       ??_C@_05JIBOFOHK@?$HLfor?5@ 00000001801407e4     libvcruntime:undname.obj
 0002:000067ec       ??_C@_02MDINNEEG@s?5@      00000001801407ec     libvcruntime:undname.obj
 0002:000067f8       ??_7charNode@@6B@          00000001801407f8     libvcruntime:undname.obj
 0002:00006820       ??_7pcharNode@@6B@         0000000180140820     libvcruntime:undname.obj
 0002:00006848       ??_7pDNameNode@@6B@        0000000180140848     libvcruntime:undname.obj
 0002:00006870       ??_7DNameStatusNode@@6B@   0000000180140870     libvcruntime:undname.obj
 0002:00006898       ??_7pairNode@@6B@          0000000180140898     libvcruntime:undname.obj
 0002:000069c0       ??_C@_04OKOHEJBO@?5?$DP?$DP?5@ 00000001801409c0     libvcruntime:undname.obj
 0002:000069d0       ?nodes@?1??make@DNameStatusNode@@SAPEBV2@W4DNameStatus@@@Z@4QBV2@B 00000001801409d0     libvcruntime:undname.obj
 0002:00006a10       ?s_negLengthTab@FH4@@3QBCB 0000000180140a10     libvcruntime:risctrnsctrl.obj
 0002:00006a20       ?s_shiftTab@FH4@@3QBEB     0000000180140a20     libvcruntime:risctrnsctrl.obj
 0002:00006b80       ??_C@_1DM@KHCHBNEB@?$AAa?$AAp?$AAi?$AA?9?$AAm?$AAs?$AA?9?$AAw?$AAi?$AAn?$AA?9?$AAc?$AAo?$AAr?$AAe@ 0000000180140b80     libvcruntime:winapi_downlevel.obj
 0002:00006bc0       ??_C@_1DK@LPPGFMPP@?$AAa?$AAp?$AAi?$AA?9?$AAm?$AAs?$AA?9?$AAw?$AAi?$AAn?$AA?9?$AAc?$AAo?$AAr?$AAe@ 0000000180140bc0     libvcruntime:winapi_downlevel.obj
 0002:00006c00       ??_C@_1BC@GDMECMAK@?$AAk?$AAe?$AAr?$AAn?$AAe?$AAl?$AA3?$AA2@ 0000000180140c00     libvcruntime:winapi_downlevel.obj
 0002:00006c18       ??_C@_1BA@PFFKHIOG@?$AAa?$AAp?$AAi?$AA?9?$AAm?$AAs?$AA?9@ 0000000180140c18     libvcruntime:winapi_downlevel.obj
 0002:00006c30       ??_C@_08KNHFBNJ@FlsAlloc@  0000000180140c30     libvcruntime:winapi_downlevel.obj
 0002:00006c48       ??_C@_07PEJMOBNF@FlsFree@  0000000180140c48     libvcruntime:winapi_downlevel.obj
 0002:00006c58       ??_C@_0M@GDNOONDI@FlsGetValue@ 0000000180140c58     libvcruntime:winapi_downlevel.obj
 0002:00006c70       ??_C@_0M@JCPCPOEF@FlsSetValue@ 0000000180140c70     libvcruntime:winapi_downlevel.obj
 0002:00006c88       ??_C@_0BM@HCFOFFN@InitializeCriticalSectionEx@ 0000000180140c88     libvcruntime:winapi_downlevel.obj
 0002:00006cb0       ??_7exception@std@@6B@     0000000180140cb0     libvcruntime:frame.obj
 0002:00006cc0       ??_C@_0BC@EOODALEL@Unknown?5exception@ 0000000180140cc0     libvcruntime:frame.obj
 0002:00006ce0       ??_7bad_exception@std@@6B@ 0000000180140ce0     libvcruntime:frame.obj
 0002:00006cf0       ??_C@_0O@DPKOEFFH@bad?5exception@ 0000000180140cf0     libvcruntime:frame.obj
 0002:00007040       ??_C@_05FFFCHCED@acosf@    0000000180141040     libucrt:acosf.obj
 0002:00007048       __real@3b81ce6b            0000000180141048     libucrt:acosf.obj
 0002:00007050       __real@3c91a62633145c07    0000000180141050     libucrt:acosf.obj
 0002:00007058       __real@3d678bdd            0000000180141058     libucrt:acosf.obj
 0002:0000705c       __real@3e3c94dc            000000018014105c     libucrt:acosf.obj
 0002:00007060       __real@3f561f0d            0000000180141060     libucrt:acosf.obj
 0002:00007064       __real@3f8d6fa5            0000000180141064     libucrt:acosf.obj
 0002:00007068       __real@3ff921fb54442d18    0000000180141068     libucrt:acosf.obj
 0002:00007070       __real@400921fb54442d18    0000000180141070     libucrt:acosf.obj
 0002:00007078       __real@40490fdb            0000000180141078     libucrt:acosf.obj
 0002:0000707c       __real@bc5b3fe1            000000018014107c     libucrt:acosf.obj
 0002:00007080       __acrt_exception_action_table 0000000180141080     libucrt:exception_filter.obj
 0002:00007140       __acrt_signal_action_table_count 0000000180141140     libucrt:exception_filter.obj
 0002:00007148       __acrt_signal_action_first_fpe_index 0000000180141148     libucrt:exception_filter.obj
 0002:00007150       __acrt_signal_action_fpe_count 0000000180141150     libucrt:exception_filter.obj
 0002:000071a8       ??_C@_1BI@BGOHAHKC@?$AAm?$AAs?$AAc?$AAo?$AAr?$AAe?$AAe?$AA?4?$AAd?$AAl?$AAl@ 00000001801411a8     libucrt:exit.obj
 0002:000071c0       ??_C@_0P@MIGLKIOC@CorExitProcess@ 00000001801411c0     libucrt:exit.obj
 0002:00007320       ?format_validation_lookup_table_spectre@__crt_stdio_output@@3V?$spectre_mitigated_lookup_table@Ustate_transition_pair@__crt_stdio_output@@$0IA@@1@B 0000000180141320     libucrt:output.obj
 0002:00007420       ??_C@_1O@CEDCILHN@?$AA?$CI?$AAn?$AAu?$AAl?$AAl?$AA?$CJ@ 0000000180141420     libucrt:output.obj
 0002:00007430       ??_C@_06OJHGLDPL@?$CInull?$CJ@ 0000000180141430     libucrt:output.obj
 0002:000075b0       ??_C@_04LAGPAAHP@sinf@     00000001801415b0     libucrt:sincos_special.obj
 0002:000075b8       ??_C@_04OBBKPIAC@cosf@     00000001801415b8     libucrt:sincos_special.obj
 0002:000075c0       ??_C@_04MHPLPEIA@tanf@     00000001801415c0     libucrt:sincos_special.obj
 0002:000075d0       __Lcosfarray               00000001801415d0     libucrt:lsincosf_array.obj
 0002:00007600       __Lsinfarray               0000000180141600     libucrt:lsincosf_array.obj
 0002:00007620       __L_2_by_pi_bits           0000000180141620     libucrt:l2_by_pi_bits.obj
 0002:000078f8       ??_C@_1M@HPNHIDJI@?$AAj?$AAa?$AA?9?$AAJ?$AAP@ 00000001801418f8     libucrt:mbctype.obj
 0002:00007908       ??_C@_1M@BIBDDEMK@?$AAz?$AAh?$AA?9?$AAC?$AAN@ 0000000180141908     libucrt:mbctype.obj
 0002:00007918       ??_C@_1M@JLOOOEGK@?$AAk?$AAo?$AA?9?$AAK?$AAR@ 0000000180141918     libucrt:mbctype.obj
 0002:00007928       ??_C@_1M@CLNBBOPM@?$AAz?$AAh?$AA?9?$AAT?$AAW@ 0000000180141928     libucrt:mbctype.obj
 0002:000079e0       ??_C@_1EA@JGEFHKEI@?$AAa?$AAp?$AAi?$AA?9?$AAm?$AAs?$AA?9?$AAw?$AAi?$AAn?$AA?9?$AAc?$AAo?$AAr?$AAe@ 00000001801419e0     libucrt:winapi_thunks.obj
 0002:00007a20       ??_C@_1DI@IJCEHOCB@?$AAa?$AAp?$AAi?$AA?9?$AAm?$AAs?$AA?9?$AAw?$AAi?$AAn?$AA?9?$AAc?$AAo?$AAr?$AAe@ 0000000180141a20     libucrt:winapi_thunks.obj
 0002:00007a60       ??_C@_1EI@MPIAOHOC@?$AAa?$AAp?$AAi?$AA?9?$AAm?$AAs?$AA?9?$AAw?$AAi?$AAn?$AA?9?$AAc?$AAo?$AAr?$AAe@ 0000000180141a60     libucrt:winapi_thunks.obj
 0002:00007ab0       ??_C@_1FK@FPHCKFIE@?$AAa?$AAp?$AAi?$AA?9?$AAm?$AAs?$AA?9?$AAw?$AAi?$AAn?$AA?9?$AAc?$AAo?$AAr?$AAe@ 0000000180141ab0     libucrt:winapi_thunks.obj
 0002:00007b10       ??_C@_1EM@DILCGIIO@?$AAa?$AAp?$AAi?$AA?9?$AAm?$AAs?$AA?9?$AAw?$AAi?$AAn?$AA?9?$AAc?$AAo?$AAr?$AAe@ 0000000180141b10     libucrt:winapi_thunks.obj
 0002:00007b60       ??_C@_1DM@LNCGDDPN@?$AAa?$AAp?$AAi?$AA?9?$AAm?$AAs?$AA?9?$AAw?$AAi?$AAn?$AA?9?$AAc?$AAo?$AAr?$AAe@ 0000000180141b60     libucrt:winapi_thunks.obj
 0002:00007ba0       ??_C@_1DO@FPAPJEMD@?$AAa?$AAp?$AAi?$AA?9?$AAm?$AAs?$AA?9?$AAw?$AAi?$AAn?$AA?9?$AAc?$AAo?$AAr?$AAe@ 0000000180141ba0     libucrt:winapi_thunks.obj
 0002:00007be0       ??_C@_1DK@NDHNAHIO@?$AAa?$AAp?$AAi?$AA?9?$AAm?$AAs?$AA?9?$AAw?$AAi?$AAn?$AA?9?$AAc?$AAo?$AAr?$AAe@ 0000000180141be0     libucrt:winapi_thunks.obj
 0002:00007c20       ??_C@_1DM@KGHDGBCM@?$AAa?$AAp?$AAi?$AA?9?$AAm?$AAs?$AA?9?$AAw?$AAi?$AAn?$AA?9?$AAc?$AAo?$AAr?$AAe@ 0000000180141c20     libucrt:winapi_thunks.obj
 0002:00007c60       ??_C@_1EO@IJIOEFOH@?$AAa?$AAp?$AAi?$AA?9?$AAm?$AAs?$AA?9?$AAw?$AAi?$AAn?$AA?9?$AAr?$AAt?$AAc?$AAo@ 0000000180141c60     libucrt:winapi_thunks.obj
 0002:00007cb0       ??_C@_1FG@HHGEKANL@?$AAa?$AAp?$AAi?$AA?9?$AAm?$AAs?$AA?9?$AAw?$AAi?$AAn?$AA?9?$AAs?$AAe?$AAc?$AAu@ 0000000180141cb0     libucrt:winapi_thunks.obj
 0002:00007d10       ??_C@_1EG@DBIOJECG@?$AAe?$AAx?$AAt?$AA?9?$AAm?$AAs?$AA?9?$AAw?$AAi?$AAn?$AA?9?$AAn?$AAt?$AAu?$AAs@ 0000000180141d10     libucrt:winapi_thunks.obj
 0002:00007d60       ??_C@_1EO@FIHMJCLF@?$AAe?$AAx?$AAt?$AA?9?$AAm?$AAs?$AA?9?$AAw?$AAi?$AAn?$AA?9?$AAn?$AAt?$AAu?$AAs@ 0000000180141d60     libucrt:winapi_thunks.obj
 0002:00007db0       ??_C@_1BC@DNHGCMLG@?$AAa?$AAd?$AAv?$AAa?$AAp?$AAi?$AA3?$AA2@ 0000000180141db0     libucrt:winapi_thunks.obj
 0002:00007dc8       ??_C@_1M@OAIMIKLP@?$AAn?$AAt?$AAd?$AAl?$AAl@ 0000000180141dc8     libucrt:winapi_thunks.obj
 0002:00007de0       ??_C@_1EG@DPGNFKGC@?$AAa?$AAp?$AAi?$AA?9?$AAm?$AAs?$AA?9?$AAw?$AAi?$AAn?$AA?9?$AAa?$AAp?$AAp?$AAm@ 0000000180141de0     libucrt:winapi_thunks.obj
 0002:00007e28       ??_C@_1O@BCCLBEOE@?$AAu?$AAs?$AAe?$AAr?$AA3?$AA2@ 0000000180141e28     libucrt:winapi_thunks.obj
 0002:00007e38       ??_C@_1BA@IAIFMGEF@?$AAe?$AAx?$AAt?$AA?9?$AAm?$AAs?$AA?9@ 0000000180141e38     libucrt:winapi_thunks.obj
 0002:00007e50       ??_C@_0BA@FHFNEAED@AreFileApisANSI@ 0000000180141e50     libucrt:winapi_thunks.obj
 0002:00007e70       ??_C@_0O@KKBNKAPF@LCMapStringEx@ 0000000180141e70     libucrt:winapi_thunks.obj
 0002:00007e88       ??_C@_0BB@HBDEELFH@LocaleNameToLCID@ 0000000180141e88     libucrt:winapi_thunks.obj
 0002:00007ea0       ??_C@_0CF@OJOFEIGO@AppPolicyGetProcessTerminationM@ 0000000180141ea0     libucrt:winapi_thunks.obj
 0002:00007ed0       __lc_time_c                0000000180141ed0     libucrt:nlsdata.obj
 0002:00008190       ??_C@_03KOEHGMDN@Sun@      0000000180142190     libucrt:nlsdata.obj
 0002:00008194       ??_C@_03PDAGKDH@Mon@       0000000180142194     libucrt:nlsdata.obj
 0002:00008198       ??_C@_03NAGEINEP@Tue@      0000000180142198     libucrt:nlsdata.obj
 0002:0000819c       ??_C@_03MHOMLAJA@Wed@      000000018014219c     libucrt:nlsdata.obj
 0002:000081a0       ??_C@_03IOFIKPDN@Thu@      00000001801421a0     libucrt:nlsdata.obj
 0002:000081a4       ??_C@_03IDIOELNC@Fri@      00000001801421a4     libucrt:nlsdata.obj
 0002:000081a8       ??_C@_03FEFJNEK@Sat@       00000001801421a8     libucrt:nlsdata.obj
 0002:000081ac       ??_C@_06OOPIFAJ@Sunday@    00000001801421ac     libucrt:nlsdata.obj
 0002:000081b4       ??_C@_06JLEDEDGH@Monday@   00000001801421b4     libucrt:nlsdata.obj
 0002:000081c0       ??_C@_07BAAGCFCM@Tuesday@  00000001801421c0     libucrt:nlsdata.obj
 0002:000081c8       ??_C@_09DLIGFAKA@Wednesday@ 00000001801421c8     libucrt:nlsdata.obj
 0002:000081d8       ??_C@_08HACCIKIA@Thursday@ 00000001801421d8     libucrt:nlsdata.obj
 0002:000081e4       ??_C@_06JECMNKMI@Friday@   00000001801421e4     libucrt:nlsdata.obj
 0002:000081f0       ??_C@_08INBOOONO@Saturday@ 00000001801421f0     libucrt:nlsdata.obj
 0002:000081fc       ??_C@_03JIHJHPIE@Jan@      00000001801421fc     libucrt:nlsdata.obj
 0002:00008200       ??_C@_03HJBDCHOM@Feb@      0000000180142200     libucrt:nlsdata.obj
 0002:00008204       ??_C@_03ODNJBKGA@Mar@      0000000180142204     libucrt:nlsdata.obj
 0002:00008208       ??_C@_03LEOLGMJP@Apr@      0000000180142208     libucrt:nlsdata.obj
 0002:0000820c       ??_C@_03CNMDKL@May@        000000018014220c     libucrt:nlsdata.obj
 0002:00008210       ??_C@_03IDFGHECI@Jun@      0000000180142210     libucrt:nlsdata.obj
 0002:00008214       ??_C@_03LBGABGKK@Jul@      0000000180142214     libucrt:nlsdata.obj
 0002:00008218       ??_C@_03IFJFEIGA@Aug@      0000000180142218     libucrt:nlsdata.obj
 0002:0000821c       ??_C@_03GGCAPAJC@Sep@      000000018014221c     libucrt:nlsdata.obj
 0002:00008220       ??_C@_03BMAOKBAD@Oct@      0000000180142220     libucrt:nlsdata.obj
 0002:00008224       ??_C@_03JPJOFNIA@Nov@      0000000180142224     libucrt:nlsdata.obj
 0002:00008228       ??_C@_03MKABNOCG@Dec@      0000000180142228     libucrt:nlsdata.obj
 0002:00008230       ??_C@_07CGJPFGJA@January@  0000000180142230     libucrt:nlsdata.obj
 0002:00008238       ??_C@_08GNJGEPFN@February@ 0000000180142238     libucrt:nlsdata.obj
 0002:00008244       ??_C@_05HPCKOFNC@March@    0000000180142244     libucrt:nlsdata.obj
 0002:0000824c       ??_C@_05DMJDNLEJ@April@    000000018014224c     libucrt:nlsdata.obj
 0002:00008254       ??_C@_04CNLMGBGM@June@     0000000180142254     libucrt:nlsdata.obj
 0002:0000825c       ??_C@_04MIEPOIFP@July@     000000018014225c     libucrt:nlsdata.obj
 0002:00008264       ??_C@_06LBBHFDDG@August@   0000000180142264     libucrt:nlsdata.obj
 0002:00008270       ??_C@_09BHHEALKD@September@ 0000000180142270     libucrt:nlsdata.obj
 0002:00008280       ??_C@_07JJNFCEND@October@  0000000180142280     libucrt:nlsdata.obj
 0002:00008288       ??_C@_08HCHEGEOA@November@ 0000000180142288     libucrt:nlsdata.obj
 0002:00008298       ??_C@_08EDHMEBNP@December@ 0000000180142298     libucrt:nlsdata.obj
 0002:000082a4       ??_C@_02DEDBPAFC@AM@       00000001801422a4     libucrt:nlsdata.obj
 0002:000082a8       ??_C@_02CJNFDJBF@PM@       00000001801422a8     libucrt:nlsdata.obj
 0002:000082b0       ??_C@_08BPBNCDIB@MM?1dd?1yy@ 00000001801422b0     libucrt:nlsdata.obj
 0002:000082c0       ??_C@_0BE@CKGJFCPC@dddd?0?5MMMM?5dd?0?5yyyy@ 00000001801422c0     libucrt:nlsdata.obj
 0002:000082d8       ??_C@_08JCCMCCIL@HH?3mm?3ss@ 00000001801422d8     libucrt:nlsdata.obj
 0002:000082e8       ??_C@_17MBGCMIPB@?$AAS?$AAu?$AAn@ 00000001801422e8     libucrt:nlsdata.obj
 0002:000082f0       ??_C@_17KBOMKBF@?$AAM?$AAo?$AAn@ 00000001801422f0     libucrt:nlsdata.obj
 0002:000082f8       ??_C@_17BMKGEGOJ@?$AAT?$AAu?$AAe@ 00000001801422f8     libucrt:nlsdata.obj
 0002:00008300       ??_C@_17CJEDCEPE@?$AAW?$AAe?$AAd@ 0000000180142300     libucrt:nlsdata.obj
 0002:00008308       ??_C@_17PDPHAADD@?$AAT?$AAh?$AAu@ 0000000180142308     libucrt:nlsdata.obj
 0002:00008310       ??_C@_17HFOLPPLP@?$AAF?$AAr?$AAi@ 0000000180142310     libucrt:nlsdata.obj
 0002:00008318       ??_C@_17GGIBDPIH@?$AAS?$AAa?$AAt@ 0000000180142318     libucrt:nlsdata.obj
 0002:00008320       ??_C@_1O@IHNHDHPB@?$AAS?$AAu?$AAn?$AAd?$AAa?$AAy@ 0000000180142320     libucrt:nlsdata.obj
 0002:00008330       ??_C@_1O@MMNBFLIA@?$AAM?$AAo?$AAn?$AAd?$AAa?$AAy@ 0000000180142330     libucrt:nlsdata.obj
 0002:00008340       ??_C@_1BA@ENFBFFEK@?$AAT?$AAu?$AAe?$AAs?$AAd?$AAa?$AAy@ 0000000180142340     libucrt:nlsdata.obj
 0002:00008350       ??_C@_1BE@EBOGMDOH@?$AAW?$AAe?$AAd?$AAn?$AAe?$AAs?$AAd?$AAa?$AAy@ 0000000180142350     libucrt:nlsdata.obj
 0002:00008368       ??_C@_1BC@HHMNLIHE@?$AAT?$AAh?$AAu?$AAr?$AAs?$AAd?$AAa?$AAy@ 0000000180142368     libucrt:nlsdata.obj
 0002:00008380       ??_C@_1O@PDICJHAG@?$AAF?$AAr?$AAi?$AAd?$AAa?$AAy@ 0000000180142380     libucrt:nlsdata.obj
 0002:00008390       ??_C@_1BC@ENMNNPAJ@?$AAS?$AAa?$AAt?$AAu?$AAr?$AAd?$AAa?$AAy@ 0000000180142390     libucrt:nlsdata.obj
 0002:000083a8       ??_C@_17DKNBKCHM@?$AAJ?$AAa?$AAn@ 00000001801423a8     libucrt:nlsdata.obj
 0002:000083b0       ??_C@_17LMDJEKJN@?$AAF?$AAe?$AAb@ 00000001801423b0     libucrt:nlsdata.obj
 0002:000083b8       ??_C@_17CKNLEDEC@?$AAM?$AAa?$AAr@ 00000001801423b8     libucrt:nlsdata.obj
 0002:000083c0       ??_C@_17LFPOIHDD@?$AAA?$AAp?$AAr@ 00000001801423c0     libucrt:nlsdata.obj
 0002:000083c8       ??_C@_17PNNKMEED@?$AAM?$AAa?$AAy@ 00000001801423c8     libucrt:nlsdata.obj
 0002:000083d0       ??_C@_17KCJGOCPB@?$AAJ?$AAu?$AAn@ 00000001801423d0     libucrt:nlsdata.obj
 0002:000083d8       ??_C@_17IJPCKHK@?$AAJ?$AAu?$AAl@ 00000001801423d8     libucrt:nlsdata.obj
 0002:000083e0       ??_C@_17ICPELBCN@?$AAA?$AAu?$AAg@ 00000001801423e0     libucrt:nlsdata.obj
 0002:000083e8       ??_C@_17HCHCOKMG@?$AAS?$AAe?$AAp@ 00000001801423e8     libucrt:nlsdata.obj
 0002:000083f0       ??_C@_17FNLKOI@?$AAO?$AAc?$AAt@ 00000001801423f0     libucrt:nlsdata.obj
 0002:000083f8       ??_C@_17BBDMLCIG@?$AAN?$AAo?$AAv@ 00000001801423f8     libucrt:nlsdata.obj
 0002:00008400       ??_C@_17EGKACKIF@?$AAD?$AAe?$AAc@ 0000000180142400     libucrt:nlsdata.obj
 0002:00008408       ??_C@_1BA@EFMEIEBA@?$AAJ?$AAa?$AAn?$AAu?$AAa?$AAr?$AAy@ 0000000180142408     libucrt:nlsdata.obj
 0002:00008418       ??_C@_1BC@JGDDFFAM@?$AAF?$AAe?$AAb?$AAr?$AAu?$AAa?$AAr?$AAy@ 0000000180142418     libucrt:nlsdata.obj
 0002:00008430       ??_C@_1M@IKEENEDF@?$AAM?$AAa?$AAr?$AAc?$AAh@ 0000000180142430     libucrt:nlsdata.obj
 0002:00008440       ??_C@_1M@GJNLMHFD@?$AAA?$AAp?$AAr?$AAi?$AAl@ 0000000180142440     libucrt:nlsdata.obj
 0002:00008450       ??_C@_19EPFLPGAP@?$AAJ?$AAu?$AAn?$AAe@ 0000000180142450     libucrt:nlsdata.obj
 0002:00008460       ??_C@_19BIFMLPCD@?$AAJ?$AAu?$AAl?$AAy@ 0000000180142460     libucrt:nlsdata.obj
 0002:00008470       ??_C@_1O@PAHLKOAC@?$AAA?$AAu?$AAg?$AAu?$AAs?$AAt@ 0000000180142470     libucrt:nlsdata.obj
 0002:00008480       ??_C@_1BE@DKAAMBJL@?$AAS?$AAe?$AAp?$AAt?$AAe?$AAm?$AAb?$AAe?$AAr@ 0000000180142480     libucrt:nlsdata.obj
 0002:00008498       ??_C@_1BA@EPANDLNG@?$AAO?$AAc?$AAt?$AAo?$AAb?$AAe?$AAr@ 0000000180142498     libucrt:nlsdata.obj
 0002:000084a8       ??_C@_1BC@BGLIFPF@?$AAN?$AAo?$AAv?$AAe?$AAm?$AAb?$AAe?$AAr@ 00000001801424a8     libucrt:nlsdata.obj
 0002:000084c0       ??_C@_1BC@FEMKIFH@?$AAD?$AAe?$AAc?$AAe?$AAm?$AAb?$AAe?$AAr@ 00000001801424c0     libucrt:nlsdata.obj
 0002:000084d4       ??_C@_15ODEHAHHF@?$AAA?$AAM@ 00000001801424d4     libucrt:nlsdata.obj
 0002:000084dc       ??_C@_15CLMNNGEL@?$AAP?$AAM@ 00000001801424dc     libucrt:nlsdata.obj
 0002:000084e8       ??_C@_1BC@IEBCMHCM@?$AAM?$AAM?$AA?1?$AAd?$AAd?$AA?1?$AAy?$AAy@ 00000001801424e8     libucrt:nlsdata.obj
 0002:00008500       ??_C@_1CI@KNAKOEBC@?$AAd?$AAd?$AAd?$AAd?$AA?0?$AA?5?$AAM?$AAM?$AAM?$AAM?$AA?5?$AAd?$AAd?$AA?0?$AA?5@ 0000000180142500     libucrt:nlsdata.obj
 0002:00008528       ??_C@_1BC@GDGBMEMK@?$AAH?$AAH?$AA?3?$AAm?$AAm?$AA?3?$AAs?$AAs@ 0000000180142528     libucrt:nlsdata.obj
 0002:00008540       ??_C@_1M@BMHNFIME@?$AAe?$AAn?$AA?9?$AAU?$AAS@ 0000000180142540     libucrt:nlsdata.obj
 0002:000085d0       ??_C@_03OEIAHPBN@INF@      00000001801425d0     libucrt:cvt.obj
 0002:000085d4       ??_C@_03OJHLLCGB@inf@      00000001801425d4     libucrt:cvt.obj
 0002:000085d8       ??_C@_03LKNCIKJB@NAN@      00000001801425d8     libucrt:cvt.obj
 0002:000085dc       ??_C@_03LHCJEHON@nan@      00000001801425dc     libucrt:cvt.obj
 0002:000085e0       ??_C@_09OFJJIMPC@NAN?$CISNAN?$CJ@ 00000001801425e0     libucrt:cvt.obj
 0002:000085f0       ??_C@_09IPFBKMDL@nan?$CIsnan?$CJ@ 00000001801425f0     libucrt:cvt.obj
 0002:00008600       ??_C@_08IKHNHAJ@NAN?$CIIND?$CJ@ 0000000180142600     libucrt:cvt.obj
 0002:00008610       ??_C@_08OFCDMILK@nan?$CIind?$CJ@ 0000000180142610     libucrt:cvt.obj
 0002:0000861c       ??_C@_05KLBDPFGC@e?$CL000@ 000000018014261c     libucrt:cvt.obj
 0002:00008630       __newctype                 0000000180142630     libucrt:ctype.obj
 0002:00008930       __newclmap                 0000000180142930     libucrt:ctype.obj
 0002:00008ab0       __newcumap                 0000000180142ab0     libucrt:ctype.obj
 0002:00008c40       ??_C@_05HGHHAHAP@log10@    0000000180142c40     libucrt:fpexcept.obj
 0002:00009a90       ??_C@_15EMKDOKLE@?$AAa?$AAr@ 0000000180143a90     libucrt:lcidtoname_downlevel.obj
 0002:00009a98       ??_C@_15KNPADPLH@?$AAb?$AAg@ 0000000180143a98     libucrt:lcidtoname_downlevel.obj
 0002:00009aa0       ??_C@_15EDMHLDMO@?$AAc?$AAa@ 0000000180143aa0     libucrt:lcidtoname_downlevel.obj
 0002:00009aa8       ??_C@_1O@BPEAJADD@?$AAz?$AAh?$AA?9?$AAC?$AAH?$AAS@ 0000000180143aa8     libucrt:lcidtoname_downlevel.obj
 0002:00009ab8       ??_C@_15LJNHCMNK@?$AAc?$AAs@ 0000000180143ab8     libucrt:lcidtoname_downlevel.obj
 0002:00009ac0       ??_C@_15FOMCIDHG@?$AAd?$AAa@ 0000000180143ac0     libucrt:lcidtoname_downlevel.obj
 0002:00009ac8       ??_C@_15NBKABECB@?$AAd?$AAe@ 0000000180143ac8     libucrt:lcidtoname_downlevel.obj
 0002:00009ad0       ??_C@_15GHPEIIAO@?$AAe?$AAl@ 0000000180143ad0     libucrt:lcidtoname_downlevel.obj
 0002:00009ad8       ??_C@_15MNPNEAIF@?$AAe?$AAn@ 0000000180143ad8     libucrt:lcidtoname_downlevel.obj
 0002:00009ae0       ??_C@_15GPIOMPMH@?$AAe?$AAs@ 0000000180143ae0     libucrt:lcidtoname_downlevel.obj
 0002:00009ae8       ??_C@_15NGLOAKJC@?$AAf?$AAi@ 0000000180143ae8     libucrt:lcidtoname_downlevel.obj
 0002:00009af0       ??_C@_15FBKGNKAM@?$AAf?$AAr@ 0000000180143af0     libucrt:lcidtoname_downlevel.obj
 0002:00009af8       ??_C@_15KGGCNEFK@?$AAh?$AAe@ 0000000180143af8     libucrt:lcidtoname_downlevel.obj
 0002:00009b00       ??_C@_15PGHLIDMF@?$AAh?$AAu@ 0000000180143b00     libucrt:lcidtoname_downlevel.obj
 0002:00009b08       ??_C@_15BIEMAPLM@?$AAi?$AAs@ 0000000180143b08     libucrt:lcidtoname_downlevel.obj
 0002:00009b10       ??_C@_15IFJLDHAF@?$AAi?$AAt@ 0000000180143b10     libucrt:lcidtoname_downlevel.obj
 0002:00009b18       ??_C@_15GEMIOCAG@?$AAj?$AAa@ 0000000180143b18     libucrt:lcidtoname_downlevel.obj
 0002:00009b20       ??_C@_15EPELEGJA@?$AAk?$AAo@ 0000000180143b20     libucrt:lcidtoname_downlevel.obj
 0002:00009b28       ??_C@_15NDDHIMN@?$AAn?$AAl@ 0000000180143b28     libucrt:lcidtoname_downlevel.obj
 0002:00009b30       ??_C@_15BPIGNHCD@?$AAn?$AAo@ 0000000180143b30     libucrt:lcidtoname_downlevel.obj
 0002:00009b38       ??_C@_15DEOPBLCG@?$AAp?$AAl@ 0000000180143b38     libucrt:lcidtoname_downlevel.obj
 0002:00009b40       ??_C@_15KBECGEFG@?$AAp?$AAt@ 0000000180143b40     libucrt:lcidtoname_downlevel.obj
 0002:00009b48       ??_C@_15GLJCBFMD@?$AAr?$AAo@ 0000000180143b48     libucrt:lcidtoname_downlevel.obj
 0002:00009b50       ??_C@_15FEDGKCDI@?$AAr?$AAu@ 0000000180143b50     libucrt:lcidtoname_downlevel.obj
 0002:00009b58       ??_C@_15GLKMLLHM@?$AAh?$AAr@ 0000000180143b58     libucrt:lcidtoname_downlevel.obj
 0002:00009b60       ??_C@_15CPKMFBDB@?$AAs?$AAk@ 0000000180143b60     libucrt:lcidtoname_downlevel.obj
 0002:00009b68       ??_C@_15BAAIOGMK@?$AAs?$AAq@ 0000000180143b68     libucrt:lcidtoname_downlevel.obj
 0002:00009b70       ??_C@_15INNPNOHD@?$AAs?$AAv@ 0000000180143b70     libucrt:lcidtoname_downlevel.obj
 0002:00009b78       ??_C@_15CABMMOGH@?$AAt?$AAh@ 0000000180143b78     libucrt:lcidtoname_downlevel.obj
 0002:00009b80       ??_C@_15BPLIHJJM@?$AAt?$AAr@ 0000000180143b80     libucrt:lcidtoname_downlevel.obj
 0002:00009b88       ??_C@_15NEOEKKDJ@?$AAu?$AAr@ 0000000180143b88     libucrt:lcidtoname_downlevel.obj
 0002:00009b90       ??_C@_15NFICGAJK@?$AAi?$AAd@ 0000000180143b90     libucrt:lcidtoname_downlevel.obj
 0002:00009b98       ??_C@_15PJPFLCCM@?$AAu?$AAk@ 0000000180143b98     libucrt:lcidtoname_downlevel.obj
 0002:00009ba0       ??_C@_15HPJPHDM@?$AAb?$AAe@ 0000000180143ba0     libucrt:lcidtoname_downlevel.obj
 0002:00009ba8       ??_C@_15LCHLGJII@?$AAs?$AAl@ 0000000180143ba8     libucrt:lcidtoname_downlevel.obj
 0002:00009bb0       ??_C@_15PCFJPHHO@?$AAe?$AAt@ 0000000180143bb0     libucrt:lcidtoname_downlevel.obj
 0002:00009bb8       ??_C@_15HPFPGODN@?$AAl?$AAv@ 0000000180143bb8     libucrt:lcidtoname_downlevel.obj
 0002:00009bc0       ??_C@_15NFFGKGLG@?$AAl?$AAt@ 0000000180143bc0     libucrt:lcidtoname_downlevel.obj
 0002:00009bc8       ??_C@_15BDAKCCHN@?$AAf?$AAa@ 0000000180143bc8     libucrt:lcidtoname_downlevel.obj
 0002:00009bd0       ??_C@_15NFGIAIAJ@?$AAv?$AAi@ 0000000180143bd0     libucrt:lcidtoname_downlevel.obj
 0002:00009bd8       ??_C@_15LMKNDMHN@?$AAh?$AAy@ 0000000180143bd8     libucrt:lcidtoname_downlevel.obj
 0002:00009be0       ??_C@_15IJBHMCFL@?$AAa?$AAz@ 0000000180143be0     libucrt:lcidtoname_downlevel.obj
 0002:00009be8       ??_C@_15EKOFJABL@?$AAe?$AAu@ 0000000180143be8     libucrt:lcidtoname_downlevel.obj
 0002:00009bf0       ??_C@_15BGHADCNK@?$AAm?$AAk@ 0000000180143bf0     libucrt:lcidtoname_downlevel.obj
 0002:00009bf8       ??_C@_15JDNICKHM@?$AAa?$AAf@ 0000000180143bf8     libucrt:lcidtoname_downlevel.obj
 0002:00009c00       ??_C@_15KPJEDBKD@?$AAk?$AAa@ 0000000180143c00     libucrt:lcidtoname_downlevel.obj
 0002:00009c08       ??_C@_15PDNFFFEO@?$AAf?$AAo@ 0000000180143c08     libucrt:lcidtoname_downlevel.obj
 0002:00009c10       ??_C@_15OMLEGLOC@?$AAh?$AAi@ 0000000180143c10     libucrt:lcidtoname_downlevel.obj
 0002:00009c18       ??_C@_15IDNNENKK@?$AAm?$AAs@ 0000000180143c18     libucrt:lcidtoname_downlevel.obj
 0002:00009c20       ??_C@_15MACJNBMH@?$AAk?$AAk@ 0000000180143c20     libucrt:lcidtoname_downlevel.obj
 0002:00009c28       ??_C@_15DKDJEOND@?$AAk?$AAy@ 0000000180143c28     libucrt:lcidtoname_downlevel.obj
 0002:00009c30       ??_C@_15DFGDLJBG@?$AAs?$AAw@ 0000000180143c30     libucrt:lcidtoname_downlevel.obj
 0002:00009c38       ??_C@_15BBFAICNG@?$AAu?$AAz@ 0000000180143c38     libucrt:lcidtoname_downlevel.obj
 0002:00009c40       ??_C@_15DKNDCGEA@?$AAt?$AAt@ 0000000180143c40     libucrt:lcidtoname_downlevel.obj
 0002:00009c48       ??_C@_15MGIFMDPL@?$AAp?$AAa@ 0000000180143c48     libucrt:lcidtoname_downlevel.obj
 0002:00009c50       ??_C@_15HCNDBBA@?$AAg?$AAu@ 0000000180143c50     libucrt:lcidtoname_downlevel.obj
 0002:00009c58       ??_C@_15FNBEIBON@?$AAt?$AAa@ 0000000180143c58     libucrt:lcidtoname_downlevel.obj
 0002:00009c60       ??_C@_15NCHGBGLK@?$AAt?$AAe@ 0000000180143c60     libucrt:lcidtoname_downlevel.obj
 0002:00009c68       ??_C@_15PHPHCBPF@?$AAk?$AAn@ 0000000180143c68     libucrt:lcidtoname_downlevel.obj
 0002:00009c70       ??_C@_15DLGBCKMP@?$AAm?$AAr@ 0000000180143c70     libucrt:lcidtoname_downlevel.obj
 0002:00009c78       ??_C@_15EABBLBFF@?$AAs?$AAa@ 0000000180143c78     libucrt:lcidtoname_downlevel.obj
 0002:00009c80       ??_C@_15CBKOMCOI@?$AAm?$AAn@ 0000000180143c80     libucrt:lcidtoname_downlevel.obj
 0002:00009c88       ??_C@_15CKDMCJAF@?$AAg?$AAl@ 0000000180143c88     libucrt:lcidtoname_downlevel.obj
 0002:00009c90       ??_C@_17CNJFBPG@?$AAk?$AAo?$AAk@ 0000000180143c90     libucrt:lcidtoname_downlevel.obj
 0002:00009c98       ??_C@_17FFBJICPL@?$AAs?$AAy?$AAr@ 0000000180143c98     libucrt:lcidtoname_downlevel.obj
 0002:00009ca0       ??_C@_17KPNDCPAF@?$AAd?$AAi?$AAv@ 0000000180143ca0     libucrt:lcidtoname_downlevel.obj
 0002:00009ca8       ??_C@_11LOCGONAA@@         0000000180143ca8     libucrt:lcidtoname_downlevel.obj
 0002:00009cb0       ??_C@_1M@OKAHONE@?$AAa?$AAr?$AA?9?$AAS?$AAA@ 0000000180143cb0     libucrt:lcidtoname_downlevel.obj
 0002:00009cc0       ??_C@_1M@FFFIGIGK@?$AAb?$AAg?$AA?9?$AAB?$AAG@ 0000000180143cc0     libucrt:lcidtoname_downlevel.obj
 0002:00009cd0       ??_C@_1M@BJNKEDC@?$AAc?$AAa?$AA?9?$AAE?$AAS@ 0000000180143cd0     libucrt:lcidtoname_downlevel.obj
 0002:00009ce0       ??_C@_1M@IJJHFJHA@?$AAc?$AAs?$AA?9?$AAC?$AAZ@ 0000000180143ce0     libucrt:lcidtoname_downlevel.obj
 0002:00009cf0       ??_C@_1M@CLPEOBGI@?$AAd?$AAa?$AA?9?$AAD?$AAK@ 0000000180143cf0     libucrt:lcidtoname_downlevel.obj
 0002:00009d00       ??_C@_1M@MCMADGCB@?$AAd?$AAe?$AA?9?$AAD?$AAE@ 0000000180143d00     libucrt:lcidtoname_downlevel.obj
 0002:00009d10       ??_C@_1M@OOCKEMAM@?$AAe?$AAl?$AA?9?$AAG?$AAR@ 0000000180143d10     libucrt:lcidtoname_downlevel.obj
 0002:00009d20       ??_C@_1M@DDNJFGID@?$AAf?$AAi?$AA?9?$AAF?$AAI@ 0000000180143d20     libucrt:lcidtoname_downlevel.obj
 0002:00009d30       ??_C@_1M@GLIPPMAC@?$AAf?$AAr?$AA?9?$AAF?$AAR@ 0000000180143d30     libucrt:lcidtoname_downlevel.obj
 0002:00009d40       ??_C@_1M@GFMCHPE@?$AAh?$AAe?$AA?9?$AAI?$AAL@ 0000000180143d40     libucrt:lcidtoname_downlevel.obj
 0002:00009d50       ??_C@_1M@MHLPGNKM@?$AAh?$AAu?$AA?9?$AAH?$AAU@ 0000000180143d50     libucrt:lcidtoname_downlevel.obj
 0002:00009d60       ??_C@_1M@LPDDNNPN@?$AAi?$AAs?$AA?9?$AAI?$AAS@ 0000000180143d60     libucrt:lcidtoname_downlevel.obj
 0002:00009d70       ??_C@_1M@MADIPODN@?$AAi?$AAt?$AA?9?$AAI?$AAT@ 0000000180143d70     libucrt:lcidtoname_downlevel.obj
 0002:00009d80       ??_C@_1M@IHBJJGG@?$AAn?$AAl?$AA?9?$AAN?$AAL@ 0000000180143d80     libucrt:lcidtoname_downlevel.obj
 0002:00009d90       ??_C@_1M@EANAGDL@?$AAn?$AAb?$AA?9?$AAN?$AAO@ 0000000180143d90     libucrt:lcidtoname_downlevel.obj
 0002:00009da0       ??_C@_1M@NEIEMEGP@?$AAp?$AAl?$AA?9?$AAP?$AAL@ 0000000180143da0     libucrt:lcidtoname_downlevel.obj
 0002:00009db0       ??_C@_1M@BOCFIGEP@?$AAp?$AAt?$AA?9?$AAB?$AAR@ 0000000180143db0     libucrt:lcidtoname_downlevel.obj
 0002:00009dc0       ??_C@_1M@IMPFOPBG@?$AAr?$AAo?$AA?9?$AAR?$AAO@ 0000000180143dc0     libucrt:lcidtoname_downlevel.obj
 0002:00009dd0       ??_C@_1M@IDNNEJMM@?$AAr?$AAu?$AA?9?$AAR?$AAU@ 0000000180143dd0     libucrt:lcidtoname_downlevel.obj
 0002:00009de0       ??_C@_1M@LILEEOGM@?$AAh?$AAr?$AA?9?$AAH?$AAR@ 0000000180143de0     libucrt:lcidtoname_downlevel.obj
 0002:00009df0       ??_C@_1M@FKIFEHPB@?$AAs?$AAk?$AA?9?$AAS?$AAK@ 0000000180143df0     libucrt:lcidtoname_downlevel.obj
 0002:00009e00       ??_C@_1M@LJMAMNPJ@?$AAs?$AAq?$AA?9?$AAA?$AAL@ 0000000180143e00     libucrt:lcidtoname_downlevel.obj
 0002:00009e10       ??_C@_1M@GIAKDKJK@?$AAs?$AAv?$AA?9?$AAS?$AAE@ 0000000180143e10     libucrt:lcidtoname_downlevel.obj
 0002:00009e20       ??_C@_1M@MKJKIKCL@?$AAt?$AAh?$AA?9?$AAT?$AAH@ 0000000180143e20     libucrt:lcidtoname_downlevel.obj
 0002:00009e30       ??_C@_1M@MFLCCMPB@?$AAt?$AAr?$AA?9?$AAT?$AAR@ 0000000180143e30     libucrt:lcidtoname_downlevel.obj
 0002:00009e40       ??_C@_1M@OIJHDKJN@?$AAu?$AAr?$AA?9?$AAP?$AAK@ 0000000180143e40     libucrt:lcidtoname_downlevel.obj
 0002:00009e50       ??_C@_1M@LHIPCIEK@?$AAi?$AAd?$AA?9?$AAI?$AAD@ 0000000180143e50     libucrt:lcidtoname_downlevel.obj
 0002:00009e60       ??_C@_1M@MFMOBGI@?$AAu?$AAk?$AA?9?$AAU?$AAA@ 0000000180143e60     libucrt:lcidtoname_downlevel.obj
 0002:00009e70       ??_C@_1M@OBGLJIPL@?$AAb?$AAe?$AA?9?$AAB?$AAY@ 0000000180143e70     libucrt:lcidtoname_downlevel.obj
 0002:00009e80       ??_C@_1M@BCFAJEAD@?$AAs?$AAl?$AA?9?$AAS?$AAI@ 0000000180143e80     libucrt:lcidtoname_downlevel.obj
 0002:00009e90       ??_C@_1M@FKFFEDDN@?$AAe?$AAt?$AA?9?$AAE?$AAE@ 0000000180143e90     libucrt:lcidtoname_downlevel.obj
 0002:00009ea0       ??_C@_1M@KGKKAACI@?$AAl?$AAv?$AA?9?$AAL?$AAV@ 0000000180143ea0     libucrt:lcidtoname_downlevel.obj
 0002:00009eb0       ??_C@_1M@IFGBIJO@?$AAl?$AAt?$AA?9?$AAL?$AAT@ 0000000180143eb0     libucrt:lcidtoname_downlevel.obj
 0002:00009ec0       ??_C@_1M@FGEAHEDM@?$AAf?$AAa?$AA?9?$AAI?$AAR@ 0000000180143ec0     libucrt:lcidtoname_downlevel.obj
 0002:00009ed0       ??_C@_1M@KBMAIBFN@?$AAv?$AAi?$AA?9?$AAV?$AAN@ 0000000180143ed0     libucrt:lcidtoname_downlevel.obj
 0002:00009ee0       ??_C@_1M@GPCBKDJK@?$AAh?$AAy?$AA?9?$AAA?$AAM@ 0000000180143ee0     libucrt:lcidtoname_downlevel.obj
 0002:00009ef0       ??_C@_1BG@BECMDDJB@?$AAa?$AAz?$AA?9?$AAA?$AAZ?$AA?9?$AAL?$AAa?$AAt?$AAn@ 0000000180143ef0     libucrt:lcidtoname_downlevel.obj
 0002:00009f08       ??_C@_1M@MAOFCAEA@?$AAe?$AAu?$AA?9?$AAE?$AAS@ 0000000180143f08     libucrt:lcidtoname_downlevel.obj
 0002:00009f18       ??_C@_1M@IGHABKPI@?$AAm?$AAk?$AA?9?$AAM?$AAK@ 0000000180143f18     libucrt:lcidtoname_downlevel.obj
 0002:00009f28       ??_C@_1M@IAIGNEJG@?$AAt?$AAn?$AA?9?$AAZ?$AAA@ 0000000180143f28     libucrt:lcidtoname_downlevel.obj
 0002:00009f38       ??_C@_1M@IIJCOJFA@?$AAx?$AAh?$AA?9?$AAZ?$AAA@ 0000000180143f38     libucrt:lcidtoname_downlevel.obj
 0002:00009f48       ??_C@_1M@LGPJHNJH@?$AAz?$AAu?$AA?9?$AAZ?$AAA@ 0000000180143f48     libucrt:lcidtoname_downlevel.obj
 0002:00009f58       ??_C@_1M@HOKAOIO@?$AAa?$AAf?$AA?9?$AAZ?$AAA@ 0000000180143f58     libucrt:lcidtoname_downlevel.obj
 0002:00009f68       ??_C@_1M@DPCLHLIE@?$AAk?$AAa?$AA?9?$AAG?$AAE@ 0000000180143f68     libucrt:lcidtoname_downlevel.obj
 0002:00009f78       ??_C@_1M@BLKMHJBI@?$AAf?$AAo?$AA?9?$AAF?$AAO@ 0000000180143f78     libucrt:lcidtoname_downlevel.obj
 0002:00009f88       ??_C@_1M@LGGJAPPB@?$AAh?$AAi?$AA?9?$AAI?$AAN@ 0000000180143f88     libucrt:lcidtoname_downlevel.obj
 0002:00009f98       ??_C@_1M@FIKPIHFE@?$AAm?$AAt?$AA?9?$AAM?$AAT@ 0000000180143f98     libucrt:lcidtoname_downlevel.obj
 0002:00009fa8       ??_C@_1M@HEGGPBFA@?$AAs?$AAe?$AA?9?$AAN?$AAO@ 0000000180143fa8     libucrt:lcidtoname_downlevel.obj
 0002:00009fb8       ??_C@_1M@EIBJEEPA@?$AAm?$AAs?$AA?9?$AAM?$AAY@ 0000000180143fb8     libucrt:lcidtoname_downlevel.obj
 0002:00009fc8       ??_C@_1M@FHLBGMPP@?$AAk?$AAk?$AA?9?$AAK?$AAZ@ 0000000180143fc8     libucrt:lcidtoname_downlevel.obj
 0002:00009fd8       ??_C@_1M@NGJJLCGI@?$AAk?$AAy?$AA?9?$AAK?$AAG@ 0000000180143fd8     libucrt:lcidtoname_downlevel.obj
 0002:00009fe8       ??_C@_1M@GIENNBFC@?$AAs?$AAw?$AA?9?$AAK?$AAE@ 0000000180143fe8     libucrt:lcidtoname_downlevel.obj
 0002:00009ff8       ??_C@_1BG@NDGMJIMJ@?$AAu?$AAz?$AA?9?$AAU?$AAZ?$AA?9?$AAL?$AAa?$AAt?$AAn@ 0000000180143ff8     libucrt:lcidtoname_downlevel.obj
 0002:0000a010       ??_C@_1M@IDCCIHBC@?$AAt?$AAt?$AA?9?$AAR?$AAU@ 0000000180144010     libucrt:lcidtoname_downlevel.obj
 0002:0000a020       ??_C@_1M@LOICPMOJ@?$AAb?$AAn?$AA?9?$AAI?$AAN@ 0000000180144020     libucrt:lcidtoname_downlevel.obj
 0002:0000a030       ??_C@_1M@KPKKNEAH@?$AAp?$AAa?$AA?9?$AAI?$AAN@ 0000000180144030     libucrt:lcidtoname_downlevel.obj
 0002:0000a040       ??_C@_1M@PJGPPBOG@?$AAg?$AAu?$AA?9?$AAI?$AAN@ 0000000180144040     libucrt:lcidtoname_downlevel.obj
 0002:0000a050       ??_C@_1M@KMKMOPHI@?$AAt?$AAa?$AA?9?$AAI?$AAN@ 0000000180144050     libucrt:lcidtoname_downlevel.obj
 0002:0000a060       ??_C@_1M@KFEHEPAC@?$AAt?$AAe?$AA?9?$AAI?$AAN@ 0000000180144060     libucrt:lcidtoname_downlevel.obj
 0002:0000a070       ??_C@_1M@CDCLMGHI@?$AAk?$AAn?$AA?9?$AAI?$AAN@ 0000000180144070     libucrt:lcidtoname_downlevel.obj
 0002:0000a080       ??_C@_1M@MIODLDKF@?$AAm?$AAl?$AA?9?$AAI?$AAN@ 0000000180144080     libucrt:lcidtoname_downlevel.obj
 0002:0000a090       ??_C@_1M@PBIEACPO@?$AAm?$AAr?$AA?9?$AAI?$AAN@ 0000000180144090     libucrt:lcidtoname_downlevel.obj
 0002:0000a0a0       ??_C@_1M@NIDEAGPH@?$AAs?$AAa?$AA?9?$AAI?$AAN@ 00000001801440a0     libucrt:lcidtoname_downlevel.obj
 0002:0000a0b0       ??_C@_1M@FHIHCBIO@?$AAm?$AAn?$AA?9?$AAM?$AAN@ 00000001801440b0     libucrt:lcidtoname_downlevel.obj
 0002:0000a0c0       ??_C@_1M@JAIJPENP@?$AAc?$AAy?$AA?9?$AAG?$AAB@ 00000001801440c0     libucrt:lcidtoname_downlevel.obj
 0002:0000a0d0       ??_C@_1M@PHGFBEPN@?$AAg?$AAl?$AA?9?$AAE?$AAS@ 00000001801440d0     libucrt:lcidtoname_downlevel.obj
 0002:0000a0e0       ??_C@_1O@KPIPDNCP@?$AAk?$AAo?$AAk?$AA?9?$AAI?$AAN@ 00000001801440e0     libucrt:lcidtoname_downlevel.obj
 0002:0000a0f0       ??_C@_1O@KNHJLDJA@?$AAs?$AAy?$AAr?$AA?9?$AAS?$AAY@ 00000001801440f0     libucrt:lcidtoname_downlevel.obj
 0002:0000a100       ??_C@_1O@MKEKBLAH@?$AAd?$AAi?$AAv?$AA?9?$AAM?$AAV@ 0000000180144100     libucrt:lcidtoname_downlevel.obj
 0002:0000a110       ??_C@_1O@OHDCKDDF@?$AAq?$AAu?$AAz?$AA?9?$AAB?$AAO@ 0000000180144110     libucrt:lcidtoname_downlevel.obj
 0002:0000a120       ??_C@_1M@LEPJNLFD@?$AAn?$AAs?$AA?9?$AAZ?$AAA@ 0000000180144120     libucrt:lcidtoname_downlevel.obj
 0002:0000a130       ??_C@_1M@OMLEIIJB@?$AAm?$AAi?$AA?9?$AAN?$AAZ@ 0000000180144130     libucrt:lcidtoname_downlevel.obj
 0002:0000a140       ??_C@_1M@PMPEAILG@?$AAa?$AAr?$AA?9?$AAI?$AAQ@ 0000000180144140     libucrt:lcidtoname_downlevel.obj
 0002:0000a150       ??_C@_1M@CNKPNOEE@?$AAd?$AAe?$AA?9?$AAC?$AAH@ 0000000180144150     libucrt:lcidtoname_downlevel.obj
 0002:0000a160       ??_C@_1M@LKMGMLKO@?$AAe?$AAn?$AA?9?$AAG?$AAB@ 0000000180144160     libucrt:lcidtoname_downlevel.obj
 0002:0000a170       ??_C@_1M@PGKJFFGL@?$AAe?$AAs?$AA?9?$AAM?$AAX@ 0000000180144170     libucrt:lcidtoname_downlevel.obj
 0002:0000a180       ??_C@_1M@DNNANBDC@?$AAf?$AAr?$AA?9?$AAB?$AAE@ 0000000180144180     libucrt:lcidtoname_downlevel.obj
 0002:0000a190       ??_C@_1M@HLGMDFHM@?$AAi?$AAt?$AA?9?$AAC?$AAH@ 0000000180144190     libucrt:lcidtoname_downlevel.obj
 0002:0000a1a0       ??_C@_1M@CLLBGJH@?$AAn?$AAl?$AA?9?$AAB?$AAE@ 00000001801441a0     libucrt:lcidtoname_downlevel.obj
 0002:0000a1b0       ??_C@_1M@BODBOGLF@?$AAn?$AAn?$AA?9?$AAN?$AAO@ 00000001801441b0     libucrt:lcidtoname_downlevel.obj
 0002:0000a1c0       ??_C@_1M@HFFAHKAD@?$AAp?$AAt?$AA?9?$AAP?$AAT@ 00000001801441c0     libucrt:lcidtoname_downlevel.obj
 0002:0000a1d0       ??_C@_1BG@LNOAKHIE@?$AAs?$AAr?$AA?9?$AAS?$AAP?$AA?9?$AAL?$AAa?$AAt?$AAn@ 00000001801441d0     libucrt:lcidtoname_downlevel.obj
 0002:0000a1e8       ??_C@_1M@HBMHBGAK@?$AAs?$AAv?$AA?9?$AAF?$AAI@ 00000001801441e8     libucrt:lcidtoname_downlevel.obj
 0002:0000a1f8       ??_C@_1BG@DGCJGJBE@?$AAa?$AAz?$AA?9?$AAA?$AAZ?$AA?9?$AAC?$AAy?$AAr?$AAl@ 00000001801441f8     libucrt:lcidtoname_downlevel.obj
 0002:0000a210       ??_C@_1M@KEJDAAHB@?$AAs?$AAe?$AA?9?$AAS?$AAE@ 0000000180144210     libucrt:lcidtoname_downlevel.obj
 0002:0000a220       ??_C@_1M@HEIBJJAD@?$AAm?$AAs?$AA?9?$AAB?$AAN@ 0000000180144220     libucrt:lcidtoname_downlevel.obj
 0002:0000a230       ??_C@_1BG@PBGJMCEM@?$AAu?$AAz?$AA?9?$AAU?$AAZ?$AA?9?$AAC?$AAy?$AAr?$AAl@ 0000000180144230     libucrt:lcidtoname_downlevel.obj
 0002:0000a248       ??_C@_1O@LAOBCMDF@?$AAq?$AAu?$AAz?$AA?9?$AAE?$AAC@ 0000000180144248     libucrt:lcidtoname_downlevel.obj
 0002:0000a258       ??_C@_1M@POEEMAIO@?$AAa?$AAr?$AA?9?$AAE?$AAG@ 0000000180144258     libucrt:lcidtoname_downlevel.obj
 0002:0000a268       ??_C@_1M@EFAKDEDL@?$AAz?$AAh?$AA?9?$AAH?$AAK@ 0000000180144268     libucrt:lcidtoname_downlevel.obj
 0002:0000a278       ??_C@_1M@HKKIJHGI@?$AAd?$AAe?$AA?9?$AAA?$AAT@ 0000000180144278     libucrt:lcidtoname_downlevel.obj
 0002:0000a288       ??_C@_1M@KBFBEHJF@?$AAe?$AAn?$AA?9?$AAA?$AAU@ 0000000180144288     libucrt:lcidtoname_downlevel.obj
 0002:0000a298       ??_C@_1M@MNPLFAAH@?$AAe?$AAs?$AA?9?$AAE?$AAS@ 0000000180144298     libucrt:lcidtoname_downlevel.obj
 0002:0000a2a8       ??_C@_1M@HJOOJFMA@?$AAf?$AAr?$AA?9?$AAC?$AAA@ 00000001801442a8     libucrt:lcidtoname_downlevel.obj
 0002:0000a2b8       ??_C@_1BG@JPOFPNAB@?$AAs?$AAr?$AA?9?$AAS?$AAP?$AA?9?$AAC?$AAy?$AAr?$AAl@ 00000001801442b8     libucrt:lcidtoname_downlevel.obj
 0002:0000a2d0       ??_C@_1M@LNFOCMOB@?$AAs?$AAe?$AA?9?$AAF?$AAI@ 00000001801442d0     libucrt:lcidtoname_downlevel.obj
 0002:0000a2e0       ??_C@_1O@MGJBOAMB@?$AAq?$AAu?$AAz?$AA?9?$AAP?$AAE@ 00000001801442e0     libucrt:lcidtoname_downlevel.obj
 0002:0000a2f0       ??_C@_1M@GJINLBOK@?$AAa?$AAr?$AA?9?$AAL?$AAY@ 00000001801442f0     libucrt:lcidtoname_downlevel.obj
 0002:0000a300       ??_C@_1M@GGMNHJNL@?$AAz?$AAh?$AA?9?$AAS?$AAG@ 0000000180144300     libucrt:lcidtoname_downlevel.obj
 0002:0000a310       ??_C@_1M@HOIKODND@?$AAd?$AAe?$AA?9?$AAL?$AAU@ 0000000180144310     libucrt:lcidtoname_downlevel.obj
 0002:0000a320       ??_C@_1M@DDOCCGFG@?$AAe?$AAn?$AA?9?$AAC?$AAA@ 0000000180144320     libucrt:lcidtoname_downlevel.obj
 0002:0000a330       ??_C@_1M@BNOEMJLF@?$AAe?$AAs?$AA?9?$AAG?$AAT@ 0000000180144330     libucrt:lcidtoname_downlevel.obj
 0002:0000a340       ??_C@_1M@EOGNKEK@?$AAf?$AAr?$AA?9?$AAC?$AAH@ 0000000180144340     libucrt:lcidtoname_downlevel.obj
 0002:0000a350       ??_C@_1M@FLIDJFHL@?$AAh?$AAr?$AA?9?$AAB?$AAA@ 0000000180144350     libucrt:lcidtoname_downlevel.obj
 0002:0000a360       ??_C@_1O@FMCELNAJ@?$AAs?$AAm?$AAj?$AA?9?$AAN?$AAO@ 0000000180144360     libucrt:lcidtoname_downlevel.obj
 0002:0000a370       ??_C@_1M@JHGLJMGJ@?$AAa?$AAr?$AA?9?$AAD?$AAZ@ 0000000180144370     libucrt:lcidtoname_downlevel.obj
 0002:0000a380       ??_C@_1M@JKKFDCNP@?$AAz?$AAh?$AA?9?$AAM?$AAO@ 0000000180144380     libucrt:lcidtoname_downlevel.obj
 0002:0000a390       ??_C@_1M@GEEFALPE@?$AAd?$AAe?$AA?9?$AAL?$AAI@ 0000000180144390     libucrt:lcidtoname_downlevel.obj
 0002:0000a3a0       ??_C@_1M@IGEOFBG@?$AAe?$AAn?$AA?9?$AAN?$AAZ@ 00000001801443a0     libucrt:lcidtoname_downlevel.obj
 0002:0000a3b0       ??_C@_1M@KDBONEHP@?$AAe?$AAs?$AA?9?$AAC?$AAR@ 00000001801443b0     libucrt:lcidtoname_downlevel.obj
 0002:0000a3c0       ??_C@_1M@FHMDOHNN@?$AAf?$AAr?$AA?9?$AAL?$AAU@ 00000001801443c0     libucrt:lcidtoname_downlevel.obj
 0002:0000a3d0       ??_C@_1BG@NFKKMAFG@?$AAb?$AAs?$AA?9?$AAB?$AAA?$AA?9?$AAL?$AAa?$AAt?$AAn@ 00000001801443d0     libucrt:lcidtoname_downlevel.obj
 0002:0000a3e8       ??_C@_1O@IMNBEMCI@?$AAs?$AAm?$AAj?$AA?9?$AAS?$AAE@ 00000001801443e8     libucrt:lcidtoname_downlevel.obj
 0002:0000a3f8       ??_C@_1M@DHHMBNDP@?$AAa?$AAr?$AA?9?$AAM?$AAA@ 00000001801443f8     libucrt:lcidtoname_downlevel.obj
 0002:0000a408       ??_C@_1M@BNBLJCGH@?$AAe?$AAn?$AA?9?$AAI?$AAE@ 0000000180144408     libucrt:lcidtoname_downlevel.obj
 0002:0000a418       ??_C@_1M@GEPAFMDL@?$AAe?$AAs?$AA?9?$AAP?$AAA@ 0000000180144418     libucrt:lcidtoname_downlevel.obj
 0002:0000a428       ??_C@_1M@OJONDMDL@?$AAf?$AAr?$AA?9?$AAM?$AAC@ 0000000180144428     libucrt:lcidtoname_downlevel.obj
 0002:0000a438       ??_C@_1BG@OBCNFJB@?$AAs?$AAr?$AA?9?$AAB?$AAA?$AA?9?$AAL?$AAa?$AAt?$AAn@ 0000000180144438     libucrt:lcidtoname_downlevel.obj
 0002:0000a450       ??_C@_1O@KEMEEGPO@?$AAs?$AAm?$AAa?$AA?9?$AAN?$AAO@ 0000000180144450     libucrt:lcidtoname_downlevel.obj
 0002:0000a460       ??_C@_1M@ELMGFODK@?$AAa?$AAr?$AA?9?$AAT?$AAN@ 0000000180144460     libucrt:lcidtoname_downlevel.obj
 0002:0000a470       ??_C@_1M@BHDLHFAF@?$AAe?$AAn?$AA?9?$AAZ?$AAA@ 0000000180144470     libucrt:lcidtoname_downlevel.obj
 0002:0000a480       ??_C@_1M@BMGIGLIF@?$AAe?$AAs?$AA?9?$AAD?$AAO@ 0000000180144480     libucrt:lcidtoname_downlevel.obj
 0002:0000a490       ??_C@_1BG@CMBHIPBE@?$AAs?$AAr?$AA?9?$AAB?$AAA?$AA?9?$AAC?$AAy?$AAr?$AAl@ 0000000180144490     libucrt:lcidtoname_downlevel.obj
 0002:0000a4a8       ??_C@_1O@HEDBLHNP@?$AAs?$AAm?$AAa?$AA?9?$AAS?$AAE@ 00000001801444a8     libucrt:lcidtoname_downlevel.obj
 0002:0000a4b8       ??_C@_1M@DAGCADIM@?$AAa?$AAr?$AA?9?$AAO?$AAM@ 00000001801444b8     libucrt:lcidtoname_downlevel.obj
 0002:0000a4c8       ??_C@_1M@FODLMICG@?$AAe?$AAn?$AA?9?$AAJ?$AAM@ 00000001801444c8     libucrt:lcidtoname_downlevel.obj
 0002:0000a4d8       ??_C@_1M@DNMLCIHB@?$AAe?$AAs?$AA?9?$AAV?$AAE@ 00000001801444d8     libucrt:lcidtoname_downlevel.obj
 0002:0000a4e8       ??_C@_1O@EOKHMKJK@?$AAs?$AAm?$AAs?$AA?9?$AAF?$AAI@ 00000001801444e8     libucrt:lcidtoname_downlevel.obj
 0002:0000a4f8       ??_C@_1M@CAFJMKOF@?$AAa?$AAr?$AA?9?$AAY?$AAE@ 00000001801444f8     libucrt:lcidtoname_downlevel.obj
 0002:0000a508       ??_C@_1M@CBFHIJLI@?$AAe?$AAn?$AA?9?$AAC?$AAB@ 0000000180144508     libucrt:lcidtoname_downlevel.obj
 0002:0000a518       ??_C@_1M@BGNFLDN@?$AAe?$AAs?$AA?9?$AAC?$AAO@ 0000000180144518     libucrt:lcidtoname_downlevel.obj
 0002:0000a528       ??_C@_1O@JMPHMAMC@?$AAs?$AAm?$AAn?$AA?9?$AAF?$AAI@ 0000000180144528     libucrt:lcidtoname_downlevel.obj
 0002:0000a538       ??_C@_1M@JLANABKE@?$AAa?$AAr?$AA?9?$AAS?$AAY@ 0000000180144538     libucrt:lcidtoname_downlevel.obj
 0002:0000a548       ??_C@_1M@HPKGCFGN@?$AAe?$AAn?$AA?9?$AAB?$AAZ@ 0000000180144548     libucrt:lcidtoname_downlevel.obj
 0002:0000a558       ??_C@_1M@OLJCMLGM@?$AAe?$AAs?$AA?9?$AAP?$AAE@ 0000000180144558     libucrt:lcidtoname_downlevel.obj
 0002:0000a568       ??_C@_1M@MKKGFKLE@?$AAa?$AAr?$AA?9?$AAJ?$AAO@ 0000000180144568     libucrt:lcidtoname_downlevel.obj
 0002:0000a578       ??_C@_1M@EKPGLDNI@?$AAe?$AAn?$AA?9?$AAT?$AAT@ 0000000180144578     libucrt:lcidtoname_downlevel.obj
 0002:0000a588       ??_C@_1M@OONGHFHE@?$AAe?$AAs?$AA?9?$AAA?$AAR@ 0000000180144588     libucrt:lcidtoname_downlevel.obj
 0002:0000a598       ??_C@_1M@OOJFGBHE@?$AAa?$AAr?$AA?9?$AAL?$AAB@ 0000000180144598     libucrt:lcidtoname_downlevel.obj
 0002:0000a5a8       ??_C@_1M@GCEJHNEG@?$AAe?$AAn?$AA?9?$AAZ?$AAW@ 00000001801445a8     libucrt:lcidtoname_downlevel.obj
 0002:0000a5b8       ??_C@_1M@JNOCAHJI@?$AAe?$AAs?$AA?9?$AAE?$AAC@ 00000001801445b8     libucrt:lcidtoname_downlevel.obj
 0002:0000a5c8       ??_C@_1M@JEFHPGGB@?$AAa?$AAr?$AA?9?$AAK?$AAW@ 00000001801445c8     libucrt:lcidtoname_downlevel.obj
 0002:0000a5d8       ??_C@_1M@MLKIBJOJ@?$AAe?$AAn?$AA?9?$AAP?$AAH@ 00000001801445d8     libucrt:lcidtoname_downlevel.obj
 0002:0000a5e8       ??_C@_1M@BDNIPEND@?$AAe?$AAs?$AA?9?$AAC?$AAL@ 00000001801445e8     libucrt:lcidtoname_downlevel.obj
 0002:0000a5f8       ??_C@_1M@MPNMEKBD@?$AAa?$AAr?$AA?9?$AAA?$AAE@ 00000001801445f8     libucrt:lcidtoname_downlevel.obj
 0002:0000a608       ??_C@_1M@KBJALCPI@?$AAe?$AAs?$AA?9?$AAU?$AAY@ 0000000180144608     libucrt:lcidtoname_downlevel.obj
 0002:0000a618       ??_C@_1M@LLCCOAGA@?$AAa?$AAr?$AA?9?$AAB?$AAH@ 0000000180144618     libucrt:lcidtoname_downlevel.obj
 0002:0000a628       ??_C@_1M@PBFNCDEL@?$AAe?$AAs?$AA?9?$AAP?$AAY@ 0000000180144628     libucrt:lcidtoname_downlevel.obj
 0002:0000a638       ??_C@_1M@EDGINPNP@?$AAa?$AAr?$AA?9?$AAQ?$AAA@ 0000000180144638     libucrt:lcidtoname_downlevel.obj
 0002:0000a648       ??_C@_1M@MKDBIIJI@?$AAe?$AAs?$AA?9?$AAB?$AAO@ 0000000180144648     libucrt:lcidtoname_downlevel.obj
 0002:0000a658       ??_C@_1M@CPKKEBLD@?$AAe?$AAs?$AA?9?$AAS?$AAV@ 0000000180144658     libucrt:lcidtoname_downlevel.obj
 0002:0000a668       ??_C@_1M@NDBGMMJL@?$AAe?$AAs?$AA?9?$AAH?$AAN@ 0000000180144668     libucrt:lcidtoname_downlevel.obj
 0002:0000a678       ??_C@_1M@JIJIBHDP@?$AAe?$AAs?$AA?9?$AAN?$AAI@ 0000000180144678     libucrt:lcidtoname_downlevel.obj
 0002:0000a688       ??_C@_1M@CGFMKEEK@?$AAe?$AAs?$AA?9?$AAP?$AAR@ 0000000180144688     libucrt:lcidtoname_downlevel.obj
 0002:0000a698       ??_C@_1O@ICJHKIIK@?$AAz?$AAh?$AA?9?$AAC?$AAH?$AAT@ 0000000180144698     libucrt:lcidtoname_downlevel.obj
 0002:0000a6a8       ??_C@_15CLNEJCE@?$AAs?$AAr@ 00000001801446a8     libucrt:lcidtoname_downlevel.obj
 0002:0000b4f0       ??_C@_1M@KAHEKEIG@?$AAa?$AAf?$AA?9?$AAz?$AAa@ 00000001801454f0     libucrt:lcidtoname_downlevel.obj
 0002:0000b500       ??_C@_1M@GIECOABL@?$AAa?$AAr?$AA?9?$AAa?$AAe@ 0000000180145500     libucrt:lcidtoname_downlevel.obj
 0002:0000b510       ??_C@_1M@BMLMEKGI@?$AAa?$AAr?$AA?9?$AAb?$AAh@ 0000000180145510     libucrt:lcidtoname_downlevel.obj
 0002:0000b520       ??_C@_1M@DAPFDGGB@?$AAa?$AAr?$AA?9?$AAd?$AAz@ 0000000180145520     libucrt:lcidtoname_downlevel.obj
 0002:0000b530       ??_C@_1M@FJNKGKIG@?$AAa?$AAr?$AA?9?$AAe?$AAg@ 0000000180145530     libucrt:lcidtoname_downlevel.obj
 0002:0000b540       ??_C@_1M@FLGKKCLO@?$AAa?$AAr?$AA?9?$AAi?$AAq@ 0000000180145540     libucrt:lcidtoname_downlevel.obj
 0002:0000b550       ??_C@_1M@GNDIPALM@?$AAa?$AAr?$AA?9?$AAj?$AAo@ 0000000180145550     libucrt:lcidtoname_downlevel.obj
 0002:0000b560       ??_C@_1M@DDMJFMGJ@?$AAa?$AAr?$AA?9?$AAk?$AAw@ 0000000180145560     libucrt:lcidtoname_downlevel.obj
 0002:0000b570       ??_C@_1M@EJALMLHM@?$AAa?$AAr?$AA?9?$AAl?$AAb@ 0000000180145570     libucrt:lcidtoname_downlevel.obj
 0002:0000b580       ??_C@_1M@MOBDBLOC@?$AAa?$AAr?$AA?9?$AAl?$AAy@ 0000000180145580     libucrt:lcidtoname_downlevel.obj
 0002:0000b590       ??_C@_1M@JAOCLHDH@?$AAa?$AAr?$AA?9?$AAm?$AAa@ 0000000180145590     libucrt:lcidtoname_downlevel.obj
 0002:0000b5a0       ??_C@_1M@JHPMKJIE@?$AAa?$AAr?$AA?9?$AAo?$AAm@ 00000001801455a0     libucrt:lcidtoname_downlevel.obj
 0002:0000b5b0       ??_C@_1M@OEPGHFNH@?$AAa?$AAr?$AA?9?$AAq?$AAa@ 00000001801455b0     libucrt:lcidtoname_downlevel.obj
 0002:0000b5c0       ??_C@_1M@KJDONENM@?$AAa?$AAr?$AA?9?$AAs?$AAa@ 00000001801455c0     libucrt:lcidtoname_downlevel.obj
 0002:0000b5d0       ??_C@_1M@DMJDKLKM@?$AAa?$AAr?$AA?9?$AAs?$AAy@ 00000001801455d0     libucrt:lcidtoname_downlevel.obj
 0002:0000b5e0       ??_C@_1M@OMFIPEDC@?$AAa?$AAr?$AA?9?$AAt?$AAn@ 00000001801455e0     libucrt:lcidtoname_downlevel.obj
 0002:0000b5f0       ??_C@_1M@IHMHGAON@?$AAa?$AAr?$AA?9?$AAy?$AAe@ 00000001801455f0     libucrt:lcidtoname_downlevel.obj
 0002:0000b600       ??_C@_1BG@KDCPGJGB@?$AAa?$AAz?$AA?9?$AAa?$AAz?$AA?9?$AAc?$AAy?$AAr?$AAl@ 0000000180145600     libucrt:lcidtoname_downlevel.obj
 0002:0000b618       ??_C@_1BG@IBCKDDOE@?$AAa?$AAz?$AA?9?$AAa?$AAz?$AA?9?$AAl?$AAa?$AAt?$AAn@ 0000000180145618     libucrt:lcidtoname_downlevel.obj
 0002:0000b630       ??_C@_1M@EGPFDCPD@?$AAb?$AAe?$AA?9?$AAb?$AAy@ 0000000180145630     libucrt:lcidtoname_downlevel.obj
 0002:0000b640       ??_C@_1M@PCMGMCGC@?$AAb?$AAg?$AA?9?$AAb?$AAg@ 0000000180145640     libucrt:lcidtoname_downlevel.obj
 0002:0000b650       ??_C@_1M@BJBMFGOB@?$AAb?$AAn?$AA?9?$AAi?$AAn@ 0000000180145650     libucrt:lcidtoname_downlevel.obj
 0002:0000b660       ??_C@_1BG@EAKMMACD@?$AAb?$AAs?$AA?9?$AAb?$AAa?$AA?9?$AAl?$AAa?$AAt?$AAn@ 0000000180145660     libucrt:lcidtoname_downlevel.obj
 0002:0000b678       ??_C@_1M@KGADAODK@?$AAc?$AAa?$AA?9?$AAe?$AAs@ 0000000180145678     libucrt:lcidtoname_downlevel.obj
 0002:0000b688       ??_C@_1M@COAJPDHI@?$AAc?$AAs?$AA?9?$AAc?$AAz@ 0000000180145688     libucrt:lcidtoname_downlevel.obj
 0002:0000b698       ??_C@_1M@DHBHFONH@?$AAc?$AAy?$AA?9?$AAg?$AAb@ 0000000180145698     libucrt:lcidtoname_downlevel.obj
 0002:0000b6a8       ??_C@_1M@IMGKELGA@?$AAd?$AAa?$AA?9?$AAd?$AAk@ 00000001801456a8     libucrt:lcidtoname_downlevel.obj
 0002:0000b6b8       ??_C@_1M@NNDGDNGA@?$AAd?$AAe?$AA?9?$AAa?$AAt@ 00000001801456b8     libucrt:lcidtoname_downlevel.obj
 0002:0000b6c8       ??_C@_1M@IKDBHEEM@?$AAd?$AAe?$AA?9?$AAc?$AAh@ 00000001801456c8     libucrt:lcidtoname_downlevel.obj
 0002:0000b6d8       ??_C@_1M@GFFOJMCJ@?$AAd?$AAe?$AA?9?$AAd?$AAe@ 00000001801456d8     libucrt:lcidtoname_downlevel.obj
 0002:0000b6e8       ??_C@_1M@MDNLKBPM@?$AAd?$AAe?$AA?9?$AAl?$AAi@ 00000001801456e8     libucrt:lcidtoname_downlevel.obj
 0002:0000b6f8       ??_C@_1M@NJBEEJNL@?$AAd?$AAe?$AA?9?$AAl?$AAu@ 00000001801456f8     libucrt:lcidtoname_downlevel.obj
 0002:0000b708       ??_C@_1O@GNNELBAP@?$AAd?$AAi?$AAv?$AA?9?$AAm?$AAv@ 0000000180145708     libucrt:lcidtoname_downlevel.obj
 0002:0000b718       ??_C@_1M@EJLEOGAE@?$AAe?$AAl?$AA?9?$AAg?$AAr@ 0000000180145718     libucrt:lcidtoname_downlevel.obj
 0002:0000b728       ??_C@_1M@GMPONJN@?$AAe?$AAn?$AA?9?$AAa?$AAu@ 0000000180145728     libucrt:lcidtoname_downlevel.obj
 0002:0000b738       ??_C@_1M@NIDIIPGF@?$AAe?$AAn?$AA?9?$AAb?$AAz@ 0000000180145738     libucrt:lcidtoname_downlevel.obj
 0002:0000b748       ??_C@_1M@JEHMIMFO@?$AAe?$AAn?$AA?9?$AAc?$AAa@ 0000000180145748     libucrt:lcidtoname_downlevel.obj
 0002:0000b758       ??_C@_1M@IGMJCDLA@?$AAe?$AAn?$AA?9?$AAc?$AAb@ 0000000180145758     libucrt:lcidtoname_downlevel.obj
 0002:0000b768       ??_C@_1M@BNFIGBKG@?$AAe?$AAn?$AA?9?$AAg?$AAb@ 0000000180145768     libucrt:lcidtoname_downlevel.obj
 0002:0000b778       ??_C@_1M@LKIFDIGP@?$AAe?$AAn?$AA?9?$AAi?$AAe@ 0000000180145778     libucrt:lcidtoname_downlevel.obj
 0002:0000b788       ??_C@_1M@PJKFGCCO@?$AAe?$AAn?$AA?9?$AAj?$AAm@ 0000000180145788     libucrt:lcidtoname_downlevel.obj
 0002:0000b798       ??_C@_1M@KPPKEPBO@?$AAe?$AAn?$AA?9?$AAn?$AAz@ 0000000180145798     libucrt:lcidtoname_downlevel.obj
 0002:0000b7a8       ??_C@_1M@GMDGLDOB@?$AAe?$AAn?$AA?9?$AAp?$AAh@ 00000001801457a8     libucrt:lcidtoname_downlevel.obj
 0002:0000b7b8       ??_C@_1M@ONGIBJNA@?$AAe?$AAn?$AA?9?$AAt?$AAt@ 00000001801457b8     libucrt:lcidtoname_downlevel.obj
 0002:0000b7c8       ??_C@_1M@LLODPCMM@?$AAe?$AAn?$AA?9?$AAu?$AAs@ 00000001801457c8     libucrt:lcidtoname_downlevel.obj
 0002:0000b7d8       ??_C@_1M@LAKFNPAN@?$AAe?$AAn?$AA?9?$AAz?$AAa@ 00000001801457d8     libucrt:lcidtoname_downlevel.obj
 0002:0000b7e8       ??_C@_1M@MFNHNHEO@?$AAe?$AAn?$AA?9?$AAz?$AAw@ 00000001801457e8     libucrt:lcidtoname_downlevel.obj
 0002:0000b7f8       ??_C@_1M@EJEINPHM@?$AAe?$AAs?$AA?9?$AAa?$AAr@ 00000001801457f8     libucrt:lcidtoname_downlevel.obj
 0002:0000b808       ??_C@_1M@GNKPCCJA@?$AAe?$AAs?$AA?9?$AAb?$AAo@ 0000000180145808     libucrt:lcidtoname_downlevel.obj
 0002:0000b818       ??_C@_1M@LEEGFONL@?$AAe?$AAs?$AA?9?$AAc?$AAl@ 0000000180145818     libucrt:lcidtoname_downlevel.obj
 0002:0000b828       ??_C@_1M@KGPDPBDF@?$AAe?$AAs?$AA?9?$AAc?$AAo@ 0000000180145828     libucrt:lcidtoname_downlevel.obj
 0002:0000b838       ??_C@_1M@EIAHOHH@?$AAe?$AAs?$AA?9?$AAc?$AAr@ 0000000180145838     libucrt:lcidtoname_downlevel.obj
 0002:0000b848       ??_C@_1M@LLPGMBIN@?$AAe?$AAs?$AA?9?$AAd?$AAo@ 0000000180145848     libucrt:lcidtoname_downlevel.obj
 0002:0000b858       ??_C@_1M@DKHMKNJA@?$AAe?$AAs?$AA?9?$AAe?$AAc@ 0000000180145858     libucrt:lcidtoname_downlevel.obj
 0002:0000b868       ??_C@_1M@GKGFPKAP@?$AAe?$AAs?$AA?9?$AAe?$AAs@ 0000000180145868     libucrt:lcidtoname_downlevel.obj
 0002:0000b878       ??_C@_1M@LKHKGDLN@?$AAe?$AAs?$AA?9?$AAg?$AAt@ 0000000180145878     libucrt:lcidtoname_downlevel.obj
 0002:0000b888       ??_C@_1M@HEIIGGJD@?$AAe?$AAs?$AA?9?$AAh?$AAn@ 0000000180145888     libucrt:lcidtoname_downlevel.obj
 0002:0000b898       ??_C@_1M@FBDHPPGD@?$AAe?$AAs?$AA?9?$AAm?$AAx@ 0000000180145898     libucrt:lcidtoname_downlevel.obj
 0002:0000b8a8       ??_C@_1M@DPAGLNDH@?$AAe?$AAs?$AA?9?$AAn?$AAi@ 00000001801458a8     libucrt:lcidtoname_downlevel.obj
 0002:0000b8b8       ??_C@_1M@MDGOPGDD@?$AAe?$AAs?$AA?9?$AAp?$AAa@ 00000001801458b8     libucrt:lcidtoname_downlevel.obj
 0002:0000b8c8       ??_C@_1M@EMAMGBGE@?$AAe?$AAs?$AA?9?$AAp?$AAe@ 00000001801458c8     libucrt:lcidtoname_downlevel.obj
 0002:0000b8d8       ??_C@_1M@IBMCAOEC@?$AAe?$AAs?$AA?9?$AAp?$AAr@ 00000001801458d8     libucrt:lcidtoname_downlevel.obj
 0002:0000b8e8       ??_C@_1M@FGMDIJED@?$AAe?$AAs?$AA?9?$AAp?$AAy@ 00000001801458e8     libucrt:lcidtoname_downlevel.obj
 0002:0000b8f8       ??_C@_1M@IIDEOLLL@?$AAe?$AAs?$AA?9?$AAs?$AAv@ 00000001801458f8     libucrt:lcidtoname_downlevel.obj
 0002:0000b908       ??_C@_1M@GAOBIPA@?$AAe?$AAs?$AA?9?$AAu?$AAy@ 0000000180145908     libucrt:lcidtoname_downlevel.obj
 0002:0000b918       ??_C@_1M@JKFFICHJ@?$AAe?$AAs?$AA?9?$AAv?$AAe@ 0000000180145918     libucrt:lcidtoname_downlevel.obj
 0002:0000b928       ??_C@_1M@PNMLOJDF@?$AAe?$AAt?$AA?9?$AAe?$AAe@ 0000000180145928     libucrt:lcidtoname_downlevel.obj
 0002:0000b938       ??_C@_1M@GHHLIKEI@?$AAe?$AAu?$AA?9?$AAe?$AAs@ 0000000180145938     libucrt:lcidtoname_downlevel.obj
 0002:0000b948       ??_C@_1M@PBNONODE@?$AAf?$AAa?$AA?9?$AAi?$AAr@ 0000000180145948     libucrt:lcidtoname_downlevel.obj
 0002:0000b958       ??_C@_1M@JEEHPMIL@?$AAf?$AAi?$AA?9?$AAf?$AAi@ 0000000180145958     libucrt:lcidtoname_downlevel.obj
 0002:0000b968       ??_C@_1M@LMDCNDBA@?$AAf?$AAo?$AA?9?$AAf?$AAo@ 0000000180145968     libucrt:lcidtoname_downlevel.obj
 0002:0000b978       ??_C@_1M@JKEOHLDK@?$AAf?$AAr?$AA?9?$AAb?$AAe@ 0000000180145978     libucrt:lcidtoname_downlevel.obj
 0002:0000b988       ??_C@_1M@NOHADPMI@?$AAf?$AAr?$AA?9?$AAc?$AAa@ 0000000180145988     libucrt:lcidtoname_downlevel.obj
 0002:0000b998       ??_C@_1M@KDHIHAEC@?$AAf?$AAr?$AA?9?$AAc?$AAh@ 0000000180145998     libucrt:lcidtoname_downlevel.obj
 0002:0000b9a8       ??_C@_1M@MMBBFGAK@?$AAf?$AAr?$AA?9?$AAf?$AAr@ 00000001801459a8     libucrt:lcidtoname_downlevel.obj
 0002:0000b9b8       ??_C@_1M@PAFNENNF@?$AAf?$AAr?$AA?9?$AAl?$AAu@ 00000001801459b8     libucrt:lcidtoname_downlevel.obj
 0002:0000b9c8       ??_C@_1M@EOHDJGDD@?$AAf?$AAr?$AA?9?$AAm?$AAc@ 00000001801459c8     libucrt:lcidtoname_downlevel.obj
 0002:0000b9d8       ??_C@_1M@FAPLLOPF@?$AAg?$AAl?$AA?9?$AAe?$AAs@ 00000001801459d8     libucrt:lcidtoname_downlevel.obj
 0002:0000b9e8       ??_C@_1M@FOPBFLOO@?$AAg?$AAu?$AA?9?$AAi?$AAn@ 00000001801459e8     libucrt:lcidtoname_downlevel.obj
 0002:0000b9f8       ??_C@_1M@KBMCINPM@?$AAh?$AAe?$AA?9?$AAi?$AAl@ 00000001801459f8     libucrt:lcidtoname_downlevel.obj
 0002:0000ba08       ??_C@_1M@BBPHKFPJ@?$AAh?$AAi?$AA?9?$AAi?$AAn@ 0000000180145a08     libucrt:lcidtoname_downlevel.obj
 0002:0000ba18       ??_C@_1M@PMBNDPHD@?$AAh?$AAr?$AA?9?$AAb?$AAa@ 0000000180145a18     libucrt:lcidtoname_downlevel.obj
 0002:0000ba28       ??_C@_1M@BPCKOEGE@?$AAh?$AAr?$AA?9?$AAh?$AAr@ 0000000180145a28     libucrt:lcidtoname_downlevel.obj
 0002:0000ba38       ??_C@_1M@GACBMHKE@?$AAh?$AAu?$AA?9?$AAh?$AAu@ 0000000180145a38     libucrt:lcidtoname_downlevel.obj
 0002:0000ba48       ??_C@_1M@MILPAJJC@?$AAh?$AAy?$AA?9?$AAa?$AAm@ 0000000180145a48     libucrt:lcidtoname_downlevel.obj
 0002:0000ba58       ??_C@_1M@BABBICEC@?$AAi?$AAd?$AA?9?$AAi?$AAd@ 0000000180145a58     libucrt:lcidtoname_downlevel.obj
 0002:0000ba68       ??_C@_1M@BIKNHHPF@?$AAi?$AAs?$AA?9?$AAi?$AAs@ 0000000180145a68     libucrt:lcidtoname_downlevel.obj
 0002:0000ba78       ??_C@_1M@NMPCJPHE@?$AAi?$AAt?$AA?9?$AAc?$AAh@ 0000000180145a78     libucrt:lcidtoname_downlevel.obj
 0002:0000ba88       ??_C@_1M@GHKGFEDF@?$AAi?$AAt?$AA?9?$AAi?$AAt@ 0000000180145a88     libucrt:lcidtoname_downlevel.obj
 0002:0000ba98       ??_C@_1M@NIEJCJJA@?$AAj?$AAa?$AA?9?$AAj?$AAp@ 0000000180145a98     libucrt:lcidtoname_downlevel.obj
 0002:0000baa8       ??_C@_1M@JILFNBIM@?$AAk?$AAa?$AA?9?$AAg?$AAe@ 0000000180145aa8     libucrt:lcidtoname_downlevel.obj
 0002:0000bab8       ??_C@_1M@PACPMGPH@?$AAk?$AAk?$AA?9?$AAk?$AAz@ 0000000180145ab8     libucrt:lcidtoname_downlevel.obj
 0002:0000bac8       ??_C@_1M@IELFGMHA@?$AAk?$AAn?$AA?9?$AAi?$AAn@ 0000000180145ac8     libucrt:lcidtoname_downlevel.obj
 0002:0000bad8       ??_C@_1O@IBBJHCH@?$AAk?$AAo?$AAk?$AA?9?$AAi?$AAn@ 0000000180145ad8     libucrt:lcidtoname_downlevel.obj
 0002:0000bae8       ??_C@_1M@DMHAEOGC@?$AAk?$AAo?$AA?9?$AAk?$AAr@ 0000000180145ae8     libucrt:lcidtoname_downlevel.obj
 0002:0000baf8       ??_C@_1M@HBAHBIGA@?$AAk?$AAy?$AA?9?$AAk?$AAg@ 0000000180145af8     libucrt:lcidtoname_downlevel.obj
 0002:0000bb08       ??_C@_1M@KPMILCJG@?$AAl?$AAt?$AA?9?$AAl?$AAt@ 0000000180145b08     libucrt:lcidtoname_downlevel.obj
 0002:0000bb18       ??_C@_1M@BDEKKCA@?$AAl?$AAv?$AA?9?$AAl?$AAv@ 0000000180145b18     libucrt:lcidtoname_downlevel.obj
 0002:0000bb28       ??_C@_1M@ELCKCCJJ@?$AAm?$AAi?$AA?9?$AAn?$AAz@ 0000000180145b28     libucrt:lcidtoname_downlevel.obj
 0002:0000bb38       ??_C@_1M@CBOOLAPA@?$AAm?$AAk?$AA?9?$AAm?$AAk@ 0000000180145b38     libucrt:lcidtoname_downlevel.obj
 0002:0000bb48       ??_C@_1M@GPHNBJKN@?$AAm?$AAl?$AA?9?$AAi?$AAn@ 0000000180145b48     libucrt:lcidtoname_downlevel.obj
 0002:0000bb58       ??_C@_1M@PABJILIG@?$AAm?$AAn?$AA?9?$AAm?$AAn@ 0000000180145b58     libucrt:lcidtoname_downlevel.obj
 0002:0000bb68       ??_C@_1M@FGBKKIPG@?$AAm?$AAr?$AA?9?$AAi?$AAn@ 0000000180145b68     libucrt:lcidtoname_downlevel.obj
 0002:0000bb78       ??_C@_1M@NDBPDDAL@?$AAm?$AAs?$AA?9?$AAb?$AAn@ 0000000180145b78     libucrt:lcidtoname_downlevel.obj
 0002:0000bb88       ??_C@_1M@OPIHOOPI@?$AAm?$AAs?$AA?9?$AAm?$AAy@ 0000000180145b88     libucrt:lcidtoname_downlevel.obj
 0002:0000bb98       ??_C@_1M@PPDBCNFM@?$AAm?$AAt?$AA?9?$AAm?$AAt@ 0000000180145b98     libucrt:lcidtoname_downlevel.obj
 0002:0000bba8       ??_C@_1M@KDJDKMDD@?$AAn?$AAb?$AA?9?$AAn?$AAo@ 0000000180145ba8     libucrt:lcidtoname_downlevel.obj
 0002:0000bbb8       ??_C@_1M@KFCFLMJP@?$AAn?$AAl?$AA?9?$AAb?$AAe@ 0000000180145bb8     libucrt:lcidtoname_downlevel.obj
 0002:0000bbc8       ??_C@_1M@KPOPDDGO@?$AAn?$AAl?$AA?9?$AAn?$AAl@ 0000000180145bc8     libucrt:lcidtoname_downlevel.obj
 0002:0000bbd8       ??_C@_1M@LJKPEMLN@?$AAn?$AAn?$AA?9?$AAn?$AAo@ 0000000180145bd8     libucrt:lcidtoname_downlevel.obj
 0002:0000bbe8       ??_C@_1M@BDGHHBFL@?$AAn?$AAs?$AA?9?$AAz?$AAa@ 0000000180145be8     libucrt:lcidtoname_downlevel.obj
 0002:0000bbf8       ??_C@_1M@IDEHOAP@?$AAp?$AAa?$AA?9?$AAi?$AAn@ 0000000180145bf8     libucrt:lcidtoname_downlevel.obj
 0002:0000bc08       ??_C@_1M@HDBKGOGH@?$AAp?$AAl?$AA?9?$AAp?$AAl@ 0000000180145c08     libucrt:lcidtoname_downlevel.obj
 0002:0000bc18       ??_C@_1M@LJLLCMEH@?$AAp?$AAt?$AA?9?$AAb?$AAr@ 0000000180145c18     libucrt:lcidtoname_downlevel.obj
 0002:0000bc28       ??_C@_1M@NCMONAAL@?$AAp?$AAt?$AA?9?$AAp?$AAt@ 0000000180145c28     libucrt:lcidtoname_downlevel.obj
 0002:0000bc38       ??_C@_1O@EAKMAJDN@?$AAq?$AAu?$AAz?$AA?9?$AAb?$AAo@ 0000000180145c38     libucrt:lcidtoname_downlevel.obj
 0002:0000bc48       ??_C@_1O@BHHPIGDN@?$AAq?$AAu?$AAz?$AA?9?$AAe?$AAc@ 0000000180145c48     libucrt:lcidtoname_downlevel.obj
 0002:0000bc58       ??_C@_1O@GBAPEKMJ@?$AAq?$AAu?$AAz?$AA?9?$AAp?$AAe@ 0000000180145c58     libucrt:lcidtoname_downlevel.obj
 0002:0000bc68       ??_C@_1M@CLGLEFBO@?$AAr?$AAo?$AA?9?$AAr?$AAo@ 0000000180145c68     libucrt:lcidtoname_downlevel.obj
 0002:0000bc78       ??_C@_1M@CEEDODME@?$AAr?$AAu?$AA?9?$AAr?$AAu@ 0000000180145c78     libucrt:lcidtoname_downlevel.obj
 0002:0000bc88       ??_C@_1M@HPKKKMPP@?$AAs?$AAa?$AA?9?$AAi?$AAn@ 0000000180145c88     libucrt:lcidtoname_downlevel.obj
 0002:0000bc98       ??_C@_1M@BKMAIGOJ@?$AAs?$AAe?$AA?9?$AAf?$AAi@ 0000000180145c98     libucrt:lcidtoname_downlevel.obj
 0002:0000bca8       ??_C@_1M@NDPIFLFI@?$AAs?$AAe?$AA?9?$AAn?$AAo@ 0000000180145ca8     libucrt:lcidtoname_downlevel.obj
 0002:0000bcb8       ??_C@_1M@DANKKHJ@?$AAs?$AAe?$AA?9?$AAs?$AAe@ 0000000180145cb8     libucrt:lcidtoname_downlevel.obj
 0002:0000bcc8       ??_C@_1M@PNBLONPJ@?$AAs?$AAk?$AA?9?$AAs?$AAk@ 0000000180145cc8     libucrt:lcidtoname_downlevel.obj
 0002:0000bcd8       ??_C@_1M@LFMODOAL@?$AAs?$AAl?$AA?9?$AAs?$AAi@ 0000000180145cd8     libucrt:lcidtoname_downlevel.obj
 0002:0000bce8       ??_C@_1O@DFKOMPG@?$AAs?$AAm?$AAa?$AA?9?$AAn?$AAo@ 0000000180145ce8     libucrt:lcidtoname_downlevel.obj
 0002:0000bcf8       ??_C@_1O@NDKPBNNH@?$AAs?$AAm?$AAa?$AA?9?$AAs?$AAe@ 0000000180145cf8     libucrt:lcidtoname_downlevel.obj
 0002:0000bd08       ??_C@_1O@PLLKBHAB@?$AAs?$AAm?$AAj?$AA?9?$AAn?$AAo@ 0000000180145d08     libucrt:lcidtoname_downlevel.obj
 0002:0000bd18       ??_C@_1O@CLEPOGCA@?$AAs?$AAm?$AAj?$AA?9?$AAs?$AAe@ 0000000180145d18     libucrt:lcidtoname_downlevel.obj
 0002:0000bd28       ??_C@_1O@DLGJGKMK@?$AAs?$AAm?$AAn?$AA?9?$AAf?$AAi@ 0000000180145d28     libucrt:lcidtoname_downlevel.obj
 0002:0000bd38       ??_C@_1O@OJDJGAJC@?$AAs?$AAm?$AAs?$AA?9?$AAf?$AAi@ 0000000180145d38     libucrt:lcidtoname_downlevel.obj
 0002:0000bd48       ??_C@_1M@BOFOGHPB@?$AAs?$AAq?$AA?9?$AAa?$AAl@ 0000000180145d48     libucrt:lcidtoname_downlevel.obj
 0002:0000bd58       ??_C@_1BG@LJBBIPGB@?$AAs?$AAr?$AA?9?$AAb?$AAa?$AA?9?$AAc?$AAy?$AAr?$AAl@ 0000000180145d58     libucrt:lcidtoname_downlevel.obj
 0002:0000bd70       ??_C@_1BG@JLBENFOE@?$AAs?$AAr?$AA?9?$AAb?$AAa?$AA?9?$AAl?$AAa?$AAt?$AAn@ 0000000180145d70     libucrt:lcidtoname_downlevel.obj
 0002:0000bd88       ??_C@_1BG@KODPNHE@?$AAs?$AAr?$AA?9?$AAs?$AAp?$AA?9?$AAc?$AAy?$AAr?$AAl@ 0000000180145d88     libucrt:lcidtoname_downlevel.obj
 0002:0000bda0       ??_C@_1BG@CIOGKHPB@?$AAs?$AAr?$AA?9?$AAs?$AAp?$AA?9?$AAl?$AAa?$AAt?$AAn@ 0000000180145da0     libucrt:lcidtoname_downlevel.obj
 0002:0000bdb8       ??_C@_1M@NGFJLMAC@?$AAs?$AAv?$AA?9?$AAf?$AAi@ 0000000180145db8     libucrt:lcidtoname_downlevel.obj
 0002:0000bdc8       ??_C@_1M@MPJEJAJC@?$AAs?$AAv?$AA?9?$AAs?$AAe@ 0000000180145dc8     libucrt:lcidtoname_downlevel.obj
 0002:0000bdd8       ??_C@_1M@MPNDHLFK@?$AAs?$AAw?$AA?9?$AAk?$AAe@ 0000000180145dd8     libucrt:lcidtoname_downlevel.obj
 0002:0000bde8       ??_C@_1O@KOHBJJI@?$AAs?$AAy?$AAr?$AA?9?$AAs?$AAy@ 0000000180145de8     libucrt:lcidtoname_downlevel.obj
 0002:0000bdf8       ??_C@_1M@LDCEFHA@?$AAt?$AAa?$AA?9?$AAi?$AAn@ 0000000180145df8     libucrt:lcidtoname_downlevel.obj
 0002:0000be08       ??_C@_1M@CNJOFAK@?$AAt?$AAe?$AA?9?$AAi?$AAn@ 0000000180145e08     libucrt:lcidtoname_downlevel.obj
 0002:0000be18       ??_C@_1M@GNAECACD@?$AAt?$AAh?$AA?9?$AAt?$AAh@ 0000000180145e18     libucrt:lcidtoname_downlevel.obj
 0002:0000be28       ??_C@_1M@CHBIHOJO@?$AAt?$AAn?$AA?9?$AAz?$AAa@ 0000000180145e28     libucrt:lcidtoname_downlevel.obj
 0002:0000be38       ??_C@_1M@GCCMIGPJ@?$AAt?$AAr?$AA?9?$AAt?$AAr@ 0000000180145e38     libucrt:lcidtoname_downlevel.obj
 0002:0000be48       ??_C@_1M@CELMCNBK@?$AAt?$AAt?$AA?9?$AAr?$AAu@ 0000000180145e48     libucrt:lcidtoname_downlevel.obj
 0002:0000be58       ??_C@_1M@KLMCELGA@?$AAu?$AAk?$AA?9?$AAu?$AAa@ 0000000180145e58     libucrt:lcidtoname_downlevel.obj
 0002:0000be68       ??_C@_1M@EPAJJAJF@?$AAu?$AAr?$AA?9?$AAp?$AAk@ 0000000180145e68     libucrt:lcidtoname_downlevel.obj
 0002:0000be78       ??_C@_1BG@GEGPMCDJ@?$AAu?$AAz?$AA?9?$AAu?$AAz?$AA?9?$AAc?$AAy?$AAr?$AAl@ 0000000180145e78     libucrt:lcidtoname_downlevel.obj
 0002:0000be90       ??_C@_1BG@EGGKJILM@?$AAu?$AAz?$AA?9?$AAu?$AAz?$AA?9?$AAl?$AAa?$AAt?$AAn@ 0000000180145e90     libucrt:lcidtoname_downlevel.obj
 0002:0000bea8       ??_C@_1M@GFOCLFF@?$AAv?$AAi?$AA?9?$AAv?$AAn@ 0000000180145ea8     libucrt:lcidtoname_downlevel.obj
 0002:0000beb8       ??_C@_1M@CPAMEDFI@?$AAx?$AAh?$AA?9?$AAz?$AAa@ 0000000180145eb8     libucrt:lcidtoname_downlevel.obj
 0002:0000bec8       ??_C@_1O@EBKIFIGN@?$AAz?$AAh?$AA?9?$AAc?$AAh?$AAs@ 0000000180145ec8     libucrt:lcidtoname_downlevel.obj
 0002:0000bed8       ??_C@_1O@NMHPGANE@?$AAz?$AAh?$AA?9?$AAc?$AAh?$AAt@ 0000000180145ed8     libucrt:lcidtoname_downlevel.obj
 0002:0000bee8       ??_C@_1M@LPINJOMC@?$AAz?$AAh?$AA?9?$AAc?$AAn@ 0000000180145ee8     libucrt:lcidtoname_downlevel.obj
 0002:0000bef8       ??_C@_1M@OCJEJODD@?$AAz?$AAh?$AA?9?$AAh?$AAk@ 0000000180145ef8     libucrt:lcidtoname_downlevel.obj
 0002:0000bf08       ??_C@_1M@DNDLJINH@?$AAz?$AAh?$AA?9?$AAm?$AAo@ 0000000180145f08     libucrt:lcidtoname_downlevel.obj
 0002:0000bf18       ??_C@_1M@MBFDNDND@?$AAz?$AAh?$AA?9?$AAs?$AAg@ 0000000180145f18     libucrt:lcidtoname_downlevel.obj
 0002:0000bf28       ??_C@_1M@IMEPLEPE@?$AAz?$AAh?$AA?9?$AAt?$AAw@ 0000000180145f28     libucrt:lcidtoname_downlevel.obj
 0002:0000bf38       ??_C@_1M@BBGHNHJP@?$AAz?$AAu?$AA?9?$AAz?$AAa@ 0000000180145f38     libucrt:lcidtoname_downlevel.obj
 0002:0000bf70       ?large_power_data@?1??multiply_by_power_of_ten@__crt_strtox@@YA_NAEAUbig_integer@2@I@Z@4QBIB 0000000180145f70     libucrt:cfout.obj
 0002:0000c880       ?large_power_indices@?1??multiply_by_power_of_ten@__crt_strtox@@YA_NAEAUbig_integer@2@I@Z@4QBUunpack_index@?1??12@YA_N0I@Z@B 0000000180146880     libucrt:cfout.obj
 0002:0000c918       ?small_powers_of_ten@?1??multiply_by_power_of_ten@__crt_strtox@@YA_NAEAUbig_integer@2@I@Z@4QBIB 0000000180146918     libucrt:cfout.obj
 0002:0000c93c       ??_C@_01GBGANLPD@0@        000000018014693c     libucrt:cfout.obj
 0002:0000c940       ??_C@_05DNEBIAHO@1?$CDINF@ 0000000180146940     libucrt:cfout.obj
 0002:0000c948       ??_C@_06IMKFLFPG@1?$CDQNAN@ 0000000180146948     libucrt:cfout.obj
 0002:0000c950       ??_C@_06PGGFOGJG@1?$CDSNAN@ 0000000180146950     libucrt:cfout.obj
 0002:0000c958       ??_C@_05PHHOCPM@1?$CDIND@  0000000180146958     libucrt:cfout.obj
 0002:0000c960       __real@3ff0000000000000    0000000180146960     libucrt:ceil.obj
 0002:0000cbc0       ??_C@_1BA@BALFACEM@?$AAC?$AAO?$AAN?$AAO?$AAU?$AAT?$AA$@ 0000000180146bc0     libucrt:initcon.obj
 0002:0000cbd0       __log10_256_lead           0000000180146bd0     libucrt:log10_256_lead_tail_table.obj
 0002:0000d3e0       __log10_256_tail           00000001801473e0     libucrt:log10_256_lead_tail_table.obj
 0002:0000dbf0       __log_F_inv_qword          0000000180147bf0     libucrt:log_f_inv_qword_table.obj
 0002:0000e480       ??_R4type_info@@6B@        0000000180148480     LIBCMT:std_type_info_static.obj
 0002:0000e4a8       ??_R3type_info@@8          00000001801484a8     LIBCMT:std_type_info_static.obj
 0002:0000e4c0       ??_R2type_info@@8          00000001801484c0     LIBCMT:std_type_info_static.obj
 0002:0000e4d0       ??_R1A@?0A@EA@type_info@@8 00000001801484d0     LIBCMT:std_type_info_static.obj
 0002:0000e4f8       ??_R3DNameNode@@8          00000001801484f8     libvcruntime:undname.obj
 0002:0000e510       ??_R2DNameNode@@8          0000000180148510     libvcruntime:undname.obj
 0002:0000e520       ??_R1A@?0A@EA@DNameNode@@8 0000000180148520     libvcruntime:undname.obj
 0002:0000e548       ??_R4charNode@@6B@         0000000180148548     libvcruntime:undname.obj
 0002:0000e570       ??_R3charNode@@8           0000000180148570     libvcruntime:undname.obj
 0002:0000e588       ??_R2charNode@@8           0000000180148588     libvcruntime:undname.obj
 0002:0000e5a0       ??_R1A@?0A@EA@charNode@@8  00000001801485a0     libvcruntime:undname.obj
 0002:0000e5c8       ??_R4pcharNode@@6B@        00000001801485c8     libvcruntime:undname.obj
 0002:0000e5f0       ??_R3pcharNode@@8          00000001801485f0     libvcruntime:undname.obj
 0002:0000e608       ??_R2pcharNode@@8          0000000180148608     libvcruntime:undname.obj
 0002:0000e620       ??_R1A@?0A@EA@pcharNode@@8 0000000180148620     libvcruntime:undname.obj
 0002:0000e648       ??_R4pDNameNode@@6B@       0000000180148648     libvcruntime:undname.obj
 0002:0000e670       ??_R3pDNameNode@@8         0000000180148670     libvcruntime:undname.obj
 0002:0000e688       ??_R2pDNameNode@@8         0000000180148688     libvcruntime:undname.obj
 0002:0000e6a0       ??_R1A@?0A@EA@pDNameNode@@8 00000001801486a0     libvcruntime:undname.obj
 0002:0000e6c8       ??_R4DNameStatusNode@@6B@  00000001801486c8     libvcruntime:undname.obj
 0002:0000e6f0       ??_R3DNameStatusNode@@8    00000001801486f0     libvcruntime:undname.obj
 0002:0000e708       ??_R2DNameStatusNode@@8    0000000180148708     libvcruntime:undname.obj
 0002:0000e720       ??_R1A@?0A@EA@DNameStatusNode@@8 0000000180148720     libvcruntime:undname.obj
 0002:0000e748       ??_R4pairNode@@6B@         0000000180148748     libvcruntime:undname.obj
 0002:0000e770       ??_R3pairNode@@8           0000000180148770     libvcruntime:undname.obj
 0002:0000e788       ??_R2pairNode@@8           0000000180148788     libvcruntime:undname.obj
 0002:0000e7a0       ??_R1A@?0A@EA@pairNode@@8  00000001801487a0     libvcruntime:undname.obj
 0002:0000e7c8       ??_R4exception@std@@6B@    00000001801487c8     libvcruntime:frame.obj
 0002:0000e7f0       ??_R3exception@std@@8      00000001801487f0     libvcruntime:frame.obj
 0002:0000e808       ??_R2exception@std@@8      0000000180148808     libvcruntime:frame.obj
 0002:0000e818       ??_R1A@?0A@EA@exception@std@@8 0000000180148818     libvcruntime:frame.obj
 0002:0000e840       ??_R4bad_exception@std@@6B@ 0000000180148840     libvcruntime:frame.obj
 0002:0000e868       ??_R3bad_exception@std@@8  0000000180148868     libvcruntime:frame.obj
 0002:0000e880       ??_R2bad_exception@std@@8  0000000180148880     libvcruntime:frame.obj
 0002:0000e898       ??_R1A@?0A@EA@bad_exception@std@@8 0000000180148898     libvcruntime:frame.obj
 0002:0000ec98       __rtc_iaa                  0000000180148c98     LIBCMT:initsect.obj
 0002:0000eca0       __rtc_izz                  0000000180148ca0     LIBCMT:initsect.obj
 0002:0000eca8       __rtc_taa                  0000000180148ca8     LIBCMT:initsect.obj
 0002:0000ecb0       __rtc_tzz                  0000000180148cb0     LIBCMT:initsect.obj
 0002:0001b558       _TI2?AVbad_exception@std@@ 0000000180155558     libvcruntime:frame.obj
 0002:0001b578       _CTA2?AVbad_exception@std@@ 0000000180155578     libvcruntime:frame.obj
 0002:0001b590       _CT??_R0?AVbad_exception@std@@@8??0bad_exception@std@@QEAA@AEBV01@@Z24 0000000180155590     libvcruntime:frame.obj
 0002:0001b5b8       _CT??_R0?AVexception@std@@@8??0exception@std@@QEAA@AEBV01@@Z24 00000001801555b8     libvcruntime:frame.obj
 0002:0001b5dc       __DELAY_IMPORT_DESCRIPTOR_physxfoundation_64_dll 00000001801555dc     PhysXFoundation_64:PhysXFoundation_64.dll
 0002:0001b5fc       __NULL_DELAY_IMPORT_DESCRIPTOR 00000001801555fc     PhysXFoundation_64:PhysXFoundation_64.dll
 0002:0001b6a0       \177PhysXFoundation_64_NULL_THUNK_DATA_DLN 00000001801556a0     PhysXFoundation_64:PhysXFoundation_64.dll
 0002:0001b9c8       \177PhysXFoundation_64_NULL_THUNK_DATA_DLB 00000001801559c8     PhysXFoundation_64:PhysXFoundation_64.dll
 0002:00025b2c       __IMPORT_DESCRIPTOR_KERNEL32 000000018015fb2c     kernel32:KERNEL32.dll
 0002:00025b40       __NULL_IMPORT_DESCRIPTOR   000000018015fb40     kernel32:KERNEL32.dll
 0003:00000000       __pfnDliNotifyHook2        0000000180161000     CmWindowsDelayLoadHook.obj
 0003:00000020       ?gGeomMTDMethodTable@@3PAY06P6A_NAEAVPxVec3@physx@@AEAMAEBVPxGeometry@2@AEBVPxTransform@2@23@ZA 0000000180161020     GuMTD.obj
 0003:000001b0       ?gGeomOverlapMethodTable@@3PAY06P6A_NAEBVPxGeometry@physx@@AEBVPxTransform@2@01PEAUTriggerCache@Gu@2@@ZA 00000001801611b0     GuOverlapTests.obj
 0003:00000338       ?gRaycastMap@@3PAP6AIAEBVPxGeometry@physx@@AEBVPxTransform@2@AEBVPxVec3@2@2MV?$PxFlags@W4Enum@PxHitFlag@physx@@G@2@IPEIAUPxRaycastHit@2@@ZA 0000000180161338     GuRaycastTests.obj
 0003:00000370       ?gGeomSweepFuncs@@3UGeomSweepFuncs@Gu@physx@@A 0000000180161370     GuSweepTests.obj
 0003:00000490       ?g_SweepMethodTable@Gu@physx@@3PAY06P6AMAEBUCCDShape@12@0AEBVPxTransform@2@111MAEAVPxVec3@2@2MAEAIM@ZA 0000000180161490     GuCCDSweepPrimitives.obj
 0003:00000618       ?g_TriangleSweepMethodTable@Gu@physx@@3PAP6AMAEBVGeometryUnion@12@0AEBVPxTransform@2@111MAEAVPxVec3@2@2AEBVFastVertex2ShapeScaling@Cm@2@AEAVTriangleV@12@M@ZA 0000000180161618     GuCCDSweepPrimitives.obj
 0003:00000a14       _fltused                   0000000180161a14     LIBCMT:fltused.obj
 0003:00000a20       __isa_available            0000000180161a20     LIBCMT:cpu_disp.obj
 0003:00000a24       __isa_enabled              0000000180161a24     LIBCMT:cpu_disp.obj
 0003:00000a28       __memcpy_nt_iters          0000000180161a28     LIBCMT:cpu_disp.obj
 0003:00000a30       __memset_nt_iters          0000000180161a30     LIBCMT:cpu_disp.obj
 0003:00000a40       __scrt_native_dllmain_reason 0000000180161a40     LIBCMT:utility.obj
 0003:00000a48       __security_cookie_complement 0000000180161a48     LIBCMT:gs_cookie.obj
 0003:00000a50       __security_cookie          0000000180161a50     LIBCMT:gs_cookie.obj
 0003:00000a80       __abort_behavior           0000000180161a80     libucrt:abort.obj
 0003:00000ab0       __acrt_initial_multibyte_data 0000000180161ab0     libucrt:mbctype.obj
 0003:00000ff0       __acrt_initial_locale_data 0000000180161ff0     libucrt:nlsdata.obj
 0003:00001148       __acrt_initial_locale_pointers 0000000180162148     libucrt:nlsdata.obj
 0003:00001158       __acrt_wide_c_locale_string 0000000180162158     libucrt:nlsdata.obj
 0003:00001160       _iob                       0000000180162160     libucrt:_file.obj
 0003:00001270       __globallocalestatus       0000000180162270     libucrt:glstatus.obj
 0003:00001280       __acrt_lconv_c             0000000180162280     libucrt:localeconv.obj
 0003:00001318       __acrt_lconv_static_decimal 0000000180162318     libucrt:localeconv.obj
 0003:0000131c       __acrt_lconv_static_W_decimal 000000018016231c     libucrt:localeconv.obj
 0003:00001320       _lookuptrailbytes          0000000180162320     libucrt:read.obj
 0003:00001430       ??_R0?AVCollection@Cm@physx@@@8 0000000180162430     CmCollection.obj
 0003:00001460       ??_R0D@8                   0000000180162460     CmRenderOutput.obj
 0003:00001478       ??_R0?AUPxDebugText@physx@@@8 0000000180162478     CmRenderOutput.obj
 0003:000014a0       ??_R0?AUPxDebugTriangle@physx@@@8 00000001801624a0     CmRenderOutput.obj
 0003:000014d0       ??_R0?AUPxDebugLine@physx@@@8 00000001801624d0     CmRenderOutput.obj
 0003:000014f8       ??_R0?AUPxDebugPoint@physx@@@8 00000001801624f8     CmRenderOutput.obj
 0003:00001528       ??_R0?AVMutexImpl@shdfnd@physx@@@8 0000000180162528     GuMeshFactory.obj
 0003:00001558       ??_R0?AVBVHStructure@Gu@physx@@@8 0000000180162558     GuMeshFactory.obj
 0003:00001588       ??_R0?AVHeightField@Gu@physx@@@8 0000000180162588     GuMeshFactory.obj
 0003:000015b8       ??_R0?AVConvexMesh@Gu@physx@@@8 00000001801625b8     GuMeshFactory.obj
 0003:000015e8       ??_R0?AVBV32Tree@Gu@physx@@@8 00000001801625e8     GuMeshFactory.obj
 0003:00001610       ??_R0?AVBV4TriangleData@Gu@physx@@@8 0000000180162610     GuMeshFactory.obj
 0003:00001640       ??_R0?AVRTreeTriangleData@Gu@physx@@@8 0000000180162640     GuMeshFactory.obj
 0003:00001678       ??_R0?AVBV4TriangleMesh@Gu@physx@@@8 0000000180162678     GuMeshFactory.obj
 0003:000016a8       ??_R0?AVRTreeTriangleMesh@Gu@physx@@@8 00000001801626a8     GuMeshFactory.obj
 0003:000016e0       ??_R0E@8                   00000001801626e0     GuMeshFactory.obj
 0003:000016f8       ??_R0G@8                   00000001801626f8     GuMeshFactory.obj
 0003:00001710       ??_R0I@8                   0000000180162710     GuMeshFactory.obj
 0003:00001728       ??_R0PEAVGuMeshFactoryListener@physx@@@8 0000000180162728     GuMeshFactory.obj
 0003:00001760       ??_R0?AVAABBTreeBuildNode@Gu@physx@@@8 0000000180162760     GuAABBTreeBuild.obj
 0003:00001798       ??_R0?AUSlab@NodeAllocator@Gu@physx@@@8 0000000180162798     GuAABBTreeBuild.obj
 0003:000017d0       ??_R0PEBUBVHNode@Gu@physx@@@8 00000001801627d0     GuBVHStructure.obj
 0003:000017f8       ??_R0?AVBigConvexData@physx@@@8 00000001801627f8     GuConvexMesh.obj
 0003:00001828       ??_R0?AVIndTri16@Gu@physx@@@8 0000000180162828     GuBV4.obj
 0003:00001850       ??_R0?AVIndTri32@Gu@physx@@@8 0000000180162850     GuBV4.obj
 0003:00001880       ??_R0?AU?$BVDataPackedT@VQuantizedAABB@Gu@physx@@@Gu@physx@@@8 0000000180162880     GuBV4Build.obj
 0003:000018d0       ??_R0?AUSlab@BV4BuildParams@@@8 00000001801628d0     GuBV4Build.obj
 0003:00001900       ??_R0?AVAABBTreeNode@Gu@physx@@@8 0000000180162900     GuBV4Build.obj
 0003:00001930       ??_R0?AUBV32Data@Gu@physx@@@8 0000000180162930     GuBV32Build.obj
 0003:00001958       ??_R0?AUBV32Node@@@8       0000000180162958     GuBV32Build.obj
 0003:00001978       ??_R0?AUSortedTriangle@Gu@physx@@@8 0000000180162978     GuPCMContactConvexCommon.obj
 0003:000019a8       ??_R0?AVtype_info@@@8      00000001801629a8     LIBCMT:std_type_info_static.obj
 0003:000019c8       ??_R0?AVDNameNode@@@8      00000001801629c8     libvcruntime:undname.obj
 0003:000019e8       ??_R0?AVcharNode@@@8       00000001801629e8     libvcruntime:undname.obj
 0003:00001a08       ??_R0?AVpcharNode@@@8      0000000180162a08     libvcruntime:undname.obj
 0003:00001a28       ??_R0?AVpDNameNode@@@8     0000000180162a28     libvcruntime:undname.obj
 0003:00001a50       ??_R0?AVDNameStatusNode@@@8 0000000180162a50     libvcruntime:undname.obj
 0003:00001a78       ??_R0?AVpairNode@@@8       0000000180162a78     libvcruntime:undname.obj
 0003:00001a98       ??_R0?AVbad_exception@std@@@8 0000000180162a98     libvcruntime:frame.obj
 0003:00001ac0       ??_R0?AVexception@std@@@8  0000000180162ac0     libvcruntime:frame.obj
 0003:00001ae8       __imp_PxGetFoundation      0000000180162ae8     PhysXFoundation_64:PhysXFoundation_64.dll
 0003:00001af0       __imp_?deallocate@TempAllocator@shdfnd@physx@@QEAAXPEAX@Z 0000000180162af0     PhysXFoundation_64:PhysXFoundation_64.dll
 0003:00001af8       __imp_?getAllocator@shdfnd@physx@@YAAEAVPxAllocatorCallback@2@XZ 0000000180162af8     PhysXFoundation_64:PhysXFoundation_64.dll
 0003:00001b00       __imp_?getInstance@Foundation@shdfnd@physx@@SAAEAV123@XZ 0000000180162b00     PhysXFoundation_64:PhysXFoundation_64.dll
 0003:00001b08       __imp_?error@Foundation@shdfnd@physx@@QEAAXW4Enum@PxErrorCode@3@PEBDH1ZZ 0000000180162b08     PhysXFoundation_64:PhysXFoundation_64.dll
 0003:00001b10       __imp_?vsnprintf@shdfnd@physx@@YAHPEAD_KPEBD0@Z 0000000180162b10     PhysXFoundation_64:PhysXFoundation_64.dll
 0003:00001b18       __imp_??0MutexImpl@shdfnd@physx@@QEAA@XZ 0000000180162b18     PhysXFoundation_64:PhysXFoundation_64.dll
 0003:00001b20       __imp_??1MutexImpl@shdfnd@physx@@QEAA@XZ 0000000180162b20     PhysXFoundation_64:PhysXFoundation_64.dll
 0003:00001b28       __imp_?lock@MutexImpl@shdfnd@physx@@QEAAXXZ 0000000180162b28     PhysXFoundation_64:PhysXFoundation_64.dll
 0003:00001b30       __imp_?unlock@MutexImpl@shdfnd@physx@@QEAAXXZ 0000000180162b30     PhysXFoundation_64:PhysXFoundation_64.dll
 0003:00001b38       __imp_?getSize@MutexImpl@shdfnd@physx@@SAIXZ 0000000180162b38     PhysXFoundation_64:PhysXFoundation_64.dll
 0003:00001b40       __imp_?atomicDecrement@shdfnd@physx@@YAHPECH@Z 0000000180162b40     PhysXFoundation_64:PhysXFoundation_64.dll
 0003:00001b48       __imp_?PxTransformFromSegment@physx@@YA?AVPxTransform@1@AEBVPxVec3@1@0PEAM@Z 0000000180162b48     PhysXFoundation_64:PhysXFoundation_64.dll
 0003:00001b50       __imp_?optimizeBoundingBox@shdfnd@physx@@YA?AVPxVec3@2@AEAVPxMat33@2@@Z 0000000180162b50     PhysXFoundation_64:PhysXFoundation_64.dll
 0003:00001b58       __imp_?allocate@TempAllocator@shdfnd@physx@@QEAAPEAX_KPEBDH@Z 0000000180162b58     PhysXFoundation_64:PhysXFoundation_64.dll
 0003:00001b60       __imp_?atomicIncrement@shdfnd@physx@@YAHPECH@Z 0000000180162b60     PhysXFoundation_64:PhysXFoundation_64.dll
 0003:00001b68       \177PhysXFoundation_64_NULL_THUNK_DATA_DLA 0000000180162b68     PhysXFoundation_64:PhysXFoundation_64.dll
 0003:00002900       ?boxVertexTable@physx@@3QBT__m128@@B 0000000180163900     GuConvexSupportTable.obj
 0003:00004450       __hmod__PhysXFoundation_64_dll 0000000180165450     PhysXFoundation_64:PhysXFoundation_64.dll
 0003:00004458       ?DloadKernel32@@3PEAUHINSTANCE__@@EA 0000000180165458     Delayimp:delayhlp.obj
 0003:00004460       ?DloadAcquireSRWLockExclusive@@3P6AXPEA_K@ZEA 0000000180165460     Delayimp:delayhlp.obj
 0003:00004468       ?DloadReleaseSRWLockExclusive@@3P6AXPEA_K@ZEA 0000000180165468     Delayimp:delayhlp.obj
 0003:00004470       ?DloadSrwLock@@3_KA        0000000180165470     Delayimp:delayhlp.obj
 0003:00004478       ?DloadSectionLockCount@@3KA 0000000180165478     Delayimp:delayhlp.obj
 0003:0000447c       ?DloadSectionOldProtection@@3KA 000000018016547c     Delayimp:delayhlp.obj
 0003:00004480       ?DloadSectionCommitPermanent@@3KA 0000000180165480     Delayimp:delayhlp.obj
 0003:00004490       ?__type_info_root_node@@3U__type_info_node@@A 0000000180165490     LIBCMT:tncleanup.obj
 0003:000044a8       __castguard_check_failure_os_handled_fptr 00000001801654a8     LIBCMT:guard_support.obj
 0003:000044b0       __favor                    00000001801654b0     LIBCMT:cpu_disp.obj
 0003:000044b8       ?_OptionsStorage@?1??__local_stdio_printf_options@@9@4_KA 00000001801654b8     LIBCMT:default_local_stdio_options.obj
 0003:000044c0       ?_OptionsStorage@?1??__local_stdio_scanf_options@@9@4_KA 00000001801654c0     LIBCMT:default_local_stdio_options.obj
 0003:000044c8       __scrt_current_native_startup_state 00000001801654c8     LIBCMT:utility.obj
 0003:000044d0       __scrt_native_startup_lock 00000001801654d0     LIBCMT:utility.obj
 0003:00004510       __scrt_debugger_hook_flag  0000000180165510     LIBCMT:utility_desktop.obj
 0003:00004518       ?__WinRTOutOfMemoryExceptionCallback@@3P6APEAXXZEA 0000000180165518     libvcruntime:ehhelpers.obj
 0003:00004520       __pPurecall                0000000180165520     libvcruntime:purevirt_data.obj
 0003:00004528       ?pArgList@UnDecorator@@0PEAVReplicator@@EA 0000000180165528     libvcruntime:undname.obj
 0003:00004530       ?pZNameList@UnDecorator@@0PEAVReplicator@@EA 0000000180165530     libvcruntime:undname.obj
 0003:00004538       ?pTemplateArgList@UnDecorator@@0PEAVReplicator@@EA 0000000180165538     libvcruntime:undname.obj
 0003:00004540       ?gName@UnDecorator@@0PEBDEB 0000000180165540     libvcruntime:undname.obj
 0003:00004548       ?name@UnDecorator@@0PEBDEB 0000000180165548     libvcruntime:undname.obj
 0003:00004550       ?disableFlags@UnDecorator@@0KA 0000000180165550     libvcruntime:undname.obj
 0003:00004554       ?fExplicitTemplateParams@UnDecorator@@0_NA 0000000180165554     libvcruntime:undname.obj
 0003:00004555       ?fGetTemplateArgumentList@UnDecorator@@0_NA 0000000180165555     libvcruntime:undname.obj
 0003:00004558       ?m_pGetParameter@UnDecorator@@0P6APEADJ@ZEA 0000000180165558     libvcruntime:undname.obj
 0003:00004560       ?m_CHPENameOffset@UnDecorator@@0KA 0000000180165560     libvcruntime:undname.obj
 0003:00004564       ?m_recursionLevel@UnDecorator@@0KA 0000000180165564     libvcruntime:undname.obj
 0003:00004690       ?c_exit_complete@?1???R<lambda_6e4b09c48022b2350581041d5f6b0c4c>@@QEBA@XZ@4_NA 0000000180165690     libucrt:exit.obj
 0003:000047a8       _environ_table             00000001801657a8     libucrt:environment_initialization.obj
 0003:000047b0       _wenviron_table            00000001801657b0     libucrt:environment_initialization.obj
 0003:000047b8       __dcrt_initial_wide_environment 00000001801657b8     libucrt:environment_initialization.obj
 0003:000047c0       __dcrt_initial_narrow_environment 00000001801657c0     libucrt:environment_initialization.obj
 0003:000047c8       __acrt_atexit_table        00000001801657c8     libucrt:onexit.obj
 0003:000047e0       __acrt_at_quick_exit_table 00000001801657e0     libucrt:onexit.obj
 0003:000047f8       __fma3_is_available        00000001801657f8     libucrt:fma3_available.obj
 0003:000047fc       __use_fma3_lib             00000001801657fc     libucrt:fma3_available.obj
 0003:00004a40       _mbctype                   0000000180165a40     libucrt:mbctype.obj
 0003:00004a48       _mbcasemap                 0000000180165a48     libucrt:mbctype.obj
 0003:00004a50       __acrt_current_multibyte_data 0000000180165a50     libucrt:mbctype.obj
 0003:00004a60       _pgmptr                    0000000180165a60     libucrt:argv_data.obj
 0003:00004a68       __argc                     0000000180165a68     libucrt:argv_data.obj
 0003:00004a70       __argv                     0000000180165a70     libucrt:argv_data.obj
 0003:00004a78       __wargv                    0000000180165a78     libucrt:argv_data.obj
 0003:00004a80       _acmdln                    0000000180165a80     libucrt:argv_data.obj
 0003:00004a88       _wcmdln                    0000000180165a88     libucrt:argv_data.obj
 0003:00004c20       __acrt_heap                0000000180165c20     libucrt:heap_handle.obj
 0003:00004c30       __pioinfo                  0000000180165c30     libucrt:ioinit.obj
 0003:00005030       _nhandle                   0000000180166030     libucrt:ioinit.obj
 0003:00005068       __acrt_current_locale_data 0000000180166068     libucrt:nlsdata.obj
 0003:00005070       _nstream                   0000000180166070     libucrt:_file.obj
 0003:00005078       __piob                     0000000180166078     libucrt:_file.obj
 0003:00005080       __acrt_stdout_buffer       0000000180166080     libucrt:_sftbuf.obj
 0003:00005088       __acrt_stderr_buffer       0000000180166088     libucrt:_sftbuf.obj
 0003:000050a0       __acrt_locale_changed_data 00000001801660a0     libucrt:wsetlocale.obj
 0003:000050a8       __acrt_lconv_static_null   00000001801660a8     libucrt:localeconv.obj
 0003:000050ac       __acrt_lconv_static_W_null 00000001801660ac     libucrt:localeconv.obj
 0003:00005630       __scrt_ucrt_dll_is_in_use  0000000180166630     <common>
 0003:00005638       __dyn_tls_init_callback    0000000180166638     <common>
 0005:00000100       __common_ssin_reduction_data 000000018016f100     LIBCMT:svml_s_sin_data.obj
 0005:00000d00       __common_ssin_data         000000018016fd00     LIBCMT:svml_s_sin_data.obj

 entry point at        0001:00118d48

 Static symbols

 0000:ffe8b000       .debug$S                   0000000180000000     PhysXCommon_64.exp
 0000:ffe8b000       .debug$S                   0000000180000000     kernel32:KERNEL32.dll
 0000:ffe8b000       .debug$S                   0000000180000000     kernel32:KERNEL32.dll
 0000:ffe8b000       .debug$S                   0000000180000000     kernel32:KERNEL32.dll
 0000:ffe8b000       .debug$S                   0000000180000000     kernel32:KERNEL32.dll
 0000:ffe8b000       .debug$S                   0000000180000000     kernel32:KERNEL32.dll
 0000:ffe8b000       .debug$S                   0000000180000000     kernel32:KERNEL32.dll
 0000:ffe8b000       .debug$S                   0000000180000000     kernel32:KERNEL32.dll
 0000:ffe8b000       .debug$S                   0000000180000000     kernel32:KERNEL32.dll
 0000:ffe8b000       .debug$S                   0000000180000000     kernel32:KERNEL32.dll
 0000:ffe8b000       .debug$S                   0000000180000000     kernel32:KERNEL32.dll
 0000:ffe8b000       .debug$S                   0000000180000000     kernel32:KERNEL32.dll
 0000:ffe8b000       .debug$S                   0000000180000000     kernel32:KERNEL32.dll
 0000:ffe8b000       .debug$S                   0000000180000000     kernel32:KERNEL32.dll
 0000:ffe8b000       .debug$S                   0000000180000000     kernel32:KERNEL32.dll
 0000:ffe8b000       .debug$S                   0000000180000000     kernel32:KERNEL32.dll
 0000:ffe8b000       .debug$S                   0000000180000000     kernel32:KERNEL32.dll
 0000:ffe8b000       .debug$S                   0000000180000000     kernel32:KERNEL32.dll
 0000:ffe8b000       .debug$S                   0000000180000000     kernel32:KERNEL32.dll
 0000:ffe8b000       .debug$S                   0000000180000000     kernel32:KERNEL32.dll
 0000:ffe8b000       .debug$S                   0000000180000000     kernel32:KERNEL32.dll
 0000:ffe8b000       .debug$S                   0000000180000000     kernel32:KERNEL32.dll
 0000:ffe8b000       .debug$S                   0000000180000000     kernel32:KERNEL32.dll
 0000:ffe8b000       .debug$S                   0000000180000000     kernel32:KERNEL32.dll
 0000:ffe8b000       .debug$S                   0000000180000000     kernel32:KERNEL32.dll
 0000:ffe8b000       .debug$S                   0000000180000000     kernel32:KERNEL32.dll
 0000:ffe8b000       .debug$S                   0000000180000000     kernel32:KERNEL32.dll
 0000:ffe8b000       .debug$S                   0000000180000000     kernel32:KERNEL32.dll
 0000:ffe8b000       .debug$S                   0000000180000000     kernel32:KERNEL32.dll
 0000:ffe8b000       .debug$S                   0000000180000000     kernel32:KERNEL32.dll
 0000:ffe8b000       .debug$S                   0000000180000000     kernel32:KERNEL32.dll
 0000:ffe8b000       .debug$S                   0000000180000000     kernel32:KERNEL32.dll
 0000:ffe8b000       .debug$S                   0000000180000000     kernel32:KERNEL32.dll
 0000:ffe8b000       .debug$S                   0000000180000000     kernel32:KERNEL32.dll
 0000:ffe8b000       .debug$S                   0000000180000000     kernel32:KERNEL32.dll
 0000:ffe8b000       .debug$S                   0000000180000000     kernel32:KERNEL32.dll
 0000:ffe8b000       .debug$S                   0000000180000000     kernel32:KERNEL32.dll
 0000:ffe8b000       .debug$S                   0000000180000000     kernel32:KERNEL32.dll
 0000:ffe8b000       .debug$S                   0000000180000000     kernel32:KERNEL32.dll
 0000:ffe8b000       .debug$S                   0000000180000000     kernel32:KERNEL32.dll
 0000:ffe8b000       .debug$S                   0000000180000000     kernel32:KERNEL32.dll
 0000:ffe8b000       .debug$S                   0000000180000000     kernel32:KERNEL32.dll
 0000:ffe8b000       .debug$S                   0000000180000000     kernel32:KERNEL32.dll
 0000:ffe8b000       .debug$S                   0000000180000000     kernel32:KERNEL32.dll
 0000:ffe8b000       .debug$S                   0000000180000000     kernel32:KERNEL32.dll
 0000:ffe8b000       .debug$S                   0000000180000000     kernel32:KERNEL32.dll
 0000:ffe8b000       .debug$S                   0000000180000000     kernel32:KERNEL32.dll
 0000:ffe8b000       .debug$S                   0000000180000000     kernel32:KERNEL32.dll
 0000:ffe8b000       .debug$S                   0000000180000000     kernel32:KERNEL32.dll
 0000:ffe8b000       .debug$S                   0000000180000000     kernel32:KERNEL32.dll
 0000:ffe8b000       .debug$S                   0000000180000000     kernel32:KERNEL32.dll
 0000:ffe8b000       .debug$S                   0000000180000000     kernel32:KERNEL32.dll
 0000:ffe8b000       .debug$S                   0000000180000000     kernel32:KERNEL32.dll
 0000:ffe8b000       .debug$S                   0000000180000000     kernel32:KERNEL32.dll
 0000:ffe8b000       .debug$S                   0000000180000000     kernel32:KERNEL32.dll
 0000:ffe8b000       .debug$S                   0000000180000000     kernel32:KERNEL32.dll
 0000:ffe8b000       .debug$S                   0000000180000000     kernel32:KERNEL32.dll
 0000:ffe8b000       .debug$S                   0000000180000000     kernel32:KERNEL32.dll
 0000:ffe8b000       .debug$S                   0000000180000000     kernel32:KERNEL32.dll
 0000:ffe8b000       .debug$S                   0000000180000000     kernel32:KERNEL32.dll
 0000:ffe8b000       .debug$S                   0000000180000000     kernel32:KERNEL32.dll
 0000:ffe8b000       .debug$S                   0000000180000000     kernel32:KERNEL32.dll
 0000:ffe8b000       .debug$S                   0000000180000000     kernel32:KERNEL32.dll
 0000:ffe8b000       .debug$S                   0000000180000000     kernel32:KERNEL32.dll
 0000:ffe8b000       .debug$S                   0000000180000000     kernel32:KERNEL32.dll
 0000:ffe8b000       .debug$S                   0000000180000000     kernel32:KERNEL32.dll
 0000:ffe8b000       .debug$S                   0000000180000000     kernel32:KERNEL32.dll
 0000:ffe8b000       .debug$S                   0000000180000000     kernel32:KERNEL32.dll
 0000:ffe8b000       .debug$S                   0000000180000000     kernel32:KERNEL32.dll
 0000:ffe8b000       .debug$S                   0000000180000000     kernel32:KERNEL32.dll
 0000:ffe8b000       .debug$S                   0000000180000000     kernel32:KERNEL32.dll
 0000:ffe8b000       .debug$S                   0000000180000000     kernel32:KERNEL32.dll
 0000:ffe8b000       .debug$S                   0000000180000000     kernel32:KERNEL32.dll
 0000:ffe8b000       .debug$S                   0000000180000000     kernel32:KERNEL32.dll
 0000:ffe8b000       .debug$S                   0000000180000000     kernel32:KERNEL32.dll
 0000:ffe8b000       .debug$S                   0000000180000000     kernel32:KERNEL32.dll
 0000:ffe8b000       .debug$S                   0000000180000000     kernel32:KERNEL32.dll
 0000:ffe8b000       .debug$S                   0000000180000000     kernel32:KERNEL32.dll
 0000:ffe8b000       .debug$S                   0000000180000000     kernel32:KERNEL32.dll
 0000:ffe8b000       .debug$S                   0000000180000000     kernel32:KERNEL32.dll
 0000:ffe8b000       .debug$S                   0000000180000000     kernel32:KERNEL32.dll
 0000:ffe8b000       .debug$S                   0000000180000000     kernel32:KERNEL32.dll
 0000:ffe8b000       .debug$S                   0000000180000000     kernel32:KERNEL32.dll
 0000:ffe8b000       .debug$S                   0000000180000000     kernel32:KERNEL32.dll
 0000:ffe8b000       .debug$S                   0000000180000000     kernel32:KERNEL32.dll
 0000:ffe8b000       .debug$S                   0000000180000000     kernel32:KERNEL32.dll
 0000:ffe8b000       .debug$S                   0000000180000000     kernel32:KERNEL32.dll
 0000:ffe8b000       .debug$S                   0000000180000000     kernel32:KERNEL32.dll
 0000:ffe8b000       .debug$S                   0000000180000000     kernel32:KERNEL32.dll
 0000:ffe8b000       .debug$S                   0000000180000000     kernel32:KERNEL32.dll
 0000:ffe8b000       .debug$S                   0000000180000000     kernel32:KERNEL32.dll
 0000:ffe8b000       .debug$S                   0000000180000000     kernel32:KERNEL32.dll
 0000:ffe8b000       .debug$S                   0000000180000000     kernel32:KERNEL32.dll
 0000:ffe8b000       .debug$S                   0000000180000000     kernel32:KERNEL32.dll
 0000:ffe8b000       .debug$S                   0000000180000000     PhysXFoundation_64:PhysXFoundation_64.dll
 0000:ffe8b000       .debug$S                   0000000180000000     PhysXFoundation_64:PhysXFoundation_64.dll
 0000:ffe8b000       .debug$S                   0000000180000000     PhysXFoundation_64:PhysXFoundation_64.dll
 0000:ffe8b000       .debug$S                   0000000180000000     PhysXFoundation_64:PhysXFoundation_64.dll
 0000:ffe8b000       .debug$S                   0000000180000000     PhysXFoundation_64:PhysXFoundation_64.dll
 0000:ffe8b000       .debug$S                   0000000180000000     PhysXFoundation_64:PhysXFoundation_64.dll
 0000:ffe8b000       .debug$S                   0000000180000000     PhysXFoundation_64:PhysXFoundation_64.dll
 0000:ffe8b000       .debug$S                   0000000180000000     PhysXFoundation_64:PhysXFoundation_64.dll
 0000:ffe8b000       .debug$S                   0000000180000000     PhysXFoundation_64:PhysXFoundation_64.dll
 0000:ffe8b000       .debug$S                   0000000180000000     PhysXFoundation_64:PhysXFoundation_64.dll
 0000:ffe8b000       .debug$S                   0000000180000000     PhysXFoundation_64:PhysXFoundation_64.dll
 0000:ffe8b000       .debug$S                   0000000180000000     PhysXFoundation_64:PhysXFoundation_64.dll
 0000:ffe8b000       .debug$S                   0000000180000000     PhysXFoundation_64:PhysXFoundation_64.dll
 0000:ffe8b000       .debug$S                   0000000180000000     PhysXFoundation_64:PhysXFoundation_64.dll
 0000:ffe8b000       .debug$S                   0000000180000000     PhysXFoundation_64:PhysXFoundation_64.dll
 0000:ffe8b000       .debug$S                   0000000180000000     PhysXFoundation_64:PhysXFoundation_64.dll
 0001:00000000       ??__EmaxFError@_VecMathTests@aos@shdfnd@physx@@YAXXZ 0000000180001000 f   GuBounds.obj
 0001:00000010       ??__EmaxV3Error@_VecMathTests@aos@shdfnd@physx@@YAXXZ 0000000180001010 f   GuBounds.obj
 0001:00000020       ??__EmaxV4Error@_VecMathTests@aos@shdfnd@physx@@YAXXZ 0000000180001020 f   GuBounds.obj
 0001:00000030       ??__EminFError@_VecMathTests@aos@shdfnd@physx@@YAXXZ 0000000180001030 f   GuBounds.obj
 0001:00000040       ??__EminV3Error@_VecMathTests@aos@shdfnd@physx@@YAXXZ 0000000180001040 f   GuBounds.obj
 0001:00000050       ??__EminV4Error@_VecMathTests@aos@shdfnd@physx@@YAXXZ 0000000180001050 f   GuBounds.obj
 0001:00000060       ??__EmaxFError@_VecMathTests@aos@shdfnd@physx@@YAXXZ 0000000180001060 f   GuBox.obj
 0001:00000070       ??__EmaxV3Error@_VecMathTests@aos@shdfnd@physx@@YAXXZ 0000000180001070 f   GuBox.obj
 0001:00000080       ??__EmaxV4Error@_VecMathTests@aos@shdfnd@physx@@YAXXZ 0000000180001080 f   GuBox.obj
 0001:00000090       ??__EminFError@_VecMathTests@aos@shdfnd@physx@@YAXXZ 0000000180001090 f   GuBox.obj
 0001:000000a0       ??__EminV3Error@_VecMathTests@aos@shdfnd@physx@@YAXXZ 00000001800010a0 f   GuBox.obj
 0001:000000b0       ??__EminV4Error@_VecMathTests@aos@shdfnd@physx@@YAXXZ 00000001800010b0 f   GuBox.obj
 0001:000000c0       ??__EmaxFError@_VecMathTests@aos@shdfnd@physx@@YAXXZ 00000001800010c0 f   GuCCTSweepTests.obj
 0001:000000d0       ??__EmaxV3Error@_VecMathTests@aos@shdfnd@physx@@YAXXZ 00000001800010d0 f   GuCCTSweepTests.obj
 0001:000000e0       ??__EmaxV4Error@_VecMathTests@aos@shdfnd@physx@@YAXXZ 00000001800010e0 f   GuCCTSweepTests.obj
 0001:000000f0       ??__EminFError@_VecMathTests@aos@shdfnd@physx@@YAXXZ 00000001800010f0 f   GuCCTSweepTests.obj
 0001:00000100       ??__EminV3Error@_VecMathTests@aos@shdfnd@physx@@YAXXZ 0000000180001100 f   GuCCTSweepTests.obj
 0001:00000110       ??__EminV4Error@_VecMathTests@aos@shdfnd@physx@@YAXXZ 0000000180001110 f   GuCCTSweepTests.obj
 0001:00000120       ??__EmaxFError@_VecMathTests@aos@shdfnd@physx@@YAXXZ 0000000180001120 f   GuGeometryQuery.obj
 0001:00000130       ??__EmaxV3Error@_VecMathTests@aos@shdfnd@physx@@YAXXZ 0000000180001130 f   GuGeometryQuery.obj
 0001:00000140       ??__EmaxV4Error@_VecMathTests@aos@shdfnd@physx@@YAXXZ 0000000180001140 f   GuGeometryQuery.obj
 0001:00000150       ??__EminFError@_VecMathTests@aos@shdfnd@physx@@YAXXZ 0000000180001150 f   GuGeometryQuery.obj
 0001:00000160       ??__EminV3Error@_VecMathTests@aos@shdfnd@physx@@YAXXZ 0000000180001160 f   GuGeometryQuery.obj
 0001:00000170       ??__EminV4Error@_VecMathTests@aos@shdfnd@physx@@YAXXZ 0000000180001170 f   GuGeometryQuery.obj
 0001:00000180       ??__EmaxFError@_VecMathTests@aos@shdfnd@physx@@YAXXZ 0000000180001180 f   GuGeometryUnion.obj
 0001:00000190       ??__EmaxV3Error@_VecMathTests@aos@shdfnd@physx@@YAXXZ 0000000180001190 f   GuGeometryUnion.obj
 0001:000001a0       ??__EmaxV4Error@_VecMathTests@aos@shdfnd@physx@@YAXXZ 00000001800011a0 f   GuGeometryUnion.obj
 0001:000001b0       ??__EminFError@_VecMathTests@aos@shdfnd@physx@@YAXXZ 00000001800011b0 f   GuGeometryUnion.obj
 0001:000001c0       ??__EminV3Error@_VecMathTests@aos@shdfnd@physx@@YAXXZ 00000001800011c0 f   GuGeometryUnion.obj
 0001:000001d0       ??__EminV4Error@_VecMathTests@aos@shdfnd@physx@@YAXXZ 00000001800011d0 f   GuGeometryUnion.obj
 0001:000001e0       ??__EmaxFError@_VecMathTests@aos@shdfnd@physx@@YAXXZ 00000001800011e0 f   GuInternal.obj
 0001:000001f0       ??__EmaxV3Error@_VecMathTests@aos@shdfnd@physx@@YAXXZ 00000001800011f0 f   GuInternal.obj
 0001:00000200       ??__EmaxV4Error@_VecMathTests@aos@shdfnd@physx@@YAXXZ 0000000180001200 f   GuInternal.obj
 0001:00000210       ??__EminFError@_VecMathTests@aos@shdfnd@physx@@YAXXZ 0000000180001210 f   GuInternal.obj
 0001:00000220       ??__EminV3Error@_VecMathTests@aos@shdfnd@physx@@YAXXZ 0000000180001220 f   GuInternal.obj
 0001:00000230       ??__EminV4Error@_VecMathTests@aos@shdfnd@physx@@YAXXZ 0000000180001230 f   GuInternal.obj
 0001:00000240       ??__EmaxFError@_VecMathTests@aos@shdfnd@physx@@YAXXZ 0000000180001240 f   GuMeshFactory.obj
 0001:00000250       ??__EmaxV3Error@_VecMathTests@aos@shdfnd@physx@@YAXXZ 0000000180001250 f   GuMeshFactory.obj
 0001:00000260       ??__EmaxV4Error@_VecMathTests@aos@shdfnd@physx@@YAXXZ 0000000180001260 f   GuMeshFactory.obj
 0001:00000270       ??__EminFError@_VecMathTests@aos@shdfnd@physx@@YAXXZ 0000000180001270 f   GuMeshFactory.obj
 0001:00000280       ??__EminV3Error@_VecMathTests@aos@shdfnd@physx@@YAXXZ 0000000180001280 f   GuMeshFactory.obj
 0001:00000290       ??__EminV4Error@_VecMathTests@aos@shdfnd@physx@@YAXXZ 0000000180001290 f   GuMeshFactory.obj
 0001:000002a0       ??__EmaxFError@_VecMathTests@aos@shdfnd@physx@@YAXXZ 00000001800012a0 f   GuMetaData.obj
 0001:000002b0       ??__EmaxV3Error@_VecMathTests@aos@shdfnd@physx@@YAXXZ 00000001800012b0 f   GuMetaData.obj
 0001:000002c0       ??__EmaxV4Error@_VecMathTests@aos@shdfnd@physx@@YAXXZ 00000001800012c0 f   GuMetaData.obj
 0001:000002d0       ??__EminFError@_VecMathTests@aos@shdfnd@physx@@YAXXZ 00000001800012d0 f   GuMetaData.obj
 0001:000002e0       ??__EminV3Error@_VecMathTests@aos@shdfnd@physx@@YAXXZ 00000001800012e0 f   GuMetaData.obj
 0001:000002f0       ??__EminV4Error@_VecMathTests@aos@shdfnd@physx@@YAXXZ 00000001800012f0 f   GuMetaData.obj
 0001:00000300       ??__EmaxFError@_VecMathTests@aos@shdfnd@physx@@YAXXZ 0000000180001300 f   GuMTD.obj
 0001:00000310       ??__EmaxV3Error@_VecMathTests@aos@shdfnd@physx@@YAXXZ 0000000180001310 f   GuMTD.obj
 0001:00000320       ??__EmaxV4Error@_VecMathTests@aos@shdfnd@physx@@YAXXZ 0000000180001320 f   GuMTD.obj
 0001:00000330       ??__EminFError@_VecMathTests@aos@shdfnd@physx@@YAXXZ 0000000180001330 f   GuMTD.obj
 0001:00000340       ??__EminV3Error@_VecMathTests@aos@shdfnd@physx@@YAXXZ 0000000180001340 f   GuMTD.obj
 0001:00000350       ??__EminV4Error@_VecMathTests@aos@shdfnd@physx@@YAXXZ 0000000180001350 f   GuMTD.obj
 0001:00000360       ??__EmaxFError@_VecMathTests@aos@shdfnd@physx@@YAXXZ 0000000180001360 f   GuOverlapTests.obj
 0001:00000370       ??__EmaxV3Error@_VecMathTests@aos@shdfnd@physx@@YAXXZ 0000000180001370 f   GuOverlapTests.obj
 0001:00000380       ??__EmaxV4Error@_VecMathTests@aos@shdfnd@physx@@YAXXZ 0000000180001380 f   GuOverlapTests.obj
 0001:00000390       ??__EminFError@_VecMathTests@aos@shdfnd@physx@@YAXXZ 0000000180001390 f   GuOverlapTests.obj
 0001:000003a0       ??__EminV3Error@_VecMathTests@aos@shdfnd@physx@@YAXXZ 00000001800013a0 f   GuOverlapTests.obj
 0001:000003b0       ??__EminV4Error@_VecMathTests@aos@shdfnd@physx@@YAXXZ 00000001800013b0 f   GuOverlapTests.obj
 0001:000003c0       ??__EmaxFError@_VecMathTests@aos@shdfnd@physx@@YAXXZ 00000001800013c0 f   GuRaycastTests.obj
 0001:000003d0       ??__EmaxV3Error@_VecMathTests@aos@shdfnd@physx@@YAXXZ 00000001800013d0 f   GuRaycastTests.obj
 0001:000003e0       ??__EmaxV4Error@_VecMathTests@aos@shdfnd@physx@@YAXXZ 00000001800013e0 f   GuRaycastTests.obj
 0001:000003f0       ??__EminFError@_VecMathTests@aos@shdfnd@physx@@YAXXZ 00000001800013f0 f   GuRaycastTests.obj
 0001:00000400       ??__EminV3Error@_VecMathTests@aos@shdfnd@physx@@YAXXZ 0000000180001400 f   GuRaycastTests.obj
 0001:00000410       ??__EminV4Error@_VecMathTests@aos@shdfnd@physx@@YAXXZ 0000000180001410 f   GuRaycastTests.obj
 0001:00000420       ??__EmaxFError@_VecMathTests@aos@shdfnd@physx@@YAXXZ 0000000180001420 f   GuSweepMTD.obj
 0001:00000430       ??__EmaxV3Error@_VecMathTests@aos@shdfnd@physx@@YAXXZ 0000000180001430 f   GuSweepMTD.obj
 0001:00000440       ??__EmaxV4Error@_VecMathTests@aos@shdfnd@physx@@YAXXZ 0000000180001440 f   GuSweepMTD.obj
 0001:00000450       ??__EminFError@_VecMathTests@aos@shdfnd@physx@@YAXXZ 0000000180001450 f   GuSweepMTD.obj
 0001:00000460       ??__EminV3Error@_VecMathTests@aos@shdfnd@physx@@YAXXZ 0000000180001460 f   GuSweepMTD.obj
 0001:00000470       ??__EminV4Error@_VecMathTests@aos@shdfnd@physx@@YAXXZ 0000000180001470 f   GuSweepMTD.obj
 0001:00000480       ??__EmaxFError@_VecMathTests@aos@shdfnd@physx@@YAXXZ 0000000180001480 f   GuSweepSharedTests.obj
 0001:00000490       ??__EmaxV3Error@_VecMathTests@aos@shdfnd@physx@@YAXXZ 0000000180001490 f   GuSweepSharedTests.obj
 0001:000004a0       ??__EmaxV4Error@_VecMathTests@aos@shdfnd@physx@@YAXXZ 00000001800014a0 f   GuSweepSharedTests.obj
 0001:000004b0       ??__EminFError@_VecMathTests@aos@shdfnd@physx@@YAXXZ 00000001800014b0 f   GuSweepSharedTests.obj
 0001:000004c0       ??__EminV3Error@_VecMathTests@aos@shdfnd@physx@@YAXXZ 00000001800014c0 f   GuSweepSharedTests.obj
 0001:000004d0       ??__EminV4Error@_VecMathTests@aos@shdfnd@physx@@YAXXZ 00000001800014d0 f   GuSweepSharedTests.obj
 0001:000004e0       ??__EmaxFError@_VecMathTests@aos@shdfnd@physx@@YAXXZ 00000001800014e0 f   GuSweepTests.obj
 0001:000004f0       ??__EmaxV3Error@_VecMathTests@aos@shdfnd@physx@@YAXXZ 00000001800014f0 f   GuSweepTests.obj
 0001:00000500       ??__EmaxV4Error@_VecMathTests@aos@shdfnd@physx@@YAXXZ 0000000180001500 f   GuSweepTests.obj
 0001:00000510       ??__EminFError@_VecMathTests@aos@shdfnd@physx@@YAXXZ 0000000180001510 f   GuSweepTests.obj
 0001:00000520       ??__EminV3Error@_VecMathTests@aos@shdfnd@physx@@YAXXZ 0000000180001520 f   GuSweepTests.obj
 0001:00000530       ??__EminV4Error@_VecMathTests@aos@shdfnd@physx@@YAXXZ 0000000180001530 f   GuSweepTests.obj
 0001:00000540       ??__EmaxFError@_VecMathTests@aos@shdfnd@physx@@YAXXZ 0000000180001540 f   GuAABBTreeBuild.obj
 0001:00000550       ??__EmaxV3Error@_VecMathTests@aos@shdfnd@physx@@YAXXZ 0000000180001550 f   GuAABBTreeBuild.obj
 0001:00000560       ??__EmaxV4Error@_VecMathTests@aos@shdfnd@physx@@YAXXZ 0000000180001560 f   GuAABBTreeBuild.obj
 0001:00000570       ??__EminFError@_VecMathTests@aos@shdfnd@physx@@YAXXZ 0000000180001570 f   GuAABBTreeBuild.obj
 0001:00000580       ??__EminV3Error@_VecMathTests@aos@shdfnd@physx@@YAXXZ 0000000180001580 f   GuAABBTreeBuild.obj
 0001:00000590       ??__EminV4Error@_VecMathTests@aos@shdfnd@physx@@YAXXZ 0000000180001590 f   GuAABBTreeBuild.obj
 0001:000005a0       ??__EmaxFError@_VecMathTests@aos@shdfnd@physx@@YAXXZ 00000001800015a0 f   GuBVHStructure.obj
 0001:000005b0       ??__EmaxV3Error@_VecMathTests@aos@shdfnd@physx@@YAXXZ 00000001800015b0 f   GuBVHStructure.obj
 0001:000005c0       ??__EmaxV4Error@_VecMathTests@aos@shdfnd@physx@@YAXXZ 00000001800015c0 f   GuBVHStructure.obj
 0001:000005d0       ??__EminFError@_VecMathTests@aos@shdfnd@physx@@YAXXZ 00000001800015d0 f   GuBVHStructure.obj
 0001:000005e0       ??__EminV3Error@_VecMathTests@aos@shdfnd@physx@@YAXXZ 00000001800015e0 f   GuBVHStructure.obj
 0001:000005f0       ??__EminV4Error@_VecMathTests@aos@shdfnd@physx@@YAXXZ 00000001800015f0 f   GuBVHStructure.obj
 0001:00000600       ??__EmaxFError@_VecMathTests@aos@shdfnd@physx@@YAXXZ 0000000180001600 f   GuCCDSweepConvexMesh.obj
 0001:00000610       ??__EmaxV3Error@_VecMathTests@aos@shdfnd@physx@@YAXXZ 0000000180001610 f   GuCCDSweepConvexMesh.obj
 0001:00000620       ??__EmaxV4Error@_VecMathTests@aos@shdfnd@physx@@YAXXZ 0000000180001620 f   GuCCDSweepConvexMesh.obj
 0001:00000630       ??__EminFError@_VecMathTests@aos@shdfnd@physx@@YAXXZ 0000000180001630 f   GuCCDSweepConvexMesh.obj
 0001:00000640       ??__EminV3Error@_VecMathTests@aos@shdfnd@physx@@YAXXZ 0000000180001640 f   GuCCDSweepConvexMesh.obj
 0001:00000650       ??__EminV4Error@_VecMathTests@aos@shdfnd@physx@@YAXXZ 0000000180001650 f   GuCCDSweepConvexMesh.obj
 0001:00000660       ??__EmaxFError@_VecMathTests@aos@shdfnd@physx@@YAXXZ 0000000180001660 f   GuCCDSweepPrimitives.obj
 0001:00000670       ??__EmaxV3Error@_VecMathTests@aos@shdfnd@physx@@YAXXZ 0000000180001670 f   GuCCDSweepPrimitives.obj
 0001:00000680       ??__EmaxV4Error@_VecMathTests@aos@shdfnd@physx@@YAXXZ 0000000180001680 f   GuCCDSweepPrimitives.obj
 0001:00000690       ??__EminFError@_VecMathTests@aos@shdfnd@physx@@YAXXZ 0000000180001690 f   GuCCDSweepPrimitives.obj
 0001:000006a0       ??__EminV3Error@_VecMathTests@aos@shdfnd@physx@@YAXXZ 00000001800016a0 f   GuCCDSweepPrimitives.obj
 0001:000006b0       ??__EminV4Error@_VecMathTests@aos@shdfnd@physx@@YAXXZ 00000001800016b0 f   GuCCDSweepPrimitives.obj
 0001:000006c0       ??__EmaxFError@_VecMathTests@aos@shdfnd@physx@@YAXXZ 00000001800016c0 f   GuBarycentricCoordinates.obj
 0001:000006d0       ??__EmaxV3Error@_VecMathTests@aos@shdfnd@physx@@YAXXZ 00000001800016d0 f   GuBarycentricCoordinates.obj
 0001:000006e0       ??__EmaxV4Error@_VecMathTests@aos@shdfnd@physx@@YAXXZ 00000001800016e0 f   GuBarycentricCoordinates.obj
 0001:000006f0       ??__EminFError@_VecMathTests@aos@shdfnd@physx@@YAXXZ 00000001800016f0 f   GuBarycentricCoordinates.obj
 0001:00000700       ??__EminV3Error@_VecMathTests@aos@shdfnd@physx@@YAXXZ 0000000180001700 f   GuBarycentricCoordinates.obj
 0001:00000710       ??__EminV4Error@_VecMathTests@aos@shdfnd@physx@@YAXXZ 0000000180001710 f   GuBarycentricCoordinates.obj
 0001:00000720       ??__EmaxFError@_VecMathTests@aos@shdfnd@physx@@YAXXZ 0000000180001720 f   GuContactBoxBox.obj
 0001:00000730       ??__EmaxV3Error@_VecMathTests@aos@shdfnd@physx@@YAXXZ 0000000180001730 f   GuContactBoxBox.obj
 0001:00000740       ??__EmaxV4Error@_VecMathTests@aos@shdfnd@physx@@YAXXZ 0000000180001740 f   GuContactBoxBox.obj
 0001:00000750       ??__EminFError@_VecMathTests@aos@shdfnd@physx@@YAXXZ 0000000180001750 f   GuContactBoxBox.obj
 0001:00000760       ??__EminV3Error@_VecMathTests@aos@shdfnd@physx@@YAXXZ 0000000180001760 f   GuContactBoxBox.obj
 0001:00000770       ??__EminV4Error@_VecMathTests@aos@shdfnd@physx@@YAXXZ 0000000180001770 f   GuContactBoxBox.obj
 0001:00000780       ??__EmaxFError@_VecMathTests@aos@shdfnd@physx@@YAXXZ 0000000180001780 f   GuContactCapsuleBox.obj
 0001:00000790       ??__EmaxV3Error@_VecMathTests@aos@shdfnd@physx@@YAXXZ 0000000180001790 f   GuContactCapsuleBox.obj
 0001:000007a0       ??__EmaxV4Error@_VecMathTests@aos@shdfnd@physx@@YAXXZ 00000001800017a0 f   GuContactCapsuleBox.obj
 0001:000007b0       ??__EminFError@_VecMathTests@aos@shdfnd@physx@@YAXXZ 00000001800017b0 f   GuContactCapsuleBox.obj
 0001:000007c0       ??__EminV3Error@_VecMathTests@aos@shdfnd@physx@@YAXXZ 00000001800017c0 f   GuContactCapsuleBox.obj
 0001:000007d0       ??__EminV4Error@_VecMathTests@aos@shdfnd@physx@@YAXXZ 00000001800017d0 f   GuContactCapsuleBox.obj
 0001:000007e0       ??__EmaxFError@_VecMathTests@aos@shdfnd@physx@@YAXXZ 00000001800017e0 f   GuContactCapsuleCapsule.obj
 0001:000007f0       ??__EmaxV3Error@_VecMathTests@aos@shdfnd@physx@@YAXXZ 00000001800017f0 f   GuContactCapsuleCapsule.obj
 0001:00000800       ??__EmaxV4Error@_VecMathTests@aos@shdfnd@physx@@YAXXZ 0000000180001800 f   GuContactCapsuleCapsule.obj
 0001:00000810       ??__EminFError@_VecMathTests@aos@shdfnd@physx@@YAXXZ 0000000180001810 f   GuContactCapsuleCapsule.obj
 0001:00000820       ??__EminV3Error@_VecMathTests@aos@shdfnd@physx@@YAXXZ 0000000180001820 f   GuContactCapsuleCapsule.obj
 0001:00000830       ??__EminV4Error@_VecMathTests@aos@shdfnd@physx@@YAXXZ 0000000180001830 f   GuContactCapsuleCapsule.obj
 0001:00000840       ??__EmaxFError@_VecMathTests@aos@shdfnd@physx@@YAXXZ 0000000180001840 f   GuContactCapsuleConvex.obj
 0001:00000850       ??__EmaxV3Error@_VecMathTests@aos@shdfnd@physx@@YAXXZ 0000000180001850 f   GuContactCapsuleConvex.obj
 0001:00000860       ??__EmaxV4Error@_VecMathTests@aos@shdfnd@physx@@YAXXZ 0000000180001860 f   GuContactCapsuleConvex.obj
 0001:00000870       ??__EminFError@_VecMathTests@aos@shdfnd@physx@@YAXXZ 0000000180001870 f   GuContactCapsuleConvex.obj
 0001:00000880       ??__EminV3Error@_VecMathTests@aos@shdfnd@physx@@YAXXZ 0000000180001880 f   GuContactCapsuleConvex.obj
 0001:00000890       ??__EminV4Error@_VecMathTests@aos@shdfnd@physx@@YAXXZ 0000000180001890 f   GuContactCapsuleConvex.obj
 0001:000008a0       ??__EmaxFError@_VecMathTests@aos@shdfnd@physx@@YAXXZ 00000001800018a0 f   GuContactCapsuleMesh.obj
 0001:000008b0       ??__EmaxV3Error@_VecMathTests@aos@shdfnd@physx@@YAXXZ 00000001800018b0 f   GuContactCapsuleMesh.obj
 0001:000008c0       ??__EmaxV4Error@_VecMathTests@aos@shdfnd@physx@@YAXXZ 00000001800018c0 f   GuContactCapsuleMesh.obj
 0001:000008d0       ??__EminFError@_VecMathTests@aos@shdfnd@physx@@YAXXZ 00000001800018d0 f   GuContactCapsuleMesh.obj
 0001:000008e0       ??__EminV3Error@_VecMathTests@aos@shdfnd@physx@@YAXXZ 00000001800018e0 f   GuContactCapsuleMesh.obj
 0001:000008f0       ??__EminV4Error@_VecMathTests@aos@shdfnd@physx@@YAXXZ 00000001800018f0 f   GuContactCapsuleMesh.obj
 0001:00000900       ??__EmaxFError@_VecMathTests@aos@shdfnd@physx@@YAXXZ 0000000180001900 f   GuContactConvexConvex.obj
 0001:00000910       ??__EmaxV3Error@_VecMathTests@aos@shdfnd@physx@@YAXXZ 0000000180001910 f   GuContactConvexConvex.obj
 0001:00000920       ??__EmaxV4Error@_VecMathTests@aos@shdfnd@physx@@YAXXZ 0000000180001920 f   GuContactConvexConvex.obj
 0001:00000930       ??__EminFError@_VecMathTests@aos@shdfnd@physx@@YAXXZ 0000000180001930 f   GuContactConvexConvex.obj
 0001:00000940       ??__EminV3Error@_VecMathTests@aos@shdfnd@physx@@YAXXZ 0000000180001940 f   GuContactConvexConvex.obj
 0001:00000950       ??__EminV4Error@_VecMathTests@aos@shdfnd@physx@@YAXXZ 0000000180001950 f   GuContactConvexConvex.obj
 0001:00000960       ??__EmaxFError@_VecMathTests@aos@shdfnd@physx@@YAXXZ 0000000180001960 f   GuContactConvexMesh.obj
 0001:00000970       ??__EmaxV3Error@_VecMathTests@aos@shdfnd@physx@@YAXXZ 0000000180001970 f   GuContactConvexMesh.obj
 0001:00000980       ??__EmaxV4Error@_VecMathTests@aos@shdfnd@physx@@YAXXZ 0000000180001980 f   GuContactConvexMesh.obj
 0001:00000990       ??__EminFError@_VecMathTests@aos@shdfnd@physx@@YAXXZ 0000000180001990 f   GuContactConvexMesh.obj
 0001:000009a0       ??__EminV3Error@_VecMathTests@aos@shdfnd@physx@@YAXXZ 00000001800019a0 f   GuContactConvexMesh.obj
 0001:000009b0       ??__EminV4Error@_VecMathTests@aos@shdfnd@physx@@YAXXZ 00000001800019b0 f   GuContactConvexMesh.obj
 0001:000009c0       ??__EmaxFError@_VecMathTests@aos@shdfnd@physx@@YAXXZ 00000001800019c0 f   GuContactPlaneBox.obj
 0001:000009d0       ??__EmaxV3Error@_VecMathTests@aos@shdfnd@physx@@YAXXZ 00000001800019d0 f   GuContactPlaneBox.obj
 0001:000009e0       ??__EmaxV4Error@_VecMathTests@aos@shdfnd@physx@@YAXXZ 00000001800019e0 f   GuContactPlaneBox.obj
 0001:000009f0       ??__EminFError@_VecMathTests@aos@shdfnd@physx@@YAXXZ 00000001800019f0 f   GuContactPlaneBox.obj
 0001:00000a00       ??__EminV3Error@_VecMathTests@aos@shdfnd@physx@@YAXXZ 0000000180001a00 f   GuContactPlaneBox.obj
 0001:00000a10       ??__EminV4Error@_VecMathTests@aos@shdfnd@physx@@YAXXZ 0000000180001a10 f   GuContactPlaneBox.obj
 0001:00000a20       ??__EmaxFError@_VecMathTests@aos@shdfnd@physx@@YAXXZ 0000000180001a20 f   GuContactPlaneCapsule.obj
 0001:00000a30       ??__EmaxV3Error@_VecMathTests@aos@shdfnd@physx@@YAXXZ 0000000180001a30 f   GuContactPlaneCapsule.obj
 0001:00000a40       ??__EmaxV4Error@_VecMathTests@aos@shdfnd@physx@@YAXXZ 0000000180001a40 f   GuContactPlaneCapsule.obj
 0001:00000a50       ??__EminFError@_VecMathTests@aos@shdfnd@physx@@YAXXZ 0000000180001a50 f   GuContactPlaneCapsule.obj
 0001:00000a60       ??__EminV3Error@_VecMathTests@aos@shdfnd@physx@@YAXXZ 0000000180001a60 f   GuContactPlaneCapsule.obj
 0001:00000a70       ??__EminV4Error@_VecMathTests@aos@shdfnd@physx@@YAXXZ 0000000180001a70 f   GuContactPlaneCapsule.obj
 0001:00000a80       ??__EmaxFError@_VecMathTests@aos@shdfnd@physx@@YAXXZ 0000000180001a80 f   GuContactPlaneConvex.obj
 0001:00000a90       ??__EmaxV3Error@_VecMathTests@aos@shdfnd@physx@@YAXXZ 0000000180001a90 f   GuContactPlaneConvex.obj
 0001:00000aa0       ??__EmaxV4Error@_VecMathTests@aos@shdfnd@physx@@YAXXZ 0000000180001aa0 f   GuContactPlaneConvex.obj
 0001:00000ab0       ??__EminFError@_VecMathTests@aos@shdfnd@physx@@YAXXZ 0000000180001ab0 f   GuContactPlaneConvex.obj
 0001:00000ac0       ??__EminV3Error@_VecMathTests@aos@shdfnd@physx@@YAXXZ 0000000180001ac0 f   GuContactPlaneConvex.obj
 0001:00000ad0       ??__EminV4Error@_VecMathTests@aos@shdfnd@physx@@YAXXZ 0000000180001ad0 f   GuContactPlaneConvex.obj
 0001:00000ae0       ??__EmaxFError@_VecMathTests@aos@shdfnd@physx@@YAXXZ 0000000180001ae0 f   GuContactSphereBox.obj
 0001:00000af0       ??__EmaxV3Error@_VecMathTests@aos@shdfnd@physx@@YAXXZ 0000000180001af0 f   GuContactSphereBox.obj
 0001:00000b00       ??__EmaxV4Error@_VecMathTests@aos@shdfnd@physx@@YAXXZ 0000000180001b00 f   GuContactSphereBox.obj
 0001:00000b10       ??__EminFError@_VecMathTests@aos@shdfnd@physx@@YAXXZ 0000000180001b10 f   GuContactSphereBox.obj
 0001:00000b20       ??__EminV3Error@_VecMathTests@aos@shdfnd@physx@@YAXXZ 0000000180001b20 f   GuContactSphereBox.obj
 0001:00000b30       ??__EminV4Error@_VecMathTests@aos@shdfnd@physx@@YAXXZ 0000000180001b30 f   GuContactSphereBox.obj
 0001:00000b40       ??__EmaxFError@_VecMathTests@aos@shdfnd@physx@@YAXXZ 0000000180001b40 f   GuContactSphereCapsule.obj
 0001:00000b50       ??__EmaxV3Error@_VecMathTests@aos@shdfnd@physx@@YAXXZ 0000000180001b50 f   GuContactSphereCapsule.obj
 0001:00000b60       ??__EmaxV4Error@_VecMathTests@aos@shdfnd@physx@@YAXXZ 0000000180001b60 f   GuContactSphereCapsule.obj
 0001:00000b70       ??__EminFError@_VecMathTests@aos@shdfnd@physx@@YAXXZ 0000000180001b70 f   GuContactSphereCapsule.obj
 0001:00000b80       ??__EminV3Error@_VecMathTests@aos@shdfnd@physx@@YAXXZ 0000000180001b80 f   GuContactSphereCapsule.obj
 0001:00000b90       ??__EminV4Error@_VecMathTests@aos@shdfnd@physx@@YAXXZ 0000000180001b90 f   GuContactSphereCapsule.obj
 0001:00000ba0       ??__EmaxFError@_VecMathTests@aos@shdfnd@physx@@YAXXZ 0000000180001ba0 f   GuContactSphereMesh.obj
 0001:00000bb0       ??__EmaxV3Error@_VecMathTests@aos@shdfnd@physx@@YAXXZ 0000000180001bb0 f   GuContactSphereMesh.obj
 0001:00000bc0       ??__EmaxV4Error@_VecMathTests@aos@shdfnd@physx@@YAXXZ 0000000180001bc0 f   GuContactSphereMesh.obj
 0001:00000bd0       ??__EminFError@_VecMathTests@aos@shdfnd@physx@@YAXXZ 0000000180001bd0 f   GuContactSphereMesh.obj
 0001:00000be0       ??__EminV3Error@_VecMathTests@aos@shdfnd@physx@@YAXXZ 0000000180001be0 f   GuContactSphereMesh.obj
 0001:00000bf0       ??__EminV4Error@_VecMathTests@aos@shdfnd@physx@@YAXXZ 0000000180001bf0 f   GuContactSphereMesh.obj
 0001:00000c00       ??__EmaxFError@_VecMathTests@aos@shdfnd@physx@@YAXXZ 0000000180001c00 f   GuContactSpherePlane.obj
 0001:00000c10       ??__EmaxV3Error@_VecMathTests@aos@shdfnd@physx@@YAXXZ 0000000180001c10 f   GuContactSpherePlane.obj
 0001:00000c20       ??__EmaxV4Error@_VecMathTests@aos@shdfnd@physx@@YAXXZ 0000000180001c20 f   GuContactSpherePlane.obj
 0001:00000c30       ??__EminFError@_VecMathTests@aos@shdfnd@physx@@YAXXZ 0000000180001c30 f   GuContactSpherePlane.obj
 0001:00000c40       ??__EminV3Error@_VecMathTests@aos@shdfnd@physx@@YAXXZ 0000000180001c40 f   GuContactSpherePlane.obj
 0001:00000c50       ??__EminV4Error@_VecMathTests@aos@shdfnd@physx@@YAXXZ 0000000180001c50 f   GuContactSpherePlane.obj
 0001:00000c60       ??__EmaxFError@_VecMathTests@aos@shdfnd@physx@@YAXXZ 0000000180001c60 f   GuContactSphereSphere.obj
 0001:00000c70       ??__EmaxV3Error@_VecMathTests@aos@shdfnd@physx@@YAXXZ 0000000180001c70 f   GuContactSphereSphere.obj
 0001:00000c80       ??__EmaxV4Error@_VecMathTests@aos@shdfnd@physx@@YAXXZ 0000000180001c80 f   GuContactSphereSphere.obj
 0001:00000c90       ??__EminFError@_VecMathTests@aos@shdfnd@physx@@YAXXZ 0000000180001c90 f   GuContactSphereSphere.obj
 0001:00000ca0       ??__EminV3Error@_VecMathTests@aos@shdfnd@physx@@YAXXZ 0000000180001ca0 f   GuContactSphereSphere.obj
 0001:00000cb0       ??__EminV4Error@_VecMathTests@aos@shdfnd@physx@@YAXXZ 0000000180001cb0 f   GuContactSphereSphere.obj
 0001:00000cc0       ??__EmaxFError@_VecMathTests@aos@shdfnd@physx@@YAXXZ 0000000180001cc0 f   GuConvexHelper.obj
 0001:00000cd0       ??__EmaxV3Error@_VecMathTests@aos@shdfnd@physx@@YAXXZ 0000000180001cd0 f   GuConvexHelper.obj
 0001:00000ce0       ??__EmaxV4Error@_VecMathTests@aos@shdfnd@physx@@YAXXZ 0000000180001ce0 f   GuConvexHelper.obj
 0001:00000cf0       ??__EminFError@_VecMathTests@aos@shdfnd@physx@@YAXXZ 0000000180001cf0 f   GuConvexHelper.obj
 0001:00000d00       ??__EminV3Error@_VecMathTests@aos@shdfnd@physx@@YAXXZ 0000000180001d00 f   GuConvexHelper.obj
 0001:00000d10       ??__EminV4Error@_VecMathTests@aos@shdfnd@physx@@YAXXZ 0000000180001d10 f   GuConvexHelper.obj
 0001:00000d20       ??__EboxVertexTable@physx@@YAXXZ 0000000180001d20 f   GuConvexSupportTable.obj
 0001:00000da0       ??__EmaxFError@_VecMathTests@aos@shdfnd@physx@@YAXXZ 0000000180001da0 f   GuConvexSupportTable.obj
 0001:00000db0       ??__EmaxV3Error@_VecMathTests@aos@shdfnd@physx@@YAXXZ 0000000180001db0 f   GuConvexSupportTable.obj
 0001:00000dc0       ??__EmaxV4Error@_VecMathTests@aos@shdfnd@physx@@YAXXZ 0000000180001dc0 f   GuConvexSupportTable.obj
 0001:00000dd0       ??__EminFError@_VecMathTests@aos@shdfnd@physx@@YAXXZ 0000000180001dd0 f   GuConvexSupportTable.obj
 0001:00000de0       ??__EminV3Error@_VecMathTests@aos@shdfnd@physx@@YAXXZ 0000000180001de0 f   GuConvexSupportTable.obj
 0001:00000df0       ??__EminV4Error@_VecMathTests@aos@shdfnd@physx@@YAXXZ 0000000180001df0 f   GuConvexSupportTable.obj
 0001:00000e00       ??__EmaxFError@_VecMathTests@aos@shdfnd@physx@@YAXXZ 0000000180001e00 f   GuConvexUtilsInternal.obj
 0001:00000e10       ??__EmaxV3Error@_VecMathTests@aos@shdfnd@physx@@YAXXZ 0000000180001e10 f   GuConvexUtilsInternal.obj
 0001:00000e20       ??__EmaxV4Error@_VecMathTests@aos@shdfnd@physx@@YAXXZ 0000000180001e20 f   GuConvexUtilsInternal.obj
 0001:00000e30       ??__EminFError@_VecMathTests@aos@shdfnd@physx@@YAXXZ 0000000180001e30 f   GuConvexUtilsInternal.obj
 0001:00000e40       ??__EminV3Error@_VecMathTests@aos@shdfnd@physx@@YAXXZ 0000000180001e40 f   GuConvexUtilsInternal.obj
 0001:00000e50       ??__EminV4Error@_VecMathTests@aos@shdfnd@physx@@YAXXZ 0000000180001e50 f   GuConvexUtilsInternal.obj
 0001:00000e60       ??__EmaxFError@_VecMathTests@aos@shdfnd@physx@@YAXXZ 0000000180001e60 f   GuDistancePointTriangle.obj
 0001:00000e70       ??__EmaxV3Error@_VecMathTests@aos@shdfnd@physx@@YAXXZ 0000000180001e70 f   GuDistancePointTriangle.obj
 0001:00000e80       ??__EmaxV4Error@_VecMathTests@aos@shdfnd@physx@@YAXXZ 0000000180001e80 f   GuDistancePointTriangle.obj
 0001:00000e90       ??__EminFError@_VecMathTests@aos@shdfnd@physx@@YAXXZ 0000000180001e90 f   GuDistancePointTriangle.obj
 0001:00000ea0       ??__EminV3Error@_VecMathTests@aos@shdfnd@physx@@YAXXZ 0000000180001ea0 f   GuDistancePointTriangle.obj
 0001:00000eb0       ??__EminV4Error@_VecMathTests@aos@shdfnd@physx@@YAXXZ 0000000180001eb0 f   GuDistancePointTriangle.obj
 0001:00000ec0       ??__EmaxFError@_VecMathTests@aos@shdfnd@physx@@YAXXZ 0000000180001ec0 f   GuDistanceSegmentSegment.obj
 0001:00000ed0       ??__EmaxV3Error@_VecMathTests@aos@shdfnd@physx@@YAXXZ 0000000180001ed0 f   GuDistanceSegmentSegment.obj
 0001:00000ee0       ??__EmaxV4Error@_VecMathTests@aos@shdfnd@physx@@YAXXZ 0000000180001ee0 f   GuDistanceSegmentSegment.obj
 0001:00000ef0       ??__EminFError@_VecMathTests@aos@shdfnd@physx@@YAXXZ 0000000180001ef0 f   GuDistanceSegmentSegment.obj
 0001:00000f00       ??__EminV3Error@_VecMathTests@aos@shdfnd@physx@@YAXXZ 0000000180001f00 f   GuDistanceSegmentSegment.obj
 0001:00000f10       ??__EminV4Error@_VecMathTests@aos@shdfnd@physx@@YAXXZ 0000000180001f10 f   GuDistanceSegmentSegment.obj
 0001:00000f20       ??__EmaxFError@_VecMathTests@aos@shdfnd@physx@@YAXXZ 0000000180001f20 f   GuDistanceSegmentTriangle.obj
 0001:00000f30       ??__EmaxV3Error@_VecMathTests@aos@shdfnd@physx@@YAXXZ 0000000180001f30 f   GuDistanceSegmentTriangle.obj
 0001:00000f40       ??__EmaxV4Error@_VecMathTests@aos@shdfnd@physx@@YAXXZ 0000000180001f40 f   GuDistanceSegmentTriangle.obj
 0001:00000f50       ??__EminFError@_VecMathTests@aos@shdfnd@physx@@YAXXZ 0000000180001f50 f   GuDistanceSegmentTriangle.obj
 0001:00000f60       ??__EminV3Error@_VecMathTests@aos@shdfnd@physx@@YAXXZ 0000000180001f60 f   GuDistanceSegmentTriangle.obj
 0001:00000f70       ??__EminV4Error@_VecMathTests@aos@shdfnd@physx@@YAXXZ 0000000180001f70 f   GuDistanceSegmentTriangle.obj
 0001:00000f80       ??__EmaxFError@_VecMathTests@aos@shdfnd@physx@@YAXXZ 0000000180001f80 f   GuEPA.obj
 0001:00000f90       ??__EmaxV3Error@_VecMathTests@aos@shdfnd@physx@@YAXXZ 0000000180001f90 f   GuEPA.obj
 0001:00000fa0       ??__EmaxV4Error@_VecMathTests@aos@shdfnd@physx@@YAXXZ 0000000180001fa0 f   GuEPA.obj
 0001:00000fb0       ??__EminFError@_VecMathTests@aos@shdfnd@physx@@YAXXZ 0000000180001fb0 f   GuEPA.obj
 0001:00000fc0       ??__EminV3Error@_VecMathTests@aos@shdfnd@physx@@YAXXZ 0000000180001fc0 f   GuEPA.obj
 0001:00000fd0       ??__EminV4Error@_VecMathTests@aos@shdfnd@physx@@YAXXZ 0000000180001fd0 f   GuEPA.obj
 0001:00000fe0       ??__EmaxFError@_VecMathTests@aos@shdfnd@physx@@YAXXZ 0000000180001fe0 f   GuGJKSimplex.obj
 0001:00000ff0       ??__EmaxV3Error@_VecMathTests@aos@shdfnd@physx@@YAXXZ 0000000180001ff0 f   GuGJKSimplex.obj
 0001:00001000       ??__EmaxV4Error@_VecMathTests@aos@shdfnd@physx@@YAXXZ 0000000180002000 f   GuGJKSimplex.obj
 0001:00001010       ??__EminFError@_VecMathTests@aos@shdfnd@physx@@YAXXZ 0000000180002010 f   GuGJKSimplex.obj
 0001:00001020       ??__EminV3Error@_VecMathTests@aos@shdfnd@physx@@YAXXZ 0000000180002020 f   GuGJKSimplex.obj
 0001:00001030       ??__EminV4Error@_VecMathTests@aos@shdfnd@physx@@YAXXZ 0000000180002030 f   GuGJKSimplex.obj
 0001:00001040       ??__EmaxFError@_VecMathTests@aos@shdfnd@physx@@YAXXZ 0000000180002040 f   GuGJKTest.obj
 0001:00001050       ??__EmaxV3Error@_VecMathTests@aos@shdfnd@physx@@YAXXZ 0000000180002050 f   GuGJKTest.obj
 0001:00001060       ??__EmaxV4Error@_VecMathTests@aos@shdfnd@physx@@YAXXZ 0000000180002060 f   GuGJKTest.obj
 0001:00001070       ??__EminFError@_VecMathTests@aos@shdfnd@physx@@YAXXZ 0000000180002070 f   GuGJKTest.obj
 0001:00001080       ??__EminV3Error@_VecMathTests@aos@shdfnd@physx@@YAXXZ 0000000180002080 f   GuGJKTest.obj
 0001:00001090       ??__EminV4Error@_VecMathTests@aos@shdfnd@physx@@YAXXZ 0000000180002090 f   GuGJKTest.obj
 0001:000010a0       ??__EmaxFError@_VecMathTests@aos@shdfnd@physx@@YAXXZ 00000001800020a0 f   GuHeightFieldUtil.obj
 0001:000010b0       ??__EmaxV3Error@_VecMathTests@aos@shdfnd@physx@@YAXXZ 00000001800020b0 f   GuHeightFieldUtil.obj
 0001:000010c0       ??__EmaxV4Error@_VecMathTests@aos@shdfnd@physx@@YAXXZ 00000001800020c0 f   GuHeightFieldUtil.obj
 0001:000010d0       ??__EminFError@_VecMathTests@aos@shdfnd@physx@@YAXXZ 00000001800020d0 f   GuHeightFieldUtil.obj
 0001:000010e0       ??__EminV3Error@_VecMathTests@aos@shdfnd@physx@@YAXXZ 00000001800020e0 f   GuHeightFieldUtil.obj
 0001:000010f0       ??__EminV4Error@_VecMathTests@aos@shdfnd@physx@@YAXXZ 00000001800020f0 f   GuHeightFieldUtil.obj
 0001:00001100       ??__EmaxFError@_VecMathTests@aos@shdfnd@physx@@YAXXZ 0000000180002100 f   GuOverlapTestsHF.obj
 0001:00001110       ??__EmaxV3Error@_VecMathTests@aos@shdfnd@physx@@YAXXZ 0000000180002110 f   GuOverlapTestsHF.obj
 0001:00001120       ??__EmaxV4Error@_VecMathTests@aos@shdfnd@physx@@YAXXZ 0000000180002120 f   GuOverlapTestsHF.obj
 0001:00001130       ??__EminFError@_VecMathTests@aos@shdfnd@physx@@YAXXZ 0000000180002130 f   GuOverlapTestsHF.obj
 0001:00001140       ??__EminV3Error@_VecMathTests@aos@shdfnd@physx@@YAXXZ 0000000180002140 f   GuOverlapTestsHF.obj
 0001:00001150       ??__EminV4Error@_VecMathTests@aos@shdfnd@physx@@YAXXZ 0000000180002150 f   GuOverlapTestsHF.obj
 0001:00001160       ??__EmaxFError@_VecMathTests@aos@shdfnd@physx@@YAXXZ 0000000180002160 f   GuSweepsHF.obj
 0001:00001170       ??__EmaxV3Error@_VecMathTests@aos@shdfnd@physx@@YAXXZ 0000000180002170 f   GuSweepsHF.obj
 0001:00001180       ??__EmaxV4Error@_VecMathTests@aos@shdfnd@physx@@YAXXZ 0000000180002180 f   GuSweepsHF.obj
 0001:00001190       ??__EminFError@_VecMathTests@aos@shdfnd@physx@@YAXXZ 0000000180002190 f   GuSweepsHF.obj
 0001:000011a0       ??__EminV3Error@_VecMathTests@aos@shdfnd@physx@@YAXXZ 00000001800021a0 f   GuSweepsHF.obj
 0001:000011b0       ??__EminV4Error@_VecMathTests@aos@shdfnd@physx@@YAXXZ 00000001800021b0 f   GuSweepsHF.obj
 0001:000011c0       ??__EmaxFError@_VecMathTests@aos@shdfnd@physx@@YAXXZ 00000001800021c0 f   GuIntersectionRayBox.obj
 0001:000011d0       ??__EmaxV3Error@_VecMathTests@aos@shdfnd@physx@@YAXXZ 00000001800021d0 f   GuIntersectionRayBox.obj
 0001:000011e0       ??__EmaxV4Error@_VecMathTests@aos@shdfnd@physx@@YAXXZ 00000001800021e0 f   GuIntersectionRayBox.obj
 0001:000011f0       ??__EminFError@_VecMathTests@aos@shdfnd@physx@@YAXXZ 00000001800021f0 f   GuIntersectionRayBox.obj
 0001:00001200       ??__EminV3Error@_VecMathTests@aos@shdfnd@physx@@YAXXZ 0000000180002200 f   GuIntersectionRayBox.obj
 0001:00001210       ??__EminV4Error@_VecMathTests@aos@shdfnd@physx@@YAXXZ 0000000180002210 f   GuIntersectionRayBox.obj
 0001:00001220       ??__EmaxFError@_VecMathTests@aos@shdfnd@physx@@YAXXZ 0000000180002220 f   GuIntersectionTriangleBox.obj
 0001:00001230       ??__EmaxV3Error@_VecMathTests@aos@shdfnd@physx@@YAXXZ 0000000180002230 f   GuIntersectionTriangleBox.obj
 0001:00001240       ??__EmaxV4Error@_VecMathTests@aos@shdfnd@physx@@YAXXZ 0000000180002240 f   GuIntersectionTriangleBox.obj
 0001:00001250       ??__EminFError@_VecMathTests@aos@shdfnd@physx@@YAXXZ 0000000180002250 f   GuIntersectionTriangleBox.obj
 0001:00001260       ??__EminV3Error@_VecMathTests@aos@shdfnd@physx@@YAXXZ 0000000180002260 f   GuIntersectionTriangleBox.obj
 0001:00001270       ??__EminV4Error@_VecMathTests@aos@shdfnd@physx@@YAXXZ 0000000180002270 f   GuIntersectionTriangleBox.obj
 0001:00001280       ??__EsignV@@YAXXZ          0000000180002280 f   GuIntersectionTriangleBox.obj
 0001:00001290       ??__EmaxFError@_VecMathTests@aos@shdfnd@physx@@YAXXZ 0000000180002290 f   GuBV4.obj
 0001:000012a0       ??__EmaxV3Error@_VecMathTests@aos@shdfnd@physx@@YAXXZ 00000001800022a0 f   GuBV4.obj
 0001:000012b0       ??__EmaxV4Error@_VecMathTests@aos@shdfnd@physx@@YAXXZ 00000001800022b0 f   GuBV4.obj
 0001:000012c0       ??__EminFError@_VecMathTests@aos@shdfnd@physx@@YAXXZ 00000001800022c0 f   GuBV4.obj
 0001:000012d0       ??__EminV3Error@_VecMathTests@aos@shdfnd@physx@@YAXXZ 00000001800022d0 f   GuBV4.obj
 0001:000012e0       ??__EminV4Error@_VecMathTests@aos@shdfnd@physx@@YAXXZ 00000001800022e0 f   GuBV4.obj
 0001:000012f0       ??__EmaxFError@_VecMathTests@aos@shdfnd@physx@@YAXXZ 00000001800022f0 f   GuBV4Build.obj
 0001:00001300       ??__EmaxV3Error@_VecMathTests@aos@shdfnd@physx@@YAXXZ 0000000180002300 f   GuBV4Build.obj
 0001:00001310       ??__EmaxV4Error@_VecMathTests@aos@shdfnd@physx@@YAXXZ 0000000180002310 f   GuBV4Build.obj
 0001:00001320       ??__EminFError@_VecMathTests@aos@shdfnd@physx@@YAXXZ 0000000180002320 f   GuBV4Build.obj
 0001:00001330       ??__EminV3Error@_VecMathTests@aos@shdfnd@physx@@YAXXZ 0000000180002330 f   GuBV4Build.obj
 0001:00001340       ??__EminV4Error@_VecMathTests@aos@shdfnd@physx@@YAXXZ 0000000180002340 f   GuBV4Build.obj
 0001:00001350       ??__EepsFloat4@?A0x37651ad2@@YAXXZ 0000000180002350 f   GuBV4_AABBSweep.obj
 0001:00001360       ??__EepsInflateFloat4@?A0x37651ad2@@YAXXZ 0000000180002360 f   GuBV4_AABBSweep.obj
 0001:00001370       ??__EmaxFError@_VecMathTests@aos@shdfnd@physx@@YAXXZ 0000000180002370 f   GuBV4_AABBSweep.obj
 0001:00001380       ??__EmaxV3Error@_VecMathTests@aos@shdfnd@physx@@YAXXZ 0000000180002380 f   GuBV4_AABBSweep.obj
 0001:00001390       ??__EmaxV4Error@_VecMathTests@aos@shdfnd@physx@@YAXXZ 0000000180002390 f   GuBV4_AABBSweep.obj
 0001:000013a0       ??__EminFError@_VecMathTests@aos@shdfnd@physx@@YAXXZ 00000001800023a0 f   GuBV4_AABBSweep.obj
 0001:000013b0       ??__EminV3Error@_VecMathTests@aos@shdfnd@physx@@YAXXZ 00000001800023b0 f   GuBV4_AABBSweep.obj
 0001:000013c0       ??__EminV4Error@_VecMathTests@aos@shdfnd@physx@@YAXXZ 00000001800023c0 f   GuBV4_AABBSweep.obj
 0001:000013d0       ??__EsignMask@?A0x37651ad2@@YAXXZ 00000001800023d0 f   GuBV4_AABBSweep.obj
 0001:000013e0       ??__Etwos@?A0x37651ad2@@YAXXZ 00000001800023e0 f   GuBV4_AABBSweep.obj
 0001:000013f0       ??__Ezeroes@?A0x37651ad2@@YAXXZ 00000001800023f0 f   GuBV4_AABBSweep.obj
 0001:00001400       ??__EmaxFError@_VecMathTests@aos@shdfnd@physx@@YAXXZ 0000000180002400 f   GuBV4_BoxOverlap.obj
 0001:00001410       ??__EmaxV3Error@_VecMathTests@aos@shdfnd@physx@@YAXXZ 0000000180002410 f   GuBV4_BoxOverlap.obj
 0001:00001420       ??__EmaxV4Error@_VecMathTests@aos@shdfnd@physx@@YAXXZ 0000000180002420 f   GuBV4_BoxOverlap.obj
 0001:00001430       ??__EminFError@_VecMathTests@aos@shdfnd@physx@@YAXXZ 0000000180002430 f   GuBV4_BoxOverlap.obj
 0001:00001440       ??__EminV3Error@_VecMathTests@aos@shdfnd@physx@@YAXXZ 0000000180002440 f   GuBV4_BoxOverlap.obj
 0001:00001450       ??__EminV4Error@_VecMathTests@aos@shdfnd@physx@@YAXXZ 0000000180002450 f   GuBV4_BoxOverlap.obj
 0001:00001460       ??__EmaxFError@_VecMathTests@aos@shdfnd@physx@@YAXXZ 0000000180002460 f   GuBV4_CapsuleSweep.obj
 0001:00001470       ??__EmaxV3Error@_VecMathTests@aos@shdfnd@physx@@YAXXZ 0000000180002470 f   GuBV4_CapsuleSweep.obj
 0001:00001480       ??__EmaxV4Error@_VecMathTests@aos@shdfnd@physx@@YAXXZ 0000000180002480 f   GuBV4_CapsuleSweep.obj
 0001:00001490       ??__EminFError@_VecMathTests@aos@shdfnd@physx@@YAXXZ 0000000180002490 f   GuBV4_CapsuleSweep.obj
 0001:000014a0       ??__EminV3Error@_VecMathTests@aos@shdfnd@physx@@YAXXZ 00000001800024a0 f   GuBV4_CapsuleSweep.obj
 0001:000014b0       ??__EminV4Error@_VecMathTests@aos@shdfnd@physx@@YAXXZ 00000001800024b0 f   GuBV4_CapsuleSweep.obj
 0001:000014c0       ??__EepsFloat4@?A0x179f0ae3@@YAXXZ 00000001800024c0 f   GuBV4_CapsuleSweepAA.obj
 0001:000014d0       ??__EepsInflateFloat4@?A0x179f0ae3@@YAXXZ 00000001800024d0 f   GuBV4_CapsuleSweepAA.obj
 0001:000014e0       ??__EmaxFError@_VecMathTests@aos@shdfnd@physx@@YAXXZ 00000001800024e0 f   GuBV4_CapsuleSweepAA.obj
 0001:000014f0       ??__EmaxV3Error@_VecMathTests@aos@shdfnd@physx@@YAXXZ 00000001800024f0 f   GuBV4_CapsuleSweepAA.obj
 0001:00001500       ??__EmaxV4Error@_VecMathTests@aos@shdfnd@physx@@YAXXZ 0000000180002500 f   GuBV4_CapsuleSweepAA.obj
 0001:00001510       ??__EminFError@_VecMathTests@aos@shdfnd@physx@@YAXXZ 0000000180002510 f   GuBV4_CapsuleSweepAA.obj
 0001:00001520       ??__EminV3Error@_VecMathTests@aos@shdfnd@physx@@YAXXZ 0000000180002520 f   GuBV4_CapsuleSweepAA.obj
 0001:00001530       ??__EminV4Error@_VecMathTests@aos@shdfnd@physx@@YAXXZ 0000000180002530 f   GuBV4_CapsuleSweepAA.obj
 0001:00001540       ??__EsignMask@?A0x179f0ae3@@YAXXZ 0000000180002540 f   GuBV4_CapsuleSweepAA.obj
 0001:00001550       ??__Etwos@?A0x179f0ae3@@YAXXZ 0000000180002550 f   GuBV4_CapsuleSweepAA.obj
 0001:00001560       ??__Ezeroes@?A0x179f0ae3@@YAXXZ 0000000180002560 f   GuBV4_CapsuleSweepAA.obj
 0001:00001570       ??__EmaxFError@_VecMathTests@aos@shdfnd@physx@@YAXXZ 0000000180002570 f   GuBV4_OBBSweep.obj
 0001:00001580       ??__EmaxV3Error@_VecMathTests@aos@shdfnd@physx@@YAXXZ 0000000180002580 f   GuBV4_OBBSweep.obj
 0001:00001590       ??__EmaxV4Error@_VecMathTests@aos@shdfnd@physx@@YAXXZ 0000000180002590 f   GuBV4_OBBSweep.obj
 0001:000015a0       ??__EminFError@_VecMathTests@aos@shdfnd@physx@@YAXXZ 00000001800025a0 f   GuBV4_OBBSweep.obj
 0001:000015b0       ??__EminV3Error@_VecMathTests@aos@shdfnd@physx@@YAXXZ 00000001800025b0 f   GuBV4_OBBSweep.obj
 0001:000015c0       ??__EminV4Error@_VecMathTests@aos@shdfnd@physx@@YAXXZ 00000001800025c0 f   GuBV4_OBBSweep.obj
 0001:000015d0       ??__EepsFloat4@?A0x177fc796@@YAXXZ 00000001800025d0 f   GuBV4_Raycast.obj
 0001:000015e0       ??__EepsInflateFloat4@?A0x177fc796@@YAXXZ 00000001800025e0 f   GuBV4_Raycast.obj
 0001:000015f0       ??__EmaxFError@_VecMathTests@aos@shdfnd@physx@@YAXXZ 00000001800025f0 f   GuBV4_Raycast.obj
 0001:00001600       ??__EmaxV3Error@_VecMathTests@aos@shdfnd@physx@@YAXXZ 0000000180002600 f   GuBV4_Raycast.obj
 0001:00001610       ??__EmaxV4Error@_VecMathTests@aos@shdfnd@physx@@YAXXZ 0000000180002610 f   GuBV4_Raycast.obj
 0001:00001620       ??__EminFError@_VecMathTests@aos@shdfnd@physx@@YAXXZ 0000000180002620 f   GuBV4_Raycast.obj
 0001:00001630       ??__EminV3Error@_VecMathTests@aos@shdfnd@physx@@YAXXZ 0000000180002630 f   GuBV4_Raycast.obj
 0001:00001640       ??__EminV4Error@_VecMathTests@aos@shdfnd@physx@@YAXXZ 0000000180002640 f   GuBV4_Raycast.obj
 0001:00001650       ??__EsignMask@?A0x177fc796@@YAXXZ 0000000180002650 f   GuBV4_Raycast.obj
 0001:00001660       ??__Etwos@?A0x177fc796@@YAXXZ 0000000180002660 f   GuBV4_Raycast.obj
 0001:00001670       ??__Ezeroes@?A0x177fc796@@YAXXZ 0000000180002670 f   GuBV4_Raycast.obj
 0001:00001680       ??__EmaxFError@_VecMathTests@aos@shdfnd@physx@@YAXXZ 0000000180002680 f   GuBV4_SphereOverlap.obj
 0001:00001690       ??__EmaxV3Error@_VecMathTests@aos@shdfnd@physx@@YAXXZ 0000000180002690 f   GuBV4_SphereOverlap.obj
 0001:000016a0       ??__EmaxV4Error@_VecMathTests@aos@shdfnd@physx@@YAXXZ 00000001800026a0 f   GuBV4_SphereOverlap.obj
 0001:000016b0       ??__EminFError@_VecMathTests@aos@shdfnd@physx@@YAXXZ 00000001800026b0 f   GuBV4_SphereOverlap.obj
 0001:000016c0       ??__EminV3Error@_VecMathTests@aos@shdfnd@physx@@YAXXZ 00000001800026c0 f   GuBV4_SphereOverlap.obj
 0001:000016d0       ??__EminV4Error@_VecMathTests@aos@shdfnd@physx@@YAXXZ 00000001800026d0 f   GuBV4_SphereOverlap.obj
 0001:000016e0       ??__EepsFloat4@?A0xf1dbb6a2@@YAXXZ 00000001800026e0 f   GuBV4_SphereSweep.obj
 0001:000016f0       ??__EepsInflateFloat4@?A0xf1dbb6a2@@YAXXZ 00000001800026f0 f   GuBV4_SphereSweep.obj
 0001:00001700       ??__EmaxFError@_VecMathTests@aos@shdfnd@physx@@YAXXZ 0000000180002700 f   GuBV4_SphereSweep.obj
 0001:00001710       ??__EmaxV3Error@_VecMathTests@aos@shdfnd@physx@@YAXXZ 0000000180002710 f   GuBV4_SphereSweep.obj
 0001:00001720       ??__EmaxV4Error@_VecMathTests@aos@shdfnd@physx@@YAXXZ 0000000180002720 f   GuBV4_SphereSweep.obj
 0001:00001730       ??__EminFError@_VecMathTests@aos@shdfnd@physx@@YAXXZ 0000000180002730 f   GuBV4_SphereSweep.obj
 0001:00001740       ??__EminV3Error@_VecMathTests@aos@shdfnd@physx@@YAXXZ 0000000180002740 f   GuBV4_SphereSweep.obj
 0001:00001750       ??__EminV4Error@_VecMathTests@aos@shdfnd@physx@@YAXXZ 0000000180002750 f   GuBV4_SphereSweep.obj
 0001:00001760       ??__EsignMask@?A0xf1dbb6a2@@YAXXZ 0000000180002760 f   GuBV4_SphereSweep.obj
 0001:00001770       ??__Etwos@?A0xf1dbb6a2@@YAXXZ 0000000180002770 f   GuBV4_SphereSweep.obj
 0001:00001780       ??__Ezeroes@?A0xf1dbb6a2@@YAXXZ 0000000180002780 f   GuBV4_SphereSweep.obj
 0001:00001790       ??__EmaxFError@_VecMathTests@aos@shdfnd@physx@@YAXXZ 0000000180002790 f   GuMidphaseBV4.obj
 0001:000017a0       ??__EmaxV3Error@_VecMathTests@aos@shdfnd@physx@@YAXXZ 00000001800027a0 f   GuMidphaseBV4.obj
 0001:000017b0       ??__EmaxV4Error@_VecMathTests@aos@shdfnd@physx@@YAXXZ 00000001800027b0 f   GuMidphaseBV4.obj
 0001:000017c0       ??__EminFError@_VecMathTests@aos@shdfnd@physx@@YAXXZ 00000001800027c0 f   GuMidphaseBV4.obj
 0001:000017d0       ??__EminV3Error@_VecMathTests@aos@shdfnd@physx@@YAXXZ 00000001800027d0 f   GuMidphaseBV4.obj
 0001:000017e0       ??__EminV4Error@_VecMathTests@aos@shdfnd@physx@@YAXXZ 00000001800027e0 f   GuMidphaseBV4.obj
 0001:000017f0       ??__EmaxFError@_VecMathTests@aos@shdfnd@physx@@YAXXZ 00000001800027f0 f   GuMeshQuery.obj
 0001:00001800       ??__EmaxV3Error@_VecMathTests@aos@shdfnd@physx@@YAXXZ 0000000180002800 f   GuMeshQuery.obj
 0001:00001810       ??__EmaxV4Error@_VecMathTests@aos@shdfnd@physx@@YAXXZ 0000000180002810 f   GuMeshQuery.obj
 0001:00001820       ??__EminFError@_VecMathTests@aos@shdfnd@physx@@YAXXZ 0000000180002820 f   GuMeshQuery.obj
 0001:00001830       ??__EminV3Error@_VecMathTests@aos@shdfnd@physx@@YAXXZ 0000000180002830 f   GuMeshQuery.obj
 0001:00001840       ??__EminV4Error@_VecMathTests@aos@shdfnd@physx@@YAXXZ 0000000180002840 f   GuMeshQuery.obj
 0001:00001850       ??__EmaxFError@_VecMathTests@aos@shdfnd@physx@@YAXXZ 0000000180002850 f   GuMidphaseRTree.obj
 0001:00001860       ??__EmaxV3Error@_VecMathTests@aos@shdfnd@physx@@YAXXZ 0000000180002860 f   GuMidphaseRTree.obj
 0001:00001870       ??__EmaxV4Error@_VecMathTests@aos@shdfnd@physx@@YAXXZ 0000000180002870 f   GuMidphaseRTree.obj
 0001:00001880       ??__EminFError@_VecMathTests@aos@shdfnd@physx@@YAXXZ 0000000180002880 f   GuMidphaseRTree.obj
 0001:00001890       ??__EminV3Error@_VecMathTests@aos@shdfnd@physx@@YAXXZ 0000000180002890 f   GuMidphaseRTree.obj
 0001:000018a0       ??__EminV4Error@_VecMathTests@aos@shdfnd@physx@@YAXXZ 00000001800028a0 f   GuMidphaseRTree.obj
 0001:000018b0       ??__EmaxFError@_VecMathTests@aos@shdfnd@physx@@YAXXZ 00000001800028b0 f   GuOverlapTestsMesh.obj
 0001:000018c0       ??__EmaxV3Error@_VecMathTests@aos@shdfnd@physx@@YAXXZ 00000001800028c0 f   GuOverlapTestsMesh.obj
 0001:000018d0       ??__EmaxV4Error@_VecMathTests@aos@shdfnd@physx@@YAXXZ 00000001800028d0 f   GuOverlapTestsMesh.obj
 0001:000018e0       ??__EminFError@_VecMathTests@aos@shdfnd@physx@@YAXXZ 00000001800028e0 f   GuOverlapTestsMesh.obj
 0001:000018f0       ??__EminV3Error@_VecMathTests@aos@shdfnd@physx@@YAXXZ 00000001800028f0 f   GuOverlapTestsMesh.obj
 0001:00001900       ??__EminV4Error@_VecMathTests@aos@shdfnd@physx@@YAXXZ 0000000180002900 f   GuOverlapTestsMesh.obj
 0001:00001910       ??__EmaxFError@_VecMathTests@aos@shdfnd@physx@@YAXXZ 0000000180002910 f   GuRTree.obj
 0001:00001920       ??__EmaxV3Error@_VecMathTests@aos@shdfnd@physx@@YAXXZ 0000000180002920 f   GuRTree.obj
 0001:00001930       ??__EmaxV4Error@_VecMathTests@aos@shdfnd@physx@@YAXXZ 0000000180002930 f   GuRTree.obj
 0001:00001940       ??__EminFError@_VecMathTests@aos@shdfnd@physx@@YAXXZ 0000000180002940 f   GuRTree.obj
 0001:00001950       ??__EminV3Error@_VecMathTests@aos@shdfnd@physx@@YAXXZ 0000000180002950 f   GuRTree.obj
 0001:00001960       ??__EminV4Error@_VecMathTests@aos@shdfnd@physx@@YAXXZ 0000000180002960 f   GuRTree.obj
 0001:00001970       ??__EepsFloat4@?A0x1e7da98d@@YAXXZ 0000000180002970 f   GuRTreeQueries.obj
 0001:00001980       ??__EepsInflateFloat4@?A0x1e7da98d@@YAXXZ 0000000180002980 f   GuRTreeQueries.obj
 0001:00001990       ??__EmaxFError@_VecMathTests@aos@shdfnd@physx@@YAXXZ 0000000180002990 f   GuRTreeQueries.obj
 0001:000019a0       ??__EmaxV3Error@_VecMathTests@aos@shdfnd@physx@@YAXXZ 00000001800029a0 f   GuRTreeQueries.obj
 0001:000019b0       ??__EmaxV4Error@_VecMathTests@aos@shdfnd@physx@@YAXXZ 00000001800029b0 f   GuRTreeQueries.obj
 0001:000019c0       ??__EminFError@_VecMathTests@aos@shdfnd@physx@@YAXXZ 00000001800029c0 f   GuRTreeQueries.obj
 0001:000019d0       ??__EminV3Error@_VecMathTests@aos@shdfnd@physx@@YAXXZ 00000001800029d0 f   GuRTreeQueries.obj
 0001:000019e0       ??__EminV4Error@_VecMathTests@aos@shdfnd@physx@@YAXXZ 00000001800029e0 f   GuRTreeQueries.obj
 0001:000019f0       ??__EsignMask@?A0x1e7da98d@@YAXXZ 00000001800029f0 f   GuRTreeQueries.obj
 0001:00001a00       ??__Etwos@?A0x1e7da98d@@YAXXZ 0000000180002a00 f   GuRTreeQueries.obj
 0001:00001a10       ??__Ezeroes@?A0x1e7da98d@@YAXXZ 0000000180002a10 f   GuRTreeQueries.obj
 0001:00001a20       ??__EmaxFError@_VecMathTests@aos@shdfnd@physx@@YAXXZ 0000000180002a20 f   GuSweepsMesh.obj
 0001:00001a30       ??__EmaxV3Error@_VecMathTests@aos@shdfnd@physx@@YAXXZ 0000000180002a30 f   GuSweepsMesh.obj
 0001:00001a40       ??__EmaxV4Error@_VecMathTests@aos@shdfnd@physx@@YAXXZ 0000000180002a40 f   GuSweepsMesh.obj
 0001:00001a50       ??__EminFError@_VecMathTests@aos@shdfnd@physx@@YAXXZ 0000000180002a50 f   GuSweepsMesh.obj
 0001:00001a60       ??__EminV3Error@_VecMathTests@aos@shdfnd@physx@@YAXXZ 0000000180002a60 f   GuSweepsMesh.obj
 0001:00001a70       ??__EminV4Error@_VecMathTests@aos@shdfnd@physx@@YAXXZ 0000000180002a70 f   GuSweepsMesh.obj
 0001:00001a80       ??__EmaxFError@_VecMathTests@aos@shdfnd@physx@@YAXXZ 0000000180002a80 f   GuTriangleMesh.obj
 0001:00001a90       ??__EmaxV3Error@_VecMathTests@aos@shdfnd@physx@@YAXXZ 0000000180002a90 f   GuTriangleMesh.obj
 0001:00001aa0       ??__EmaxV4Error@_VecMathTests@aos@shdfnd@physx@@YAXXZ 0000000180002aa0 f   GuTriangleMesh.obj
 0001:00001ab0       ??__EminFError@_VecMathTests@aos@shdfnd@physx@@YAXXZ 0000000180002ab0 f   GuTriangleMesh.obj
 0001:00001ac0       ??__EminV3Error@_VecMathTests@aos@shdfnd@physx@@YAXXZ 0000000180002ac0 f   GuTriangleMesh.obj
 0001:00001ad0       ??__EminV4Error@_VecMathTests@aos@shdfnd@physx@@YAXXZ 0000000180002ad0 f   GuTriangleMesh.obj
 0001:00001ae0       ??__EmaxFError@_VecMathTests@aos@shdfnd@physx@@YAXXZ 0000000180002ae0 f   GuTriangleMeshBV4.obj
 0001:00001af0       ??__EmaxV3Error@_VecMathTests@aos@shdfnd@physx@@YAXXZ 0000000180002af0 f   GuTriangleMeshBV4.obj
 0001:00001b00       ??__EmaxV4Error@_VecMathTests@aos@shdfnd@physx@@YAXXZ 0000000180002b00 f   GuTriangleMeshBV4.obj
 0001:00001b10       ??__EminFError@_VecMathTests@aos@shdfnd@physx@@YAXXZ 0000000180002b10 f   GuTriangleMeshBV4.obj
 0001:00001b20       ??__EminV3Error@_VecMathTests@aos@shdfnd@physx@@YAXXZ 0000000180002b20 f   GuTriangleMeshBV4.obj
 0001:00001b30       ??__EminV4Error@_VecMathTests@aos@shdfnd@physx@@YAXXZ 0000000180002b30 f   GuTriangleMeshBV4.obj
 0001:00001b40       ??__EmaxFError@_VecMathTests@aos@shdfnd@physx@@YAXXZ 0000000180002b40 f   GuTriangleMeshRTree.obj
 0001:00001b50       ??__EmaxV3Error@_VecMathTests@aos@shdfnd@physx@@YAXXZ 0000000180002b50 f   GuTriangleMeshRTree.obj
 0001:00001b60       ??__EmaxV4Error@_VecMathTests@aos@shdfnd@physx@@YAXXZ 0000000180002b60 f   GuTriangleMeshRTree.obj
 0001:00001b70       ??__EminFError@_VecMathTests@aos@shdfnd@physx@@YAXXZ 0000000180002b70 f   GuTriangleMeshRTree.obj
 0001:00001b80       ??__EminV3Error@_VecMathTests@aos@shdfnd@physx@@YAXXZ 0000000180002b80 f   GuTriangleMeshRTree.obj
 0001:00001b90       ??__EminV4Error@_VecMathTests@aos@shdfnd@physx@@YAXXZ 0000000180002b90 f   GuTriangleMeshRTree.obj
 0001:00001ba0       ??__EmaxFError@_VecMathTests@aos@shdfnd@physx@@YAXXZ 0000000180002ba0 f   GuBV32Build.obj
 0001:00001bb0       ??__EmaxV3Error@_VecMathTests@aos@shdfnd@physx@@YAXXZ 0000000180002bb0 f   GuBV32Build.obj
 0001:00001bc0       ??__EmaxV4Error@_VecMathTests@aos@shdfnd@physx@@YAXXZ 0000000180002bc0 f   GuBV32Build.obj
 0001:00001bd0       ??__EminFError@_VecMathTests@aos@shdfnd@physx@@YAXXZ 0000000180002bd0 f   GuBV32Build.obj
 0001:00001be0       ??__EminV3Error@_VecMathTests@aos@shdfnd@physx@@YAXXZ 0000000180002be0 f   GuBV32Build.obj
 0001:00001bf0       ??__EminV4Error@_VecMathTests@aos@shdfnd@physx@@YAXXZ 0000000180002bf0 f   GuBV32Build.obj
 0001:00001c00       ??__EmaxFError@_VecMathTests@aos@shdfnd@physx@@YAXXZ 0000000180002c00 f   GuPCMContactBoxBox.obj
 0001:00001c10       ??__EmaxV3Error@_VecMathTests@aos@shdfnd@physx@@YAXXZ 0000000180002c10 f   GuPCMContactBoxBox.obj
 0001:00001c20       ??__EmaxV4Error@_VecMathTests@aos@shdfnd@physx@@YAXXZ 0000000180002c20 f   GuPCMContactBoxBox.obj
 0001:00001c30       ??__EminFError@_VecMathTests@aos@shdfnd@physx@@YAXXZ 0000000180002c30 f   GuPCMContactBoxBox.obj
 0001:00001c40       ??__EminV3Error@_VecMathTests@aos@shdfnd@physx@@YAXXZ 0000000180002c40 f   GuPCMContactBoxBox.obj
 0001:00001c50       ??__EminV4Error@_VecMathTests@aos@shdfnd@physx@@YAXXZ 0000000180002c50 f   GuPCMContactBoxBox.obj
 0001:00001c60       ??__EmaxFError@_VecMathTests@aos@shdfnd@physx@@YAXXZ 0000000180002c60 f   GuPCMContactBoxConvex.obj
 0001:00001c70       ??__EmaxV3Error@_VecMathTests@aos@shdfnd@physx@@YAXXZ 0000000180002c70 f   GuPCMContactBoxConvex.obj
 0001:00001c80       ??__EmaxV4Error@_VecMathTests@aos@shdfnd@physx@@YAXXZ 0000000180002c80 f   GuPCMContactBoxConvex.obj
 0001:00001c90       ??__EminFError@_VecMathTests@aos@shdfnd@physx@@YAXXZ 0000000180002c90 f   GuPCMContactBoxConvex.obj
 0001:00001ca0       ??__EminV3Error@_VecMathTests@aos@shdfnd@physx@@YAXXZ 0000000180002ca0 f   GuPCMContactBoxConvex.obj
 0001:00001cb0       ??__EminV4Error@_VecMathTests@aos@shdfnd@physx@@YAXXZ 0000000180002cb0 f   GuPCMContactBoxConvex.obj
 0001:00001cc0       ??__EmaxFError@_VecMathTests@aos@shdfnd@physx@@YAXXZ 0000000180002cc0 f   GuPCMContactCapsuleBox.obj
 0001:00001cd0       ??__EmaxV3Error@_VecMathTests@aos@shdfnd@physx@@YAXXZ 0000000180002cd0 f   GuPCMContactCapsuleBox.obj
 0001:00001ce0       ??__EmaxV4Error@_VecMathTests@aos@shdfnd@physx@@YAXXZ 0000000180002ce0 f   GuPCMContactCapsuleBox.obj
 0001:00001cf0       ??__EminFError@_VecMathTests@aos@shdfnd@physx@@YAXXZ 0000000180002cf0 f   GuPCMContactCapsuleBox.obj
 0001:00001d00       ??__EminV3Error@_VecMathTests@aos@shdfnd@physx@@YAXXZ 0000000180002d00 f   GuPCMContactCapsuleBox.obj
 0001:00001d10       ??__EminV4Error@_VecMathTests@aos@shdfnd@physx@@YAXXZ 0000000180002d10 f   GuPCMContactCapsuleBox.obj
 0001:00001d20       ??__EmaxFError@_VecMathTests@aos@shdfnd@physx@@YAXXZ 0000000180002d20 f   GuPCMContactCapsuleCapsule.obj
 0001:00001d30       ??__EmaxV3Error@_VecMathTests@aos@shdfnd@physx@@YAXXZ 0000000180002d30 f   GuPCMContactCapsuleCapsule.obj
 0001:00001d40       ??__EmaxV4Error@_VecMathTests@aos@shdfnd@physx@@YAXXZ 0000000180002d40 f   GuPCMContactCapsuleCapsule.obj
 0001:00001d50       ??__EminFError@_VecMathTests@aos@shdfnd@physx@@YAXXZ 0000000180002d50 f   GuPCMContactCapsuleCapsule.obj
 0001:00001d60       ??__EminV3Error@_VecMathTests@aos@shdfnd@physx@@YAXXZ 0000000180002d60 f   GuPCMContactCapsuleCapsule.obj
 0001:00001d70       ??__EminV4Error@_VecMathTests@aos@shdfnd@physx@@YAXXZ 0000000180002d70 f   GuPCMContactCapsuleCapsule.obj
 0001:00001d80       ??__EmaxFError@_VecMathTests@aos@shdfnd@physx@@YAXXZ 0000000180002d80 f   GuPCMContactCapsuleConvex.obj
 0001:00001d90       ??__EmaxV3Error@_VecMathTests@aos@shdfnd@physx@@YAXXZ 0000000180002d90 f   GuPCMContactCapsuleConvex.obj
 0001:00001da0       ??__EmaxV4Error@_VecMathTests@aos@shdfnd@physx@@YAXXZ 0000000180002da0 f   GuPCMContactCapsuleConvex.obj
 0001:00001db0       ??__EminFError@_VecMathTests@aos@shdfnd@physx@@YAXXZ 0000000180002db0 f   GuPCMContactCapsuleConvex.obj
 0001:00001dc0       ??__EminV3Error@_VecMathTests@aos@shdfnd@physx@@YAXXZ 0000000180002dc0 f   GuPCMContactCapsuleConvex.obj
 0001:00001dd0       ??__EminV4Error@_VecMathTests@aos@shdfnd@physx@@YAXXZ 0000000180002dd0 f   GuPCMContactCapsuleConvex.obj
 0001:00001de0       ??__EmaxFError@_VecMathTests@aos@shdfnd@physx@@YAXXZ 0000000180002de0 f   GuPCMContactCapsuleHeightField.obj
 0001:00001df0       ??__EmaxV3Error@_VecMathTests@aos@shdfnd@physx@@YAXXZ 0000000180002df0 f   GuPCMContactCapsuleHeightField.obj
 0001:00001e00       ??__EmaxV4Error@_VecMathTests@aos@shdfnd@physx@@YAXXZ 0000000180002e00 f   GuPCMContactCapsuleHeightField.obj
 0001:00001e10       ??__EminFError@_VecMathTests@aos@shdfnd@physx@@YAXXZ 0000000180002e10 f   GuPCMContactCapsuleHeightField.obj
 0001:00001e20       ??__EminV3Error@_VecMathTests@aos@shdfnd@physx@@YAXXZ 0000000180002e20 f   GuPCMContactCapsuleHeightField.obj
 0001:00001e30       ??__EminV4Error@_VecMathTests@aos@shdfnd@physx@@YAXXZ 0000000180002e30 f   GuPCMContactCapsuleHeightField.obj
 0001:00001e40       ??__EmaxFError@_VecMathTests@aos@shdfnd@physx@@YAXXZ 0000000180002e40 f   GuPCMContactCapsuleMesh.obj
 0001:00001e50       ??__EmaxV3Error@_VecMathTests@aos@shdfnd@physx@@YAXXZ 0000000180002e50 f   GuPCMContactCapsuleMesh.obj
 0001:00001e60       ??__EmaxV4Error@_VecMathTests@aos@shdfnd@physx@@YAXXZ 0000000180002e60 f   GuPCMContactCapsuleMesh.obj
 0001:00001e70       ??__EminFError@_VecMathTests@aos@shdfnd@physx@@YAXXZ 0000000180002e70 f   GuPCMContactCapsuleMesh.obj
 0001:00001e80       ??__EminV3Error@_VecMathTests@aos@shdfnd@physx@@YAXXZ 0000000180002e80 f   GuPCMContactCapsuleMesh.obj
 0001:00001e90       ??__EminV4Error@_VecMathTests@aos@shdfnd@physx@@YAXXZ 0000000180002e90 f   GuPCMContactCapsuleMesh.obj
 0001:00001ea0       ??__EmaxFError@_VecMathTests@aos@shdfnd@physx@@YAXXZ 0000000180002ea0 f   GuPCMContactConvexCommon.obj
 0001:00001eb0       ??__EmaxV3Error@_VecMathTests@aos@shdfnd@physx@@YAXXZ 0000000180002eb0 f   GuPCMContactConvexCommon.obj
 0001:00001ec0       ??__EmaxV4Error@_VecMathTests@aos@shdfnd@physx@@YAXXZ 0000000180002ec0 f   GuPCMContactConvexCommon.obj
 0001:00001ed0       ??__EminFError@_VecMathTests@aos@shdfnd@physx@@YAXXZ 0000000180002ed0 f   GuPCMContactConvexCommon.obj
 0001:00001ee0       ??__EminV3Error@_VecMathTests@aos@shdfnd@physx@@YAXXZ 0000000180002ee0 f   GuPCMContactConvexCommon.obj
 0001:00001ef0       ??__EminV4Error@_VecMathTests@aos@shdfnd@physx@@YAXXZ 0000000180002ef0 f   GuPCMContactConvexCommon.obj
 0001:00001f00       ??__EmaxFError@_VecMathTests@aos@shdfnd@physx@@YAXXZ 0000000180002f00 f   GuPCMContactConvexConvex.obj
 0001:00001f10       ??__EmaxV3Error@_VecMathTests@aos@shdfnd@physx@@YAXXZ 0000000180002f10 f   GuPCMContactConvexConvex.obj
 0001:00001f20       ??__EmaxV4Error@_VecMathTests@aos@shdfnd@physx@@YAXXZ 0000000180002f20 f   GuPCMContactConvexConvex.obj
 0001:00001f30       ??__EminFError@_VecMathTests@aos@shdfnd@physx@@YAXXZ 0000000180002f30 f   GuPCMContactConvexConvex.obj
 0001:00001f40       ??__EminV3Error@_VecMathTests@aos@shdfnd@physx@@YAXXZ 0000000180002f40 f   GuPCMContactConvexConvex.obj
 0001:00001f50       ??__EminV4Error@_VecMathTests@aos@shdfnd@physx@@YAXXZ 0000000180002f50 f   GuPCMContactConvexConvex.obj
 0001:00001f60       ??__EmaxFError@_VecMathTests@aos@shdfnd@physx@@YAXXZ 0000000180002f60 f   GuPCMContactConvexHeightField.obj
 0001:00001f70       ??__EmaxV3Error@_VecMathTests@aos@shdfnd@physx@@YAXXZ 0000000180002f70 f   GuPCMContactConvexHeightField.obj
 0001:00001f80       ??__EmaxV4Error@_VecMathTests@aos@shdfnd@physx@@YAXXZ 0000000180002f80 f   GuPCMContactConvexHeightField.obj
 0001:00001f90       ??__EminFError@_VecMathTests@aos@shdfnd@physx@@YAXXZ 0000000180002f90 f   GuPCMContactConvexHeightField.obj
 0001:00001fa0       ??__EminV3Error@_VecMathTests@aos@shdfnd@physx@@YAXXZ 0000000180002fa0 f   GuPCMContactConvexHeightField.obj
 0001:00001fb0       ??__EminV4Error@_VecMathTests@aos@shdfnd@physx@@YAXXZ 0000000180002fb0 f   GuPCMContactConvexHeightField.obj
 0001:00001fc0       ??__EmaxFError@_VecMathTests@aos@shdfnd@physx@@YAXXZ 0000000180002fc0 f   GuPCMContactConvexMesh.obj
 0001:00001fd0       ??__EmaxV3Error@_VecMathTests@aos@shdfnd@physx@@YAXXZ 0000000180002fd0 f   GuPCMContactConvexMesh.obj
 0001:00001fe0       ??__EmaxV4Error@_VecMathTests@aos@shdfnd@physx@@YAXXZ 0000000180002fe0 f   GuPCMContactConvexMesh.obj
 0001:00001ff0       ??__EminFError@_VecMathTests@aos@shdfnd@physx@@YAXXZ 0000000180002ff0 f   GuPCMContactConvexMesh.obj
 0001:00002000       ??__EminV3Error@_VecMathTests@aos@shdfnd@physx@@YAXXZ 0000000180003000 f   GuPCMContactConvexMesh.obj
 0001:00002010       ??__EminV4Error@_VecMathTests@aos@shdfnd@physx@@YAXXZ 0000000180003010 f   GuPCMContactConvexMesh.obj
 0001:00002020       ??__EmaxFError@_VecMathTests@aos@shdfnd@physx@@YAXXZ 0000000180003020 f   GuPCMContactGenBoxConvex.obj
 0001:00002030       ??__EmaxV3Error@_VecMathTests@aos@shdfnd@physx@@YAXXZ 0000000180003030 f   GuPCMContactGenBoxConvex.obj
 0001:00002040       ??__EmaxV4Error@_VecMathTests@aos@shdfnd@physx@@YAXXZ 0000000180003040 f   GuPCMContactGenBoxConvex.obj
 0001:00002050       ??__EminFError@_VecMathTests@aos@shdfnd@physx@@YAXXZ 0000000180003050 f   GuPCMContactGenBoxConvex.obj
 0001:00002060       ??__EminV3Error@_VecMathTests@aos@shdfnd@physx@@YAXXZ 0000000180003060 f   GuPCMContactGenBoxConvex.obj
 0001:00002070       ??__EminV4Error@_VecMathTests@aos@shdfnd@physx@@YAXXZ 0000000180003070 f   GuPCMContactGenBoxConvex.obj
 0001:00002080       ??__EmaxFError@_VecMathTests@aos@shdfnd@physx@@YAXXZ 0000000180003080 f   GuPCMContactGenSphereCapsule.obj
 0001:00002090       ??__EmaxV3Error@_VecMathTests@aos@shdfnd@physx@@YAXXZ 0000000180003090 f   GuPCMContactGenSphereCapsule.obj
 0001:000020a0       ??__EmaxV4Error@_VecMathTests@aos@shdfnd@physx@@YAXXZ 00000001800030a0 f   GuPCMContactGenSphereCapsule.obj
 0001:000020b0       ??__EminFError@_VecMathTests@aos@shdfnd@physx@@YAXXZ 00000001800030b0 f   GuPCMContactGenSphereCapsule.obj
 0001:000020c0       ??__EminV3Error@_VecMathTests@aos@shdfnd@physx@@YAXXZ 00000001800030c0 f   GuPCMContactGenSphereCapsule.obj
 0001:000020d0       ??__EminV4Error@_VecMathTests@aos@shdfnd@physx@@YAXXZ 00000001800030d0 f   GuPCMContactGenSphereCapsule.obj
 0001:000020e0       ??__EmaxFError@_VecMathTests@aos@shdfnd@physx@@YAXXZ 00000001800030e0 f   GuPCMContactPlaneBox.obj
 0001:000020f0       ??__EmaxV3Error@_VecMathTests@aos@shdfnd@physx@@YAXXZ 00000001800030f0 f   GuPCMContactPlaneBox.obj
 0001:00002100       ??__EmaxV4Error@_VecMathTests@aos@shdfnd@physx@@YAXXZ 0000000180003100 f   GuPCMContactPlaneBox.obj
 0001:00002110       ??__EminFError@_VecMathTests@aos@shdfnd@physx@@YAXXZ 0000000180003110 f   GuPCMContactPlaneBox.obj
 0001:00002120       ??__EminV3Error@_VecMathTests@aos@shdfnd@physx@@YAXXZ 0000000180003120 f   GuPCMContactPlaneBox.obj
 0001:00002130       ??__EminV4Error@_VecMathTests@aos@shdfnd@physx@@YAXXZ 0000000180003130 f   GuPCMContactPlaneBox.obj
 0001:00002140       ??__EmaxFError@_VecMathTests@aos@shdfnd@physx@@YAXXZ 0000000180003140 f   GuPCMContactPlaneCapsule.obj
 0001:00002150       ??__EmaxV3Error@_VecMathTests@aos@shdfnd@physx@@YAXXZ 0000000180003150 f   GuPCMContactPlaneCapsule.obj
 0001:00002160       ??__EmaxV4Error@_VecMathTests@aos@shdfnd@physx@@YAXXZ 0000000180003160 f   GuPCMContactPlaneCapsule.obj
 0001:00002170       ??__EminFError@_VecMathTests@aos@shdfnd@physx@@YAXXZ 0000000180003170 f   GuPCMContactPlaneCapsule.obj
 0001:00002180       ??__EminV3Error@_VecMathTests@aos@shdfnd@physx@@YAXXZ 0000000180003180 f   GuPCMContactPlaneCapsule.obj
 0001:00002190       ??__EminV4Error@_VecMathTests@aos@shdfnd@physx@@YAXXZ 0000000180003190 f   GuPCMContactPlaneCapsule.obj
 0001:000021a0       ??__EmaxFError@_VecMathTests@aos@shdfnd@physx@@YAXXZ 00000001800031a0 f   GuPCMContactPlaneConvex.obj
 0001:000021b0       ??__EmaxV3Error@_VecMathTests@aos@shdfnd@physx@@YAXXZ 00000001800031b0 f   GuPCMContactPlaneConvex.obj
 0001:000021c0       ??__EmaxV4Error@_VecMathTests@aos@shdfnd@physx@@YAXXZ 00000001800031c0 f   GuPCMContactPlaneConvex.obj
 0001:000021d0       ??__EminFError@_VecMathTests@aos@shdfnd@physx@@YAXXZ 00000001800031d0 f   GuPCMContactPlaneConvex.obj
 0001:000021e0       ??__EminV3Error@_VecMathTests@aos@shdfnd@physx@@YAXXZ 00000001800031e0 f   GuPCMContactPlaneConvex.obj
 0001:000021f0       ??__EminV4Error@_VecMathTests@aos@shdfnd@physx@@YAXXZ 00000001800031f0 f   GuPCMContactPlaneConvex.obj
 0001:00002200       ??__EmaxFError@_VecMathTests@aos@shdfnd@physx@@YAXXZ 0000000180003200 f   GuPCMContactSphereBox.obj
 0001:00002210       ??__EmaxV3Error@_VecMathTests@aos@shdfnd@physx@@YAXXZ 0000000180003210 f   GuPCMContactSphereBox.obj
 0001:00002220       ??__EmaxV4Error@_VecMathTests@aos@shdfnd@physx@@YAXXZ 0000000180003220 f   GuPCMContactSphereBox.obj
 0001:00002230       ??__EminFError@_VecMathTests@aos@shdfnd@physx@@YAXXZ 0000000180003230 f   GuPCMContactSphereBox.obj
 0001:00002240       ??__EminV3Error@_VecMathTests@aos@shdfnd@physx@@YAXXZ 0000000180003240 f   GuPCMContactSphereBox.obj
 0001:00002250       ??__EminV4Error@_VecMathTests@aos@shdfnd@physx@@YAXXZ 0000000180003250 f   GuPCMContactSphereBox.obj
 0001:00002260       ??__EmaxFError@_VecMathTests@aos@shdfnd@physx@@YAXXZ 0000000180003260 f   GuPCMContactSphereCapsule.obj
 0001:00002270       ??__EmaxV3Error@_VecMathTests@aos@shdfnd@physx@@YAXXZ 0000000180003270 f   GuPCMContactSphereCapsule.obj
 0001:00002280       ??__EmaxV4Error@_VecMathTests@aos@shdfnd@physx@@YAXXZ 0000000180003280 f   GuPCMContactSphereCapsule.obj
 0001:00002290       ??__EminFError@_VecMathTests@aos@shdfnd@physx@@YAXXZ 0000000180003290 f   GuPCMContactSphereCapsule.obj
 0001:000022a0       ??__EminV3Error@_VecMathTests@aos@shdfnd@physx@@YAXXZ 00000001800032a0 f   GuPCMContactSphereCapsule.obj
 0001:000022b0       ??__EminV4Error@_VecMathTests@aos@shdfnd@physx@@YAXXZ 00000001800032b0 f   GuPCMContactSphereCapsule.obj
 0001:000022c0       ??__EmaxFError@_VecMathTests@aos@shdfnd@physx@@YAXXZ 00000001800032c0 f   GuPCMContactSphereConvex.obj
 0001:000022d0       ??__EmaxV3Error@_VecMathTests@aos@shdfnd@physx@@YAXXZ 00000001800032d0 f   GuPCMContactSphereConvex.obj
 0001:000022e0       ??__EmaxV4Error@_VecMathTests@aos@shdfnd@physx@@YAXXZ 00000001800032e0 f   GuPCMContactSphereConvex.obj
 0001:000022f0       ??__EminFError@_VecMathTests@aos@shdfnd@physx@@YAXXZ 00000001800032f0 f   GuPCMContactSphereConvex.obj
 0001:00002300       ??__EminV3Error@_VecMathTests@aos@shdfnd@physx@@YAXXZ 0000000180003300 f   GuPCMContactSphereConvex.obj
 0001:00002310       ??__EminV4Error@_VecMathTests@aos@shdfnd@physx@@YAXXZ 0000000180003310 f   GuPCMContactSphereConvex.obj
 0001:00002320       ??__EmaxFError@_VecMathTests@aos@shdfnd@physx@@YAXXZ 0000000180003320 f   GuPCMContactSphereHeightField.obj
 0001:00002330       ??__EmaxV3Error@_VecMathTests@aos@shdfnd@physx@@YAXXZ 0000000180003330 f   GuPCMContactSphereHeightField.obj
 0001:00002340       ??__EmaxV4Error@_VecMathTests@aos@shdfnd@physx@@YAXXZ 0000000180003340 f   GuPCMContactSphereHeightField.obj
 0001:00002350       ??__EminFError@_VecMathTests@aos@shdfnd@physx@@YAXXZ 0000000180003350 f   GuPCMContactSphereHeightField.obj
 0001:00002360       ??__EminV3Error@_VecMathTests@aos@shdfnd@physx@@YAXXZ 0000000180003360 f   GuPCMContactSphereHeightField.obj
 0001:00002370       ??__EminV4Error@_VecMathTests@aos@shdfnd@physx@@YAXXZ 0000000180003370 f   GuPCMContactSphereHeightField.obj
 0001:00002380       ??__EmaxFError@_VecMathTests@aos@shdfnd@physx@@YAXXZ 0000000180003380 f   GuPCMContactSphereMesh.obj
 0001:00002390       ??__EmaxV3Error@_VecMathTests@aos@shdfnd@physx@@YAXXZ 0000000180003390 f   GuPCMContactSphereMesh.obj
 0001:000023a0       ??__EmaxV4Error@_VecMathTests@aos@shdfnd@physx@@YAXXZ 00000001800033a0 f   GuPCMContactSphereMesh.obj
 0001:000023b0       ??__EminFError@_VecMathTests@aos@shdfnd@physx@@YAXXZ 00000001800033b0 f   GuPCMContactSphereMesh.obj
 0001:000023c0       ??__EminV3Error@_VecMathTests@aos@shdfnd@physx@@YAXXZ 00000001800033c0 f   GuPCMContactSphereMesh.obj
 0001:000023d0       ??__EminV4Error@_VecMathTests@aos@shdfnd@physx@@YAXXZ 00000001800033d0 f   GuPCMContactSphereMesh.obj
 0001:000023e0       ??__EmaxFError@_VecMathTests@aos@shdfnd@physx@@YAXXZ 00000001800033e0 f   GuPCMContactSpherePlane.obj
 0001:000023f0       ??__EmaxV3Error@_VecMathTests@aos@shdfnd@physx@@YAXXZ 00000001800033f0 f   GuPCMContactSpherePlane.obj
 0001:00002400       ??__EmaxV4Error@_VecMathTests@aos@shdfnd@physx@@YAXXZ 0000000180003400 f   GuPCMContactSpherePlane.obj
 0001:00002410       ??__EminFError@_VecMathTests@aos@shdfnd@physx@@YAXXZ 0000000180003410 f   GuPCMContactSpherePlane.obj
 0001:00002420       ??__EminV3Error@_VecMathTests@aos@shdfnd@physx@@YAXXZ 0000000180003420 f   GuPCMContactSpherePlane.obj
 0001:00002430       ??__EminV4Error@_VecMathTests@aos@shdfnd@physx@@YAXXZ 0000000180003430 f   GuPCMContactSpherePlane.obj
 0001:00002440       ??__EmaxFError@_VecMathTests@aos@shdfnd@physx@@YAXXZ 0000000180003440 f   GuPCMContactSphereSphere.obj
 0001:00002450       ??__EmaxV3Error@_VecMathTests@aos@shdfnd@physx@@YAXXZ 0000000180003450 f   GuPCMContactSphereSphere.obj
 0001:00002460       ??__EmaxV4Error@_VecMathTests@aos@shdfnd@physx@@YAXXZ 0000000180003460 f   GuPCMContactSphereSphere.obj
 0001:00002470       ??__EminFError@_VecMathTests@aos@shdfnd@physx@@YAXXZ 0000000180003470 f   GuPCMContactSphereSphere.obj
 0001:00002480       ??__EminV3Error@_VecMathTests@aos@shdfnd@physx@@YAXXZ 0000000180003480 f   GuPCMContactSphereSphere.obj
 0001:00002490       ??__EminV4Error@_VecMathTests@aos@shdfnd@physx@@YAXXZ 0000000180003490 f   GuPCMContactSphereSphere.obj
 0001:000024a0       ??__EmaxFError@_VecMathTests@aos@shdfnd@physx@@YAXXZ 00000001800034a0 f   GuPCMShapeConvex.obj
 0001:000024b0       ??__EmaxV3Error@_VecMathTests@aos@shdfnd@physx@@YAXXZ 00000001800034b0 f   GuPCMShapeConvex.obj
 0001:000024c0       ??__EmaxV4Error@_VecMathTests@aos@shdfnd@physx@@YAXXZ 00000001800034c0 f   GuPCMShapeConvex.obj
 0001:000024d0       ??__EminFError@_VecMathTests@aos@shdfnd@physx@@YAXXZ 00000001800034d0 f   GuPCMShapeConvex.obj
 0001:000024e0       ??__EminV3Error@_VecMathTests@aos@shdfnd@physx@@YAXXZ 00000001800034e0 f   GuPCMShapeConvex.obj
 0001:000024f0       ??__EminV4Error@_VecMathTests@aos@shdfnd@physx@@YAXXZ 00000001800034f0 f   GuPCMShapeConvex.obj
 0001:00002500       ??__EmaxFError@_VecMathTests@aos@shdfnd@physx@@YAXXZ 0000000180003500 f   GuPCMTriangleContactGen.obj
 0001:00002510       ??__EmaxV3Error@_VecMathTests@aos@shdfnd@physx@@YAXXZ 0000000180003510 f   GuPCMTriangleContactGen.obj
 0001:00002520       ??__EmaxV4Error@_VecMathTests@aos@shdfnd@physx@@YAXXZ 0000000180003520 f   GuPCMTriangleContactGen.obj
 0001:00002530       ??__EminFError@_VecMathTests@aos@shdfnd@physx@@YAXXZ 0000000180003530 f   GuPCMTriangleContactGen.obj
 0001:00002540       ??__EminV3Error@_VecMathTests@aos@shdfnd@physx@@YAXXZ 0000000180003540 f   GuPCMTriangleContactGen.obj
 0001:00002550       ??__EminV4Error@_VecMathTests@aos@shdfnd@physx@@YAXXZ 0000000180003550 f   GuPCMTriangleContactGen.obj
 0001:00002560       ??__EmaxFError@_VecMathTests@aos@shdfnd@physx@@YAXXZ 0000000180003560 f   GuPersistentContactManifold.obj
 0001:00002570       ??__EmaxV3Error@_VecMathTests@aos@shdfnd@physx@@YAXXZ 0000000180003570 f   GuPersistentContactManifold.obj
 0001:00002580       ??__EmaxV4Error@_VecMathTests@aos@shdfnd@physx@@YAXXZ 0000000180003580 f   GuPersistentContactManifold.obj
 0001:00002590       ??__EminFError@_VecMathTests@aos@shdfnd@physx@@YAXXZ 0000000180003590 f   GuPersistentContactManifold.obj
 0001:000025a0       ??__EminV3Error@_VecMathTests@aos@shdfnd@physx@@YAXXZ 00000001800035a0 f   GuPersistentContactManifold.obj
 0001:000025b0       ??__EminV4Error@_VecMathTests@aos@shdfnd@physx@@YAXXZ 00000001800035b0 f   GuPersistentContactManifold.obj
 0001:000025c0       ??__EmaxFError@_VecMathTests@aos@shdfnd@physx@@YAXXZ 00000001800035c0 f   GuSweepBoxBox.obj
 0001:000025d0       ??__EmaxV3Error@_VecMathTests@aos@shdfnd@physx@@YAXXZ 00000001800035d0 f   GuSweepBoxBox.obj
 0001:000025e0       ??__EmaxV4Error@_VecMathTests@aos@shdfnd@physx@@YAXXZ 00000001800035e0 f   GuSweepBoxBox.obj
 0001:000025f0       ??__EminFError@_VecMathTests@aos@shdfnd@physx@@YAXXZ 00000001800035f0 f   GuSweepBoxBox.obj
 0001:00002600       ??__EminV3Error@_VecMathTests@aos@shdfnd@physx@@YAXXZ 0000000180003600 f   GuSweepBoxBox.obj
 0001:00002610       ??__EminV4Error@_VecMathTests@aos@shdfnd@physx@@YAXXZ 0000000180003610 f   GuSweepBoxBox.obj
 0001:00002620       ??__EmaxFError@_VecMathTests@aos@shdfnd@physx@@YAXXZ 0000000180003620 f   GuSweepBoxSphere.obj
 0001:00002630       ??__EmaxV3Error@_VecMathTests@aos@shdfnd@physx@@YAXXZ 0000000180003630 f   GuSweepBoxSphere.obj
 0001:00002640       ??__EmaxV4Error@_VecMathTests@aos@shdfnd@physx@@YAXXZ 0000000180003640 f   GuSweepBoxSphere.obj
 0001:00002650       ??__EminFError@_VecMathTests@aos@shdfnd@physx@@YAXXZ 0000000180003650 f   GuSweepBoxSphere.obj
 0001:00002660       ??__EminV3Error@_VecMathTests@aos@shdfnd@physx@@YAXXZ 0000000180003660 f   GuSweepBoxSphere.obj
 0001:00002670       ??__EminV4Error@_VecMathTests@aos@shdfnd@physx@@YAXXZ 0000000180003670 f   GuSweepBoxSphere.obj
 0001:00002680       ??__EmaxFError@_VecMathTests@aos@shdfnd@physx@@YAXXZ 0000000180003680 f   GuSweepBoxTriangle_FeatureBased.obj
 0001:00002690       ??__EmaxV3Error@_VecMathTests@aos@shdfnd@physx@@YAXXZ 0000000180003690 f   GuSweepBoxTriangle_FeatureBased.obj
 0001:000026a0       ??__EmaxV4Error@_VecMathTests@aos@shdfnd@physx@@YAXXZ 00000001800036a0 f   GuSweepBoxTriangle_FeatureBased.obj
 0001:000026b0       ??__EminFError@_VecMathTests@aos@shdfnd@physx@@YAXXZ 00000001800036b0 f   GuSweepBoxTriangle_FeatureBased.obj
 0001:000026c0       ??__EminV3Error@_VecMathTests@aos@shdfnd@physx@@YAXXZ 00000001800036c0 f   GuSweepBoxTriangle_FeatureBased.obj
 0001:000026d0       ??__EminV4Error@_VecMathTests@aos@shdfnd@physx@@YAXXZ 00000001800036d0 f   GuSweepBoxTriangle_FeatureBased.obj
 0001:000026e0       ??__EmaxFError@_VecMathTests@aos@shdfnd@physx@@YAXXZ 00000001800036e0 f   GuSweepBoxTriangle_SAT.obj
 0001:000026f0       ??__EmaxV3Error@_VecMathTests@aos@shdfnd@physx@@YAXXZ 00000001800036f0 f   GuSweepBoxTriangle_SAT.obj
 0001:00002700       ??__EmaxV4Error@_VecMathTests@aos@shdfnd@physx@@YAXXZ 0000000180003700 f   GuSweepBoxTriangle_SAT.obj
 0001:00002710       ??__EminFError@_VecMathTests@aos@shdfnd@physx@@YAXXZ 0000000180003710 f   GuSweepBoxTriangle_SAT.obj
 0001:00002720       ??__EminV3Error@_VecMathTests@aos@shdfnd@physx@@YAXXZ 0000000180003720 f   GuSweepBoxTriangle_SAT.obj
 0001:00002730       ??__EminV4Error@_VecMathTests@aos@shdfnd@physx@@YAXXZ 0000000180003730 f   GuSweepBoxTriangle_SAT.obj
 0001:00002740       ??__EmaxFError@_VecMathTests@aos@shdfnd@physx@@YAXXZ 0000000180003740 f   GuSweepCapsuleBox.obj
 0001:00002750       ??__EmaxV3Error@_VecMathTests@aos@shdfnd@physx@@YAXXZ 0000000180003750 f   GuSweepCapsuleBox.obj
 0001:00002760       ??__EmaxV4Error@_VecMathTests@aos@shdfnd@physx@@YAXXZ 0000000180003760 f   GuSweepCapsuleBox.obj
 0001:00002770       ??__EminFError@_VecMathTests@aos@shdfnd@physx@@YAXXZ 0000000180003770 f   GuSweepCapsuleBox.obj
 0001:00002780       ??__EminV3Error@_VecMathTests@aos@shdfnd@physx@@YAXXZ 0000000180003780 f   GuSweepCapsuleBox.obj
 0001:00002790       ??__EminV4Error@_VecMathTests@aos@shdfnd@physx@@YAXXZ 0000000180003790 f   GuSweepCapsuleBox.obj
 0001:000027a0       ??__EmaxFError@_VecMathTests@aos@shdfnd@physx@@YAXXZ 00000001800037a0 f   GuSweepCapsuleTriangle.obj
 0001:000027b0       ??__EmaxV3Error@_VecMathTests@aos@shdfnd@physx@@YAXXZ 00000001800037b0 f   GuSweepCapsuleTriangle.obj
 0001:000027c0       ??__EmaxV4Error@_VecMathTests@aos@shdfnd@physx@@YAXXZ 00000001800037c0 f   GuSweepCapsuleTriangle.obj
 0001:000027d0       ??__EminFError@_VecMathTests@aos@shdfnd@physx@@YAXXZ 00000001800037d0 f   GuSweepCapsuleTriangle.obj
 0001:000027e0       ??__EminV3Error@_VecMathTests@aos@shdfnd@physx@@YAXXZ 00000001800037e0 f   GuSweepCapsuleTriangle.obj
 0001:000027f0       ??__EminV4Error@_VecMathTests@aos@shdfnd@physx@@YAXXZ 00000001800037f0 f   GuSweepCapsuleTriangle.obj
 0001:00002800       ??__EmaxFError@_VecMathTests@aos@shdfnd@physx@@YAXXZ 0000000180003800 f   GuSweepSphereTriangle.obj
 0001:00002810       ??__EmaxV3Error@_VecMathTests@aos@shdfnd@physx@@YAXXZ 0000000180003810 f   GuSweepSphereTriangle.obj
 0001:00002820       ??__EmaxV4Error@_VecMathTests@aos@shdfnd@physx@@YAXXZ 0000000180003820 f   GuSweepSphereTriangle.obj
 0001:00002830       ??__EminFError@_VecMathTests@aos@shdfnd@physx@@YAXXZ 0000000180003830 f   GuSweepSphereTriangle.obj
 0001:00002840       ??__EminV3Error@_VecMathTests@aos@shdfnd@physx@@YAXXZ 0000000180003840 f   GuSweepSphereTriangle.obj
 0001:00002850       ??__EminV4Error@_VecMathTests@aos@shdfnd@physx@@YAXXZ 0000000180003850 f   GuSweepSphereTriangle.obj
 0001:00002860       ??__EmaxFError@_VecMathTests@aos@shdfnd@physx@@YAXXZ 0000000180003860 f   GuSweepTriangleUtils.obj
 0001:00002870       ??__EmaxV3Error@_VecMathTests@aos@shdfnd@physx@@YAXXZ 0000000180003870 f   GuSweepTriangleUtils.obj
 0001:00002880       ??__EmaxV4Error@_VecMathTests@aos@shdfnd@physx@@YAXXZ 0000000180003880 f   GuSweepTriangleUtils.obj
 0001:00002890       ??__EminFError@_VecMathTests@aos@shdfnd@physx@@YAXXZ 0000000180003890 f   GuSweepTriangleUtils.obj
 0001:000028a0       ??__EminV3Error@_VecMathTests@aos@shdfnd@physx@@YAXXZ 00000001800038a0 f   GuSweepTriangleUtils.obj
 0001:000028b0       ??__EminV4Error@_VecMathTests@aos@shdfnd@physx@@YAXXZ 00000001800038b0 f   GuSweepTriangleUtils.obj
 0001:00009280       $LN24                      000000018000a280     CmWindowsDelayLoadHook.obj
 0001:0000a544       $LN726                     000000018000b544     GuBounds.obj
 0001:0000a718       $LN77                      000000018000b718     GuBounds.obj
 0001:0000a780       ?computeMeshBounds@@YAXAEBVPxVec3@physx@@AEBVPxMat33Padded@Gu@2@PEIBVCenterExtentsPadded@42@AEBVPxMeshScale@2@AEAVVec3p@42@4@Z 000000018000b780 f   GuBounds.obj
 0001:0000af20       ?computePlaneBounds@@YAXAEAVPxBounds3@physx@@AEBVPxTransform@2@MM@Z 000000018000bf20 f   GuBounds.obj
 0001:0000b1c0       ?computeScaledMatrix@@YAXAEAVPxMat33Padded@Gu@physx@@AEBVPxMeshScale@3@@Z 000000018000c1c0 f   GuBounds.obj
 0001:0000c700       ??_GLocalReport@?1??sweepBox_HeightFieldGeom_Precise@@YA_NAEBVPxGeometry@physx@@AEBVPxTransform@3@AEBVPxBoxGeometry@3@1AEBVBox@Gu@3@AEBVPxVec3@3@MAEAUPxSweepHit@3@V?$PxFlags@W4Enum@PxHitFlag@physx@@G@3@M@Z@UEAAPEAXI@Z 000000018000d700 f   GuCCTSweepTests.obj
 0001:0000c700       ??_GHfTrianglesEntityReport2@?A0xf1d1ac9e@@UEAAPEAXI@Z 000000018000d700 f   GuMeshQuery.obj
 0001:0000d350       ?onEvent@LocalReport@?1??sweepBox_HeightFieldGeom_Precise@@YA_NAEBVPxGeometry@physx@@AEBVPxTransform@4@AEBVPxBoxGeometry@4@1AEBVBox@Gu@4@AEBVPxVec3@4@MAEAUPxSweepHit@4@V?$PxFlags@W4Enum@PxHitFlag@physx@@G@4@M@Z@UEAA_NIPEAI@Z 000000018000e350 f   GuCCTSweepTests.obj
 0001:0000d630       ?sweepBoxVsTriangles@@YA_NIPEBVPxTriangle@physx@@AEBVBox@Gu@2@AEBVPxVec3@2@MAEAUPxSweepHit@2@V?$PxFlags@W4Enum@PxHitFlag@physx@@G@2@_NPEBI@Z 000000018000e630 f   GuCCTSweepTests.obj
 0001:00010764       $LN45                      0000000180011764     GuGeometryUnion.obj
 0001:00012950       ?loadMeshData@@YAPEAVTriangleMeshData@Gu@physx@@AEAVPxInputStream@3@@Z 0000000180013950 f   GuMeshFactory.obj
 0001:00015d10       ?getBinaryMetaData@ShadowConvexMeshGeometry@?1??0GeometryUnion@Gu@physx@@SAXAEAVPxOutputStream@4@@Z@SAX0@Z 0000000180016d10 f   GuMetaData.obj
 0001:00015f80       ?getBinaryMetaData@ShadowHeightFieldGeometry@?1??0GeometryUnion@Gu@physx@@SAXAEAVPxOutputStream@4@@Z@SAX0@Z 0000000180016f80 f   GuMetaData.obj
 0001:00016220       ?getBinaryMetaData@ShadowTriangleMeshGeometry@?1??0GeometryUnion@Gu@physx@@SAXAEAVPxOutputStream@4@@Z@SAX0@Z 0000000180017220 f   GuMetaData.obj
 0001:00016cf0       ?getBinaryMetaData_BVDataPackedQ@@YAXAEAVPxOutputStream@physx@@@Z 0000000180017cf0 f   GuMetaData.obj
 0001:00016f70       ?getBinaryMetaData_BigConvexRawData@@YAXAEAVPxOutputStream@physx@@@Z 0000000180017f70 f   GuMetaData.obj
 0001:000171a0       ?getBinaryMetaData_ConvexHullData@@YAXAEAVPxOutputStream@physx@@@Z 00000001800181a0 f   GuMetaData.obj
 0001:00017410       ?getBinaryMetaData_HeightFieldData@@YAXAEAVPxOutputStream@physx@@@Z 0000000180018410 f   GuMetaData.obj
 0001:00017740       ?getBinaryMetaData_RTreePage@@YAXAEAVPxOutputStream@physx@@@Z 0000000180018740 f   GuMetaData.obj
 0001:000180d0       ?GeomMTDCallback_NotSupported@@YA_NAEAVPxVec3@physx@@AEAMAEBVPxGeometry@2@AEBVPxTransform@2@23@Z 00000001800190d0 f   GuMTD.obj
 0001:000180d0       ?GeomOverlapCallback_NotSupported@@YA_NAEBVPxGeometry@physx@@AEBVPxTransform@2@01PEAUTriggerCache@Gu@2@@Z 00000001800190d0 f   GuOverlapTests.obj
 0001:000180e0       ?GeomMTDCallback_SphereSphere@@YA_NAEAVPxVec3@physx@@AEAMAEBVPxGeometry@2@AEBVPxTransform@2@23@Z 00000001800190e0 f   GuMTD.obj
 0001:000181c0       ?GeomMTDCallback_SpherePlane@@YA_NAEAVPxVec3@physx@@AEAMAEBVPxGeometry@2@AEBVPxTransform@2@23@Z 00000001800191c0 f   GuMTD.obj
 0001:00018290       ?GeomMTDCallback_SphereCapsule@@YA_NAEAVPxVec3@physx@@AEAMAEBVPxGeometry@2@AEBVPxTransform@2@23@Z 0000000180019290 f   GuMTD.obj
 0001:000183d0       ?GeomMTDCallback_SphereBox@@YA_NAEAVPxVec3@physx@@AEAMAEBVPxGeometry@2@AEBVPxTransform@2@23@Z 00000001800193d0 f   GuMTD.obj
 0001:000184f0       ?GeomMTDCallback_SphereConvex@@YA_NAEAVPxVec3@physx@@AEAMAEBVPxGeometry@2@AEBVPxTransform@2@23@Z 00000001800194f0 f   GuMTD.obj
 0001:00018550       ?GeomMTDCallback_SphereMesh@@YA_NAEAVPxVec3@physx@@AEAMAEBVPxGeometry@2@AEBVPxTransform@2@23@Z 0000000180019550 f   GuMTD.obj
 0001:000186c0       ?GeomMTDCallback_PlaneCapsule@@YA_NAEAVPxVec3@physx@@AEAMAEBVPxGeometry@2@AEBVPxTransform@2@23@Z 00000001800196c0 f   GuMTD.obj
 0001:000188a0       ?GeomMTDCallback_PlaneBox@@YA_NAEAVPxVec3@physx@@AEAMAEBVPxGeometry@2@AEBVPxTransform@2@23@Z 00000001800198a0 f   GuMTD.obj
 0001:000189b0       ?GeomMTDCallback_PlaneConvex@@YA_NAEAVPxVec3@physx@@AEAMAEBVPxGeometry@2@AEBVPxTransform@2@23@Z 00000001800199b0 f   GuMTD.obj
 0001:00018a00       ?GeomMTDCallback_CapsuleCapsule@@YA_NAEAVPxVec3@physx@@AEAMAEBVPxGeometry@2@AEBVPxTransform@2@23@Z 0000000180019a00 f   GuMTD.obj
 0001:00018be0       ?GeomMTDCallback_CapsuleBox@@YA_NAEAVPxVec3@physx@@AEAMAEBVPxGeometry@2@AEBVPxTransform@2@23@Z 0000000180019be0 f   GuMTD.obj
 0001:00018db0       ?GeomMTDCallback_CapsuleConvex@@YA_NAEAVPxVec3@physx@@AEAMAEBVPxGeometry@2@AEBVPxTransform@2@23@Z 0000000180019db0 f   GuMTD.obj
 0001:00018ec0       ?GeomMTDCallback_CapsuleMesh@@YA_NAEAVPxVec3@physx@@AEAMAEBVPxGeometry@2@AEBVPxTransform@2@23@Z 0000000180019ec0 f   GuMTD.obj
 0001:000190d0       ?GeomMTDCallback_BoxBox@@YA_NAEAVPxVec3@physx@@AEAMAEBVPxGeometry@2@AEBVPxTransform@2@23@Z 000000018001a0d0 f   GuMTD.obj
 0001:00019290       ?GeomMTDCallback_BoxConvex@@YA_NAEAVPxVec3@physx@@AEAMAEBVPxGeometry@2@AEBVPxTransform@2@23@Z 000000018001a290 f   GuMTD.obj
 0001:00019380       ?GeomMTDCallback_BoxMesh@@YA_NAEAVPxVec3@physx@@AEAMAEBVPxGeometry@2@AEBVPxTransform@2@23@Z 000000018001a380 f   GuMTD.obj
 0001:000195f0       ?GeomMTDCallback_ConvexConvex@@YA_NAEAVPxVec3@physx@@AEAMAEBVPxGeometry@2@AEBVPxTransform@2@23@Z 000000018001a5f0 f   GuMTD.obj
 0001:00019600       ?GeomMTDCallback_ConvexMesh@@YA_NAEAVPxVec3@physx@@AEAMAEBVPxGeometry@2@AEBVPxTransform@2@23@Z 000000018001a600 f   GuMTD.obj
 0001:00019710       ?GeomMTDCallback_SphereHeightField@@YA_NAEAVPxVec3@physx@@AEAMAEBVPxGeometry@2@AEBVPxTransform@2@23@Z 000000018001a710 f   GuMTD.obj
 0001:00019880       ?GeomMTDCallback_CapsuleHeightField@@YA_NAEAVPxVec3@physx@@AEAMAEBVPxGeometry@2@AEBVPxTransform@2@23@Z 000000018001a880 f   GuMTD.obj
 0001:00019a90       ?GeomMTDCallback_BoxHeightField@@YA_NAEAVPxVec3@physx@@AEAMAEBVPxGeometry@2@AEBVPxTransform@2@23@Z 000000018001aa90 f   GuMTD.obj
 0001:00019d00       ?GeomMTDCallback_ConvexHeightField@@YA_NAEAVPxVec3@physx@@AEAMAEBVPxGeometry@2@AEBVPxTransform@2@23@Z 000000018001ad00 f   GuMTD.obj
 0001:0001b2d0       ?PxcCapsuleOBBOverlap3@@YA_NAEBVSegment@Gu@physx@@MAEBVBox@23@PEAMPEAVPxVec3@3@@Z 000000018001c2d0 f   GuMTD.obj
 0001:0001b6a0       ?PxcTestAxis@@YA_NAEBVPxVec3@physx@@AEBVBox@Gu@2@1AEAM@Z 000000018001c6a0 f   GuMTD.obj
 0001:0001b890       ?PxcTestAxis@@YA_NAEBVPxVec3@physx@@AEBVSegment@Gu@2@MAEBVBox@42@AEAM@Z 000000018001c890 f   GuMTD.obj
 0001:0001ba90       ?computeMTD_BoxBox@@YA_NAEAVPxVec3@physx@@AEAMAEBVBox@Gu@2@2@Z 000000018001ca90 f   GuMTD.obj
 0001:0001bec0       ?computeMTD_BoxConvex@@YA_NAEAVPxVec3@physx@@AEAMAEBVBox@Gu@2@AEBVPxConvexMeshGeometry@2@AEBVPxTransform@2@@Z 000000018001cec0 f   GuMTD.obj
 0001:0001c6c0       ?computeMTD_CapsuleBox@@YA_NAEAVPxVec3@physx@@AEAMAEBVCapsule@Gu@2@AEBVBox@42@@Z 000000018001d6c0 f   GuMTD.obj
 0001:0001c8e0       ?computeMTD_CapsuleCapsule@@YA_NAEAVPxVec3@physx@@AEAMAEBVCapsule@Gu@2@2@Z 000000018001d8e0 f   GuMTD.obj
 0001:0001cb00       ?computeMTD_CapsuleConvex@@YA_NAEAVPxVec3@physx@@AEAMAEBVCapsule@Gu@2@AEBVPxTransform@2@AEBVPxConvexMeshGeometry@2@3@Z 000000018001db00 f   GuMTD.obj
